Archive member included because of file (symbol)

/home/moslevin/m3/trunk/embedded/stage/lib/avr/atmega328p/gcc/libmark3.a(driver.cpp.o)
                              ./obj/avr/atmega328p/gcc/Kernel++.cpp.o (_ZN10DriverList14m_clDriverListE)
/home/moslevin/m3/trunk/embedded/stage/lib/avr/atmega328p/gcc/libmark3.a(ll.cpp.o)
                              ./obj/avr/atmega328p/gcc/Kernel++.cpp.o (_ZN14DoubleLinkList3AddEP12LinkListNode)
/home/moslevin/m3/trunk/embedded/stage/lib/avr/atmega328p/gcc/libmark3.a(thread.cpp.o)
                              ./obj/avr/atmega328p/gcc/Kernel++.cpp.o (_ZN6Thread4InitEPhthPFvPvES1_)
/home/moslevin/m3/trunk/embedded/stage/lib/avr/atmega328p/gcc/libmark3.a(threadlist.cpp.o)
                              /home/moslevin/m3/trunk/embedded/stage/lib/avr/atmega328p/gcc/libmark3.a(thread.cpp.o) (_ZTV10ThreadList)
/home/moslevin/m3/trunk/embedded/stage/lib/avr/atmega328p/gcc/libmark3.a(kernel.cpp.o)
                              ./obj/avr/atmega328p/gcc/Kernel++.cpp.o (_ZN6Kernel4InitEv)
/home/moslevin/m3/trunk/embedded/stage/lib/avr/atmega328p/gcc/libmark3.a(timerlist.cpp.o)
                              /home/moslevin/m3/trunk/embedded/stage/lib/avr/atmega328p/gcc/libmark3.a(kernel.cpp.o) (_ZN9TimerList4InitEv)
/home/moslevin/m3/trunk/embedded/stage/lib/avr/atmega328p/gcc/libmark3.a(threadport.cpp.o)
                              /home/moslevin/m3/trunk/embedded/stage/lib/avr/atmega328p/gcc/libmark3.a(thread.cpp.o) (_ZN10ThreadPort9InitStackEP6Thread)
/home/moslevin/m3/trunk/embedded/stage/lib/avr/atmega328p/gcc/libmark3.a(kernelswi.cpp.o)
                              /home/moslevin/m3/trunk/embedded/stage/lib/avr/atmega328p/gcc/libmark3.a(threadport.cpp.o) (_ZN9KernelSWI6ConfigEv)
/home/moslevin/m3/trunk/embedded/stage/lib/avr/atmega328p/gcc/libmark3.a(kerneltimer.cpp.o)
                              /home/moslevin/m3/trunk/embedded/stage/lib/avr/atmega328p/gcc/libmark3.a(threadport.cpp.o) (_ZN11KernelTimer6ConfigEv)
/home/moslevin/m3/trunk/embedded/stage/lib/avr/atmega328p/gcc/libmark3.a(kprofile.cpp.o)
                              /home/moslevin/m3/trunk/embedded/stage/lib/avr/atmega328p/gcc/libmark3.a(kernel.cpp.o) (_ZN8Profiler4InitEv)
/home/moslevin/m3/trunk/embedded/stage/lib/avr/atmega328p/gcc/libmark3.a(message.cpp.o)
                              /home/moslevin/m3/trunk/embedded/stage/lib/avr/atmega328p/gcc/libmark3.a(kernel.cpp.o) (_ZN17GlobalMessagePool4InitEv)
/home/moslevin/m3/trunk/embedded/stage/lib/avr/atmega328p/gcc/libmark3.a(quantum.cpp.o)
                              /home/moslevin/m3/trunk/embedded/stage/lib/avr/atmega328p/gcc/libmark3.a(thread.cpp.o) (_ZN7Quantum9AddThreadEP6Thread)
/home/moslevin/m3/trunk/embedded/stage/lib/avr/atmega328p/gcc/libmark3.a(scheduler.cpp.o)
                              /home/moslevin/m3/trunk/embedded/stage/lib/avr/atmega328p/gcc/libmark3.a(kernel.cpp.o) (_ZN9Scheduler4InitEv)
/home/moslevin/m3/trunk/embedded/stage/lib/avr/atmega328p/gcc/libmark3.a(semaphore.cpp.o)
                              /home/moslevin/m3/trunk/embedded/stage/lib/avr/atmega328p/gcc/libmark3.a(thread.cpp.o) (_ZN9Semaphore4InitEtt)
/home/moslevin/m3/trunk/embedded/stage/lib/avr/atmega328p/gcc/libmark3.a(blocking.cpp.o)
                              /home/moslevin/m3/trunk/embedded/stage/lib/avr/atmega328p/gcc/libmark3.a(semaphore.cpp.o) (_ZN14BlockingObject5BlockEP6Thread)
/home/moslevin/m3/trunk/embedded/stage/lib/avr/atmega328p/gcc/libslip.a(slip.cpp.o)
                              ./obj/avr/atmega328p/gcc/Kernel++.cpp.o (_ZN4Slip9WriteDataEhPct)
/home/moslevin/m3/trunk/embedded/stage/lib/avr/atmega328p/gcc/libslip.a(slip_mux.cpp.o)
                              ./obj/avr/atmega328p/gcc/Kernel++.cpp.o (_ZN7SlipMux4InitEPctPhtS1_)
/home/moslevin/m3/trunk/embedded/stage/lib/avr/atmega328p/gcc/libdrvUART.a(drvUART.cpp.o)
                              ./obj/avr/atmega328p/gcc/Kernel++.cpp.o (_ZN10ATMegaUART4OpenEv)
/home/moslevin/m3/trunk/embedded/stage/lib/avr/atmega328p/gcc/libheap.a(fixed_heap.cpp.o)
                              ./obj/avr/atmega328p/gcc/Kernel++.cpp.o (_ZN9FixedHeap6CreateEPvP10HeapConfig)
/opt/avr8-gnu-toolchain-linux_x86_64/bin/../lib/gcc/avr/4.6.2/avr5/libgcc.a(_mulsi3.o)
                              /home/moslevin/m3/trunk/embedded/stage/lib/avr/atmega328p/gcc/libmark3.a(timerlist.cpp.o) (__mulsi3)
/opt/avr8-gnu-toolchain-linux_x86_64/bin/../lib/gcc/avr/4.6.2/avr5/libgcc.a(_udivmodhi4.o)
                              /home/moslevin/m3/trunk/embedded/stage/lib/avr/atmega328p/gcc/libheap.a(fixed_heap.cpp.o) (__udivmodhi4)
/opt/avr8-gnu-toolchain-linux_x86_64/bin/../lib/gcc/avr/4.6.2/avr5/libgcc.a(_udivmodsi4.o)
                              /home/moslevin/m3/trunk/embedded/stage/lib/avr/atmega328p/gcc/libmark3.a(timerlist.cpp.o) (__udivmodsi4)
/opt/avr8-gnu-toolchain-linux_x86_64/bin/../lib/gcc/avr/4.6.2/avr5/libgcc.a(_exit.o)
                              /opt/avr8-gnu-toolchain-linux_x86_64/bin/../lib/gcc/avr/4.6.2/../../../../avr/lib/avr5/crtm328p.o (exit)
/opt/avr8-gnu-toolchain-linux_x86_64/bin/../lib/gcc/avr/4.6.2/avr5/libgcc.a(_copy_data.o)
                              ./obj/avr/atmega328p/gcc/Kernel++.cpp.o (__do_copy_data)
/opt/avr8-gnu-toolchain-linux_x86_64/bin/../lib/gcc/avr/4.6.2/avr5/libgcc.a(_clear_bss.o)
                              ./obj/avr/atmega328p/gcc/Kernel++.cpp.o (__do_clear_bss)
/opt/avr8-gnu-toolchain-linux_x86_64/bin/../lib/gcc/avr/4.6.2/avr5/libgcc.a(_ctors.o)
                              ./obj/avr/atmega328p/gcc/Kernel++.cpp.o (__do_global_ctors)
/opt/avr8-gnu-toolchain-linux_x86_64/bin/../lib/gcc/avr/4.6.2/avr5/libgcc.a(_tablejump.o)
                              /opt/avr8-gnu-toolchain-linux_x86_64/bin/../lib/gcc/avr/4.6.2/avr5/libgcc.a(_ctors.o) (__tablejump__)

Discarded input sections

 .bss           0x0000000000000000        0x0 /opt/avr8-gnu-toolchain-linux_x86_64/bin/../lib/gcc/avr/4.6.2/../../../../avr/lib/avr5/crtm328p.o
 .text          0x0000000000000000        0x0 ./obj/avr/atmega328p/gcc/Kernel++.cpp.o
 .text          0x0000000000000000        0x0 /home/moslevin/m3/trunk/embedded/stage/lib/avr/atmega328p/gcc/libmark3.a(driver.cpp.o)
 .text          0x0000000000000000        0x0 /home/moslevin/m3/trunk/embedded/stage/lib/avr/atmega328p/gcc/libmark3.a(ll.cpp.o)
 .bss           0x0000000000000000        0x0 /home/moslevin/m3/trunk/embedded/stage/lib/avr/atmega328p/gcc/libmark3.a(ll.cpp.o)
 .text._ZN16CircularLinkList13PivotBackwardEv
                0x0000000000000000       0x28 /home/moslevin/m3/trunk/embedded/stage/lib/avr/atmega328p/gcc/libmark3.a(ll.cpp.o)
 .text          0x0000000000000000        0x0 /home/moslevin/m3/trunk/embedded/stage/lib/avr/atmega328p/gcc/libmark3.a(thread.cpp.o)
 .text._ZL19ThreadSleepCallbackP6ThreadPv
                0x0000000000000000        0x8 /home/moslevin/m3/trunk/embedded/stage/lib/avr/atmega328p/gcc/libmark3.a(thread.cpp.o)
 .text._ZN6Thread5SleepEm
                0x0000000000000000       0xae /home/moslevin/m3/trunk/embedded/stage/lib/avr/atmega328p/gcc/libmark3.a(thread.cpp.o)
 .text._ZN6Thread13GetStackSlackEv
                0x0000000000000000       0x46 /home/moslevin/m3/trunk/embedded/stage/lib/avr/atmega328p/gcc/libmark3.a(thread.cpp.o)
 .text._ZN6Thread15SetPriorityBaseEh
                0x0000000000000000       0x4c /home/moslevin/m3/trunk/embedded/stage/lib/avr/atmega328p/gcc/libmark3.a(thread.cpp.o)
 .text._ZN6Thread15InheritPriorityEh
                0x0000000000000000       0x22 /home/moslevin/m3/trunk/embedded/stage/lib/avr/atmega328p/gcc/libmark3.a(thread.cpp.o)
 .text._ZN6Thread11SetPriorityEh
                0x0000000000000000       0x8e /home/moslevin/m3/trunk/embedded/stage/lib/avr/atmega328p/gcc/libmark3.a(thread.cpp.o)
 .text._ZN6Thread4ExitEv
                0x0000000000000000       0x46 /home/moslevin/m3/trunk/embedded/stage/lib/avr/atmega328p/gcc/libmark3.a(thread.cpp.o)
 .text          0x0000000000000000        0x0 /home/moslevin/m3/trunk/embedded/stage/lib/avr/atmega328p/gcc/libmark3.a(threadlist.cpp.o)
 .bss           0x0000000000000000        0x0 /home/moslevin/m3/trunk/embedded/stage/lib/avr/atmega328p/gcc/libmark3.a(threadlist.cpp.o)
 .text._ZN10ThreadList3AddEP12LinkListNodePhh
                0x0000000000000000       0x1e /home/moslevin/m3/trunk/embedded/stage/lib/avr/atmega328p/gcc/libmark3.a(threadlist.cpp.o)
 .text          0x0000000000000000        0x0 /home/moslevin/m3/trunk/embedded/stage/lib/avr/atmega328p/gcc/libmark3.a(kernel.cpp.o)
 .bss           0x0000000000000000        0x0 /home/moslevin/m3/trunk/embedded/stage/lib/avr/atmega328p/gcc/libmark3.a(kernel.cpp.o)
 .text          0x0000000000000000        0x0 /home/moslevin/m3/trunk/embedded/stage/lib/avr/atmega328p/gcc/libmark3.a(timerlist.cpp.o)
 .text._ZN5Timer4StopEv
                0x0000000000000000        0xc /home/moslevin/m3/trunk/embedded/stage/lib/avr/atmega328p/gcc/libmark3.a(timerlist.cpp.o)
 .text._ZN5Timer16SetIntervalTicksEm
                0x0000000000000000        0xc /home/moslevin/m3/trunk/embedded/stage/lib/avr/atmega328p/gcc/libmark3.a(timerlist.cpp.o)
 .text._ZN5Timer18SetIntervalSecondsEm
                0x0000000000000000       0x2e /home/moslevin/m3/trunk/embedded/stage/lib/avr/atmega328p/gcc/libmark3.a(timerlist.cpp.o)
 .text._ZN5Timer5StartEhmPFvP6ThreadPvES2_
                0x0000000000000000       0x5a /home/moslevin/m3/trunk/embedded/stage/lib/avr/atmega328p/gcc/libmark3.a(timerlist.cpp.o)
 .text._ZN5Timer19SetIntervalUSecondsEm
                0x0000000000000000       0x4c /home/moslevin/m3/trunk/embedded/stage/lib/avr/atmega328p/gcc/libmark3.a(timerlist.cpp.o)
 .text          0x0000000000000000        0x0 /home/moslevin/m3/trunk/embedded/stage/lib/avr/atmega328p/gcc/libmark3.a(threadport.cpp.o)
 .bss           0x0000000000000000        0x2 /home/moslevin/m3/trunk/embedded/stage/lib/avr/atmega328p/gcc/libmark3.a(threadport.cpp.o)
 .text          0x0000000000000000        0x0 /home/moslevin/m3/trunk/embedded/stage/lib/avr/atmega328p/gcc/libmark3.a(kernelswi.cpp.o)
 .bss           0x0000000000000000        0x0 /home/moslevin/m3/trunk/embedded/stage/lib/avr/atmega328p/gcc/libmark3.a(kernelswi.cpp.o)
 .text._ZN9KernelSWI4StopEv
                0x0000000000000000        0x4 /home/moslevin/m3/trunk/embedded/stage/lib/avr/atmega328p/gcc/libmark3.a(kernelswi.cpp.o)
 .text._ZN9KernelSWI2DIEv
                0x0000000000000000        0x8 /home/moslevin/m3/trunk/embedded/stage/lib/avr/atmega328p/gcc/libmark3.a(kernelswi.cpp.o)
 .text._ZN9KernelSWI2RIEh
                0x0000000000000000        0xc /home/moslevin/m3/trunk/embedded/stage/lib/avr/atmega328p/gcc/libmark3.a(kernelswi.cpp.o)
 .text._ZN9KernelSWI5ClearEv
                0x0000000000000000        0x4 /home/moslevin/m3/trunk/embedded/stage/lib/avr/atmega328p/gcc/libmark3.a(kernelswi.cpp.o)
 .text          0x0000000000000000        0x0 /home/moslevin/m3/trunk/embedded/stage/lib/avr/atmega328p/gcc/libmark3.a(kerneltimer.cpp.o)
 .bss           0x0000000000000000        0x0 /home/moslevin/m3/trunk/embedded/stage/lib/avr/atmega328p/gcc/libmark3.a(kerneltimer.cpp.o)
 .text._ZN11KernelTimer2DIEv
                0x0000000000000000       0x18 /home/moslevin/m3/trunk/embedded/stage/lib/avr/atmega328p/gcc/libmark3.a(kerneltimer.cpp.o)
 .text._ZN11KernelTimer2RIEh
                0x0000000000000000       0x18 /home/moslevin/m3/trunk/embedded/stage/lib/avr/atmega328p/gcc/libmark3.a(kerneltimer.cpp.o)
 .text._ZN11KernelTimer2EIEv
                0x0000000000000000        0x8 /home/moslevin/m3/trunk/embedded/stage/lib/avr/atmega328p/gcc/libmark3.a(kerneltimer.cpp.o)
 .text          0x0000000000000000        0x0 /home/moslevin/m3/trunk/embedded/stage/lib/avr/atmega328p/gcc/libmark3.a(kprofile.cpp.o)
 .text._ZN8Profiler5StartEv
                0x0000000000000000       0x16 /home/moslevin/m3/trunk/embedded/stage/lib/avr/atmega328p/gcc/libmark3.a(kprofile.cpp.o)
 .text._ZN8Profiler4StopEv
                0x0000000000000000       0x14 /home/moslevin/m3/trunk/embedded/stage/lib/avr/atmega328p/gcc/libmark3.a(kprofile.cpp.o)
 .text._ZN8Profiler4ReadEv
                0x0000000000000000       0x2c /home/moslevin/m3/trunk/embedded/stage/lib/avr/atmega328p/gcc/libmark3.a(kprofile.cpp.o)
 .text          0x0000000000000000        0x0 /home/moslevin/m3/trunk/embedded/stage/lib/avr/atmega328p/gcc/libmark3.a(message.cpp.o)
 .text._ZN17GlobalMessagePool4PushEP7Message
                0x0000000000000000       0x26 /home/moslevin/m3/trunk/embedded/stage/lib/avr/atmega328p/gcc/libmark3.a(message.cpp.o)
 .text._ZN12MessageQueue4InitEv
                0x0000000000000000        0xe /home/moslevin/m3/trunk/embedded/stage/lib/avr/atmega328p/gcc/libmark3.a(message.cpp.o)
 .text._ZN12MessageQueue7ReceiveEv
                0x0000000000000000       0x44 /home/moslevin/m3/trunk/embedded/stage/lib/avr/atmega328p/gcc/libmark3.a(message.cpp.o)
 .text._ZN12MessageQueue7ReceiveEm
                0x0000000000000000       0x4e /home/moslevin/m3/trunk/embedded/stage/lib/avr/atmega328p/gcc/libmark3.a(message.cpp.o)
 .text._ZN12MessageQueue8GetCountEv
                0x0000000000000000        0x6 /home/moslevin/m3/trunk/embedded/stage/lib/avr/atmega328p/gcc/libmark3.a(message.cpp.o)
 .text          0x0000000000000000        0x0 /home/moslevin/m3/trunk/embedded/stage/lib/avr/atmega328p/gcc/libmark3.a(quantum.cpp.o)
 .text          0x0000000000000000        0x0 /home/moslevin/m3/trunk/embedded/stage/lib/avr/atmega328p/gcc/libmark3.a(scheduler.cpp.o)
 .text._ZN9Scheduler6RemoveEP6Thread
                0x0000000000000000       0x36 /home/moslevin/m3/trunk/embedded/stage/lib/avr/atmega328p/gcc/libmark3.a(scheduler.cpp.o)
 .text          0x0000000000000000        0x0 /home/moslevin/m3/trunk/embedded/stage/lib/avr/atmega328p/gcc/libmark3.a(semaphore.cpp.o)
 .bss           0x0000000000000000        0x0 /home/moslevin/m3/trunk/embedded/stage/lib/avr/atmega328p/gcc/libmark3.a(semaphore.cpp.o)
 .text._Z23TimedSemaphore_CallbackP6ThreadPv
                0x0000000000000000       0x2e /home/moslevin/m3/trunk/embedded/stage/lib/avr/atmega328p/gcc/libmark3.a(semaphore.cpp.o)
 .text._ZN9Semaphore6WakeMeEP6Thread
                0x0000000000000000        0x6 /home/moslevin/m3/trunk/embedded/stage/lib/avr/atmega328p/gcc/libmark3.a(semaphore.cpp.o)
 .text._ZN9Semaphore4PendEm
                0x0000000000000000       0xd8 /home/moslevin/m3/trunk/embedded/stage/lib/avr/atmega328p/gcc/libmark3.a(semaphore.cpp.o)
 .text._ZN9Semaphore4PendEv
                0x0000000000000000        0xc /home/moslevin/m3/trunk/embedded/stage/lib/avr/atmega328p/gcc/libmark3.a(semaphore.cpp.o)
 .text._ZN9Semaphore8GetCountEv
                0x0000000000000000       0x22 /home/moslevin/m3/trunk/embedded/stage/lib/avr/atmega328p/gcc/libmark3.a(semaphore.cpp.o)
 .text          0x0000000000000000        0x0 /home/moslevin/m3/trunk/embedded/stage/lib/avr/atmega328p/gcc/libmark3.a(blocking.cpp.o)
 .bss           0x0000000000000000        0x0 /home/moslevin/m3/trunk/embedded/stage/lib/avr/atmega328p/gcc/libmark3.a(blocking.cpp.o)
 .text._ZN14BlockingObject5BlockEP6Thread
                0x0000000000000000       0x28 /home/moslevin/m3/trunk/embedded/stage/lib/avr/atmega328p/gcc/libmark3.a(blocking.cpp.o)
 .text          0x0000000000000000        0x0 /home/moslevin/m3/trunk/embedded/stage/lib/avr/atmega328p/gcc/libslip.a(slip.cpp.o)
 .bss           0x0000000000000000        0x0 /home/moslevin/m3/trunk/embedded/stage/lib/avr/atmega328p/gcc/libslip.a(slip.cpp.o)
 .text._ZN4Slip10DecodeByteEPhS0_
                0x0000000000000000       0x38 /home/moslevin/m3/trunk/embedded/stage/lib/avr/atmega328p/gcc/libslip.a(slip.cpp.o)
 .text._ZN4Slip8ReadDataEPhPct
                0x0000000000000000       0xf0 /home/moslevin/m3/trunk/embedded/stage/lib/avr/atmega328p/gcc/libslip.a(slip.cpp.o)
 .text._ZN4Slip7SendAckEv
                0x0000000000000000        0x8 /home/moslevin/m3/trunk/embedded/stage/lib/avr/atmega328p/gcc/libslip.a(slip.cpp.o)
 .text._ZN4Slip8SendNackEv
                0x0000000000000000        0x8 /home/moslevin/m3/trunk/embedded/stage/lib/avr/atmega328p/gcc/libslip.a(slip.cpp.o)
 .text._ZN4Slip11WriteVectorEhP14SlipDataVectort
                0x0000000000000000      0x154 /home/moslevin/m3/trunk/embedded/stage/lib/avr/atmega328p/gcc/libslip.a(slip.cpp.o)
 .text          0x0000000000000000        0x0 /home/moslevin/m3/trunk/embedded/stage/lib/avr/atmega328p/gcc/libslip.a(slip_mux.cpp.o)
 .text._ZN7SlipMux14InstallHandlerEhPFvP6DriverhPhtE
                0x0000000000000000       0x18 /home/moslevin/m3/trunk/embedded/stage/lib/avr/atmega328p/gcc/libslip.a(slip_mux.cpp.o)
 .text._ZN7SlipMux14MessageReceiveEv
                0x0000000000000000       0x8e /home/moslevin/m3/trunk/embedded/stage/lib/avr/atmega328p/gcc/libslip.a(slip_mux.cpp.o)
 .text          0x0000000000000000        0x0 /home/moslevin/m3/trunk/embedded/stage/lib/avr/atmega328p/gcc/libdrvUART.a(drvUART.cpp.o)
 .text          0x0000000000000000        0x0 /home/moslevin/m3/trunk/embedded/stage/lib/avr/atmega328p/gcc/libheap.a(fixed_heap.cpp.o)
 .bss           0x0000000000000000        0x0 /home/moslevin/m3/trunk/embedded/stage/lib/avr/atmega328p/gcc/libheap.a(fixed_heap.cpp.o)
 .text          0x0000000000000000        0x0 /opt/avr8-gnu-toolchain-linux_x86_64/bin/../lib/gcc/avr/4.6.2/avr5/libgcc.a(_mulsi3.o)
 .bss           0x0000000000000000        0x0 /opt/avr8-gnu-toolchain-linux_x86_64/bin/../lib/gcc/avr/4.6.2/avr5/libgcc.a(_mulsi3.o)
 .text          0x0000000000000000        0x0 /opt/avr8-gnu-toolchain-linux_x86_64/bin/../lib/gcc/avr/4.6.2/avr5/libgcc.a(_udivmodhi4.o)
 .bss           0x0000000000000000        0x0 /opt/avr8-gnu-toolchain-linux_x86_64/bin/../lib/gcc/avr/4.6.2/avr5/libgcc.a(_udivmodhi4.o)
 .text          0x0000000000000000        0x0 /opt/avr8-gnu-toolchain-linux_x86_64/bin/../lib/gcc/avr/4.6.2/avr5/libgcc.a(_udivmodsi4.o)
 .bss           0x0000000000000000        0x0 /opt/avr8-gnu-toolchain-linux_x86_64/bin/../lib/gcc/avr/4.6.2/avr5/libgcc.a(_udivmodsi4.o)
 .text          0x0000000000000000        0x0 /opt/avr8-gnu-toolchain-linux_x86_64/bin/../lib/gcc/avr/4.6.2/avr5/libgcc.a(_exit.o)
 .bss           0x0000000000000000        0x0 /opt/avr8-gnu-toolchain-linux_x86_64/bin/../lib/gcc/avr/4.6.2/avr5/libgcc.a(_exit.o)
 .text.libgcc   0x0000000000000000        0x0 /opt/avr8-gnu-toolchain-linux_x86_64/bin/../lib/gcc/avr/4.6.2/avr5/libgcc.a(_exit.o)
 .text          0x0000000000000000        0x0 /opt/avr8-gnu-toolchain-linux_x86_64/bin/../lib/gcc/avr/4.6.2/avr5/libgcc.a(_copy_data.o)
 .bss           0x0000000000000000        0x0 /opt/avr8-gnu-toolchain-linux_x86_64/bin/../lib/gcc/avr/4.6.2/avr5/libgcc.a(_copy_data.o)
 .text.libgcc   0x0000000000000000        0x0 /opt/avr8-gnu-toolchain-linux_x86_64/bin/../lib/gcc/avr/4.6.2/avr5/libgcc.a(_copy_data.o)
 .text          0x0000000000000000        0x0 /opt/avr8-gnu-toolchain-linux_x86_64/bin/../lib/gcc/avr/4.6.2/avr5/libgcc.a(_clear_bss.o)
 .bss           0x0000000000000000        0x0 /opt/avr8-gnu-toolchain-linux_x86_64/bin/../lib/gcc/avr/4.6.2/avr5/libgcc.a(_clear_bss.o)
 .text.libgcc   0x0000000000000000        0x0 /opt/avr8-gnu-toolchain-linux_x86_64/bin/../lib/gcc/avr/4.6.2/avr5/libgcc.a(_clear_bss.o)
 .text          0x0000000000000000        0x0 /opt/avr8-gnu-toolchain-linux_x86_64/bin/../lib/gcc/avr/4.6.2/avr5/libgcc.a(_ctors.o)
 .bss           0x0000000000000000        0x0 /opt/avr8-gnu-toolchain-linux_x86_64/bin/../lib/gcc/avr/4.6.2/avr5/libgcc.a(_ctors.o)
 .text.libgcc   0x0000000000000000        0x0 /opt/avr8-gnu-toolchain-linux_x86_64/bin/../lib/gcc/avr/4.6.2/avr5/libgcc.a(_ctors.o)
 .text          0x0000000000000000        0x0 /opt/avr8-gnu-toolchain-linux_x86_64/bin/../lib/gcc/avr/4.6.2/avr5/libgcc.a(_tablejump.o)
 .bss           0x0000000000000000        0x0 /opt/avr8-gnu-toolchain-linux_x86_64/bin/../lib/gcc/avr/4.6.2/avr5/libgcc.a(_tablejump.o)

Memory Configuration

Name             Origin             Length             Attributes
text             0x0000000000000000 0x0000000000020000 xr
data             0x0000000000800060 0x000000000000ffa0 rw !x
eeprom           0x0000000000810000 0x0000000000010000 rw !x
fuse             0x0000000000820000 0x0000000000000400 rw !x
lock             0x0000000000830000 0x0000000000000400 rw !x
signature        0x0000000000840000 0x0000000000000400 rw !x
*default*        0x0000000000000000 0xffffffffffffffff

Linker script and memory map

Address of section .data set to 0x800100
LOAD /opt/avr8-gnu-toolchain-linux_x86_64/bin/../lib/gcc/avr/4.6.2/../../../../avr/lib/avr5/crtm328p.o
START GROUP
LOAD /opt/avr8-gnu-toolchain-linux_x86_64/bin/../lib/gcc/avr/4.6.2/../../../../avr/lib/avr5/libm.a
END GROUP
LOAD ./obj/avr/atmega328p/gcc/Kernel++.cpp.o
LOAD /home/moslevin/m3/trunk/embedded/stage/lib/avr/atmega328p/gcc/libmark3.a
LOAD /home/moslevin/m3/trunk/embedded/stage/lib/avr/atmega328p/gcc/libslip.a
LOAD /home/moslevin/m3/trunk/embedded/stage/lib/avr/atmega328p/gcc/libdrvUART.a
LOAD /home/moslevin/m3/trunk/embedded/stage/lib/avr/atmega328p/gcc/libheap.a
LOAD /opt/avr8-gnu-toolchain-linux_x86_64/bin/../lib/gcc/avr/4.6.2/avr5/libgcc.a
LOAD /opt/avr8-gnu-toolchain-linux_x86_64/bin/../lib/gcc/avr/4.6.2/../../../../avr/lib/avr5/libc.a
LOAD /opt/avr8-gnu-toolchain-linux_x86_64/bin/../lib/gcc/avr/4.6.2/avr5/libgcc.a

.hash
 *(.hash)

.dynsym
 *(.dynsym)

.dynstr
 *(.dynstr)

.gnu.version
 *(.gnu.version)

.gnu.version_d
 *(.gnu.version_d)

.gnu.version_r
 *(.gnu.version_r)

.rel.init
 *(.rel.init)

.rela.init
 *(.rela.init)

.rel.text
 *(.rel.text)
 *(.rel.text.*)
 *(.rel.gnu.linkonce.t*)

.rela.text
 *(.rela.text)
 *(.rela.text.*)
 *(.rela.gnu.linkonce.t*)

.rel.fini
 *(.rel.fini)

.rela.fini
 *(.rela.fini)

.rel.rodata
 *(.rel.rodata)
 *(.rel.rodata.*)
 *(.rel.gnu.linkonce.r*)

.rela.rodata
 *(.rela.rodata)
 *(.rela.rodata.*)
 *(.rela.gnu.linkonce.r*)

.rel.data
 *(.rel.data)
 *(.rel.data.*)
 *(.rel.gnu.linkonce.d*)

.rela.data
 *(.rela.data)
 *(.rela.data.*)
 *(.rela.gnu.linkonce.d*)

.rel.ctors
 *(.rel.ctors)

.rela.ctors
 *(.rela.ctors)

.rel.dtors
 *(.rel.dtors)

.rela.dtors
 *(.rela.dtors)

.rel.got
 *(.rel.got)

.rela.got
 *(.rela.got)

.rel.bss
 *(.rel.bss)

.rela.bss
 *(.rela.bss)

.rel.plt
 *(.rel.plt)

.rela.plt
 *(.rela.plt)

.text           0x0000000000000000     0x1be4
 *(.vectors)
 .vectors       0x0000000000000000       0x68 /opt/avr8-gnu-toolchain-linux_x86_64/bin/../lib/gcc/avr/4.6.2/../../../../avr/lib/avr5/crtm328p.o
                0x0000000000000000                __vectors
                0x0000000000000000                __vector_default
 *(.vectors)
 *(.progmem.gcc*)
 *(.progmem*)
                0x0000000000000068                . = ALIGN (0x2)
                0x0000000000000068                __trampolines_start = .
 *(.trampolines)
 .trampolines   0x0000000000000068        0x0 linker stubs
 *(.trampolines*)
                0x0000000000000068                __trampolines_end = .
 *(.jumptables)
 *(.jumptables*)
 *(.lowtext)
 *(.lowtext*)
                0x0000000000000068                __ctors_start = .
 *(.ctors)
 .ctors         0x0000000000000068        0x2 ./obj/avr/atmega328p/gcc/Kernel++.cpp.o
 .ctors         0x000000000000006a        0x2 /home/moslevin/m3/trunk/embedded/stage/lib/avr/atmega328p/gcc/libmark3.a(driver.cpp.o)
 .ctors         0x000000000000006c        0x2 /home/moslevin/m3/trunk/embedded/stage/lib/avr/atmega328p/gcc/libmark3.a(timerlist.cpp.o)
 .ctors         0x000000000000006e        0x2 /home/moslevin/m3/trunk/embedded/stage/lib/avr/atmega328p/gcc/libmark3.a(message.cpp.o)
 .ctors         0x0000000000000070        0x2 /home/moslevin/m3/trunk/embedded/stage/lib/avr/atmega328p/gcc/libmark3.a(quantum.cpp.o)
 .ctors         0x0000000000000072        0x2 /home/moslevin/m3/trunk/embedded/stage/lib/avr/atmega328p/gcc/libmark3.a(scheduler.cpp.o)
 .ctors         0x0000000000000074        0x2 /home/moslevin/m3/trunk/embedded/stage/lib/avr/atmega328p/gcc/libslip.a(slip_mux.cpp.o)
                0x0000000000000076                __ctors_end = .
                0x0000000000000076                __dtors_start = .
 *(.dtors)
                0x0000000000000076                __dtors_end = .
 SORT(*)(.ctors)
 SORT(*)(.dtors)
 *(.init0)
 .init0         0x0000000000000076        0x0 /opt/avr8-gnu-toolchain-linux_x86_64/bin/../lib/gcc/avr/4.6.2/../../../../avr/lib/avr5/crtm328p.o
                0x0000000000000076                __init
 *(.init0)
 *(.init1)
 *(.init1)
 *(.init2)
 .init2         0x0000000000000076        0xc /opt/avr8-gnu-toolchain-linux_x86_64/bin/../lib/gcc/avr/4.6.2/../../../../avr/lib/avr5/crtm328p.o
 *(.init2)
 *(.init3)
 *(.init3)
 *(.init4)
 .init4         0x0000000000000082       0x16 /opt/avr8-gnu-toolchain-linux_x86_64/bin/../lib/gcc/avr/4.6.2/avr5/libgcc.a(_copy_data.o)
                0x0000000000000082                __do_copy_data
 .init4         0x0000000000000098       0x10 /opt/avr8-gnu-toolchain-linux_x86_64/bin/../lib/gcc/avr/4.6.2/avr5/libgcc.a(_clear_bss.o)
                0x0000000000000098                __do_clear_bss
 *(.init4)
 *(.init5)
 *(.init5)
 *(.init6)
 .init6         0x00000000000000a8       0x16 /opt/avr8-gnu-toolchain-linux_x86_64/bin/../lib/gcc/avr/4.6.2/avr5/libgcc.a(_ctors.o)
                0x00000000000000a8                __do_global_ctors
 *(.init6)
 *(.init7)
 *(.init7)
 *(.init8)
 *(.init8)
 *(.init9)
 .init9         0x00000000000000be        0x8 /opt/avr8-gnu-toolchain-linux_x86_64/bin/../lib/gcc/avr/4.6.2/../../../../avr/lib/avr5/crtm328p.o
 *(.init9)
 *(.text)
 .text          0x00000000000000c6        0x4 /opt/avr8-gnu-toolchain-linux_x86_64/bin/../lib/gcc/avr/4.6.2/../../../../avr/lib/avr5/crtm328p.o
                0x00000000000000c6                __vector_22
                0x00000000000000c6                __vector_24
                0x00000000000000c6                __vector_12
                0x00000000000000c6                __bad_interrupt
                0x00000000000000c6                __vector_6
                0x00000000000000c6                __vector_3
                0x00000000000000c6                __vector_23
                0x00000000000000c6                __vector_25
                0x00000000000000c6                __vector_13
                0x00000000000000c6                __vector_17
                0x00000000000000c6                __vector_19
                0x00000000000000c6                __vector_7
                0x00000000000000c6                __vector_5
                0x00000000000000c6                __vector_4
                0x00000000000000c6                __vector_9
                0x00000000000000c6                __vector_2
                0x00000000000000c6                __vector_21
                0x00000000000000c6                __vector_15
                0x00000000000000c6                __vector_8
                0x00000000000000c6                __vector_14
                0x00000000000000c6                __vector_10
                0x00000000000000ca                . = ALIGN (0x2)
 *(.text.*)
 .text._ZL9IdleEntryv
                0x00000000000000ca       0x1c ./obj/avr/atmega328p/gcc/Kernel++.cpp.o
 .text.__cxa_pure_virtual
                0x00000000000000e6        0x2 ./obj/avr/atmega328p/gcc/Kernel++.cpp.o
                0x00000000000000e6                __cxa_pure_virtual
 .text._Z6MemSetPvht
                0x00000000000000e8       0x14 ./obj/avr/atmega328p/gcc/Kernel++.cpp.o
                0x00000000000000e8                _Z6MemSetPvht
 .text._ZL8AppEntryv
                0x00000000000000fc      0x118 ./obj/avr/atmega328p/gcc/Kernel++.cpp.o
 .text.startup.main
                0x0000000000000214       0x9a ./obj/avr/atmega328p/gcc/Kernel++.cpp.o
                0x0000000000000214                main
 .text.startup._GLOBAL__sub_I___cxa_pure_virtual
                0x00000000000002ae       0x2c ./obj/avr/atmega328p/gcc/Kernel++.cpp.o
 .text._ZN7DevNull4InitEv
                0x00000000000002da        0xc /home/moslevin/m3/trunk/embedded/stage/lib/avr/atmega328p/gcc/libmark3.a(driver.cpp.o)
                0x00000000000002da                _ZN7DevNull4InitEv
 .text._ZN7DevNull4OpenEv
                0x00000000000002e6        0x4 /home/moslevin/m3/trunk/embedded/stage/lib/avr/atmega328p/gcc/libmark3.a(driver.cpp.o)
                0x00000000000002e6                _ZN7DevNull4OpenEv
 .text._ZN7DevNull5CloseEv
                0x00000000000002ea        0x4 /home/moslevin/m3/trunk/embedded/stage/lib/avr/atmega328p/gcc/libmark3.a(driver.cpp.o)
                0x00000000000002ea                _ZN7DevNull5CloseEv
 .text._ZN7DevNull4ReadEtPh
                0x00000000000002ee        0x6 /home/moslevin/m3/trunk/embedded/stage/lib/avr/atmega328p/gcc/libmark3.a(driver.cpp.o)
                0x00000000000002ee                _ZN7DevNull4ReadEtPh
 .text._ZN7DevNull5WriteEtPh
                0x00000000000002f4        0x6 /home/moslevin/m3/trunk/embedded/stage/lib/avr/atmega328p/gcc/libmark3.a(driver.cpp.o)
                0x00000000000002f4                _ZN7DevNull5WriteEtPh
 .text._ZN7DevNull7ControlEtPvtS0_t
                0x00000000000002fa        0x6 /home/moslevin/m3/trunk/embedded/stage/lib/avr/atmega328p/gcc/libmark3.a(driver.cpp.o)
                0x00000000000002fa                _ZN7DevNull7ControlEtPvtS0_t
 .text._ZN10DriverList4InitEv
                0x0000000000000300       0x1a /home/moslevin/m3/trunk/embedded/stage/lib/avr/atmega328p/gcc/libmark3.a(driver.cpp.o)
                0x0000000000000300                _ZN10DriverList4InitEv
 .text._ZN10DriverList10FindByPathEPKc
                0x000000000000031a       0x50 /home/moslevin/m3/trunk/embedded/stage/lib/avr/atmega328p/gcc/libmark3.a(driver.cpp.o)
                0x000000000000031a                _ZN10DriverList10FindByPathEPKc
 .text.startup._GLOBAL__sub_I__ZN10DriverList14m_clDriverListE
                0x000000000000036a       0x2a /home/moslevin/m3/trunk/embedded/stage/lib/avr/atmega328p/gcc/libmark3.a(driver.cpp.o)
 .text._ZN14DoubleLinkList6RemoveEP12LinkListNode
                0x0000000000000394       0x68 /home/moslevin/m3/trunk/embedded/stage/lib/avr/atmega328p/gcc/libmark3.a(ll.cpp.o)
                0x0000000000000394                _ZN14DoubleLinkList6RemoveEP12LinkListNode
 .text._ZN16CircularLinkList6RemoveEP12LinkListNode
                0x00000000000003fc       0x84 /home/moslevin/m3/trunk/embedded/stage/lib/avr/atmega328p/gcc/libmark3.a(ll.cpp.o)
                0x00000000000003fc                _ZN16CircularLinkList6RemoveEP12LinkListNode
 .text._ZN14DoubleLinkList3AddEP12LinkListNode
                0x0000000000000480       0x48 /home/moslevin/m3/trunk/embedded/stage/lib/avr/atmega328p/gcc/libmark3.a(ll.cpp.o)
                0x0000000000000480                _ZN14DoubleLinkList3AddEP12LinkListNode
 .text._ZN16CircularLinkList3AddEP12LinkListNode
                0x00000000000004c8       0x52 /home/moslevin/m3/trunk/embedded/stage/lib/avr/atmega328p/gcc/libmark3.a(ll.cpp.o)
                0x00000000000004c8                _ZN16CircularLinkList3AddEP12LinkListNode
 .text._ZN12LinkListNode9ClearNodeEv
                0x000000000000051a        0xc /home/moslevin/m3/trunk/embedded/stage/lib/avr/atmega328p/gcc/libmark3.a(ll.cpp.o)
                0x000000000000051a                _ZN12LinkListNode9ClearNodeEv
 .text._ZN16CircularLinkList12PivotForwardEv
                0x0000000000000526       0x22 /home/moslevin/m3/trunk/embedded/stage/lib/avr/atmega328p/gcc/libmark3.a(ll.cpp.o)
                0x0000000000000526                _ZN16CircularLinkList12PivotForwardEv
 .text._ZN6Thread4InitEPhthPFvPvES1_
                0x0000000000000548       0xae /home/moslevin/m3/trunk/embedded/stage/lib/avr/atmega328p/gcc/libmark3.a(thread.cpp.o)
                0x0000000000000548                _ZN6Thread4InitEPhthPFvPvES1_
 .text._ZN6Thread16ContextSwitchSWIEv
                0x00000000000005f6        0xe /home/moslevin/m3/trunk/embedded/stage/lib/avr/atmega328p/gcc/libmark3.a(thread.cpp.o)
                0x00000000000005f6                _ZN6Thread16ContextSwitchSWIEv
 .text._ZN6Thread5YieldEv
                0x0000000000000604       0x4a /home/moslevin/m3/trunk/embedded/stage/lib/avr/atmega328p/gcc/libmark3.a(thread.cpp.o)
                0x0000000000000604                _ZN6Thread5YieldEv
 .text._ZN6Thread5StartEv
                0x000000000000064e       0xa4 /home/moslevin/m3/trunk/embedded/stage/lib/avr/atmega328p/gcc/libmark3.a(thread.cpp.o)
                0x000000000000064e                _ZN6Thread5StartEv
 .text._ZN10ThreadList3AddEP12LinkListNode
                0x00000000000006f2       0x36 /home/moslevin/m3/trunk/embedded/stage/lib/avr/atmega328p/gcc/libmark3.a(threadlist.cpp.o)
                0x00000000000006f2                _ZN10ThreadList3AddEP12LinkListNode
 .text._ZN10ThreadList6RemoveEP12LinkListNode
                0x0000000000000728       0x38 /home/moslevin/m3/trunk/embedded/stage/lib/avr/atmega328p/gcc/libmark3.a(threadlist.cpp.o)
                0x0000000000000728                _ZN10ThreadList6RemoveEP12LinkListNode
 .text._ZN10ThreadList11SetPriorityEh
                0x0000000000000760        0x6 /home/moslevin/m3/trunk/embedded/stage/lib/avr/atmega328p/gcc/libmark3.a(threadlist.cpp.o)
                0x0000000000000760                _ZN10ThreadList11SetPriorityEh
 .text._ZN10ThreadList14SetFlagPointerEPh
                0x0000000000000766        0x8 /home/moslevin/m3/trunk/embedded/stage/lib/avr/atmega328p/gcc/libmark3.a(threadlist.cpp.o)
                0x0000000000000766                _ZN10ThreadList14SetFlagPointerEPh
 .text._ZN10ThreadList13HighestWaiterEv
                0x000000000000076e       0x30 /home/moslevin/m3/trunk/embedded/stage/lib/avr/atmega328p/gcc/libmark3.a(threadlist.cpp.o)
                0x000000000000076e                _ZN10ThreadList13HighestWaiterEv
 .text._ZN6Kernel4InitEv
                0x000000000000079e       0x1a /home/moslevin/m3/trunk/embedded/stage/lib/avr/atmega328p/gcc/libmark3.a(kernel.cpp.o)
                0x000000000000079e                _ZN6Kernel4InitEv
 .text._ZN6Kernel5StartEv
                0x00000000000007b8        0x6 /home/moslevin/m3/trunk/embedded/stage/lib/avr/atmega328p/gcc/libmark3.a(kernel.cpp.o)
                0x00000000000007b8                _ZN6Kernel5StartEv
 .text._ZN9TimerList4InitEv
                0x00000000000007be        0xe /home/moslevin/m3/trunk/embedded/stage/lib/avr/atmega328p/gcc/libmark3.a(timerlist.cpp.o)
                0x00000000000007be                _ZN9TimerList4InitEv
 .text._ZN9TimerList3AddEP5Timer
                0x00000000000007cc       0xb6 /home/moslevin/m3/trunk/embedded/stage/lib/avr/atmega328p/gcc/libmark3.a(timerlist.cpp.o)
                0x00000000000007cc                _ZN9TimerList3AddEP5Timer
 .text._ZN9TimerList6RemoveEP5Timer
                0x0000000000000882       0x3a /home/moslevin/m3/trunk/embedded/stage/lib/avr/atmega328p/gcc/libmark3.a(timerlist.cpp.o)
                0x0000000000000882                _ZN9TimerList6RemoveEP5Timer
 .text._ZN9TimerList7ProcessEv
                0x00000000000008bc      0x15a /home/moslevin/m3/trunk/embedded/stage/lib/avr/atmega328p/gcc/libmark3.a(timerlist.cpp.o)
                0x00000000000008bc                _ZN9TimerList7ProcessEv
 .text._ZN5Timer19SetIntervalMSecondsEm
                0x0000000000000a16       0x4c /home/moslevin/m3/trunk/embedded/stage/lib/avr/atmega328p/gcc/libmark3.a(timerlist.cpp.o)
                0x0000000000000a16                _ZN5Timer19SetIntervalMSecondsEm
 .text.startup._GLOBAL__sub_I__ZN14TimerScheduler13m_clTimerListE
                0x0000000000000a62       0x1e /home/moslevin/m3/trunk/embedded/stage/lib/avr/atmega328p/gcc/libmark3.a(timerlist.cpp.o)
 .text._ZN10ThreadPort9InitStackEP6Thread
                0x0000000000000a80       0x86 /home/moslevin/m3/trunk/embedded/stage/lib/avr/atmega328p/gcc/libmark3.a(threadport.cpp.o)
                0x0000000000000a80                _ZN10ThreadPort9InitStackEP6Thread
 .text._ZN10ThreadPort12StartThreadsEv
                0x0000000000000b06       0x84 /home/moslevin/m3/trunk/embedded/stage/lib/avr/atmega328p/gcc/libmark3.a(threadport.cpp.o)
                0x0000000000000b06                _ZN10ThreadPort12StartThreadsEv
 .text.__vector_1
                0x0000000000000b8a       0xc2 /home/moslevin/m3/trunk/embedded/stage/lib/avr/atmega328p/gcc/libmark3.a(threadport.cpp.o)
                0x0000000000000b8a                __vector_1
 .text.__vector_11
                0x0000000000000c4c       0x50 /home/moslevin/m3/trunk/embedded/stage/lib/avr/atmega328p/gcc/libmark3.a(threadport.cpp.o)
                0x0000000000000c4c                __vector_11
 .text._ZN9KernelSWI6ConfigEv
                0x0000000000000c9c       0x10 /home/moslevin/m3/trunk/embedded/stage/lib/avr/atmega328p/gcc/libmark3.a(kernelswi.cpp.o)
                0x0000000000000c9c                _ZN9KernelSWI6ConfigEv
 .text._ZN9KernelSWI5StartEv
                0x0000000000000cac        0x6 /home/moslevin/m3/trunk/embedded/stage/lib/avr/atmega328p/gcc/libmark3.a(kernelswi.cpp.o)
                0x0000000000000cac                _ZN9KernelSWI5StartEv
 .text._ZN9KernelSWI7TriggerEv
                0x0000000000000cb2        0x6 /home/moslevin/m3/trunk/embedded/stage/lib/avr/atmega328p/gcc/libmark3.a(kernelswi.cpp.o)
                0x0000000000000cb2                _ZN9KernelSWI7TriggerEv
 .text._ZN11KernelTimer6ConfigEv
                0x0000000000000cb8        0x8 /home/moslevin/m3/trunk/embedded/stage/lib/avr/atmega328p/gcc/libmark3.a(kerneltimer.cpp.o)
                0x0000000000000cb8                _ZN11KernelTimer6ConfigEv
 .text._ZN11KernelTimer5StartEv
                0x0000000000000cc0       0x20 /home/moslevin/m3/trunk/embedded/stage/lib/avr/atmega328p/gcc/libmark3.a(kerneltimer.cpp.o)
                0x0000000000000cc0                _ZN11KernelTimer5StartEv
 .text._ZN11KernelTimer4StopEv
                0x0000000000000ce0       0x28 /home/moslevin/m3/trunk/embedded/stage/lib/avr/atmega328p/gcc/libmark3.a(kerneltimer.cpp.o)
                0x0000000000000ce0                _ZN11KernelTimer4StopEv
 .text._ZN11KernelTimer4ReadEv
                0x0000000000000d08       0x44 /home/moslevin/m3/trunk/embedded/stage/lib/avr/atmega328p/gcc/libmark3.a(kerneltimer.cpp.o)
                0x0000000000000d08                _ZN11KernelTimer4ReadEv
 .text._ZN11KernelTimer14SubtractExpiryEm
                0x0000000000000d4c       0x20 /home/moslevin/m3/trunk/embedded/stage/lib/avr/atmega328p/gcc/libmark3.a(kerneltimer.cpp.o)
                0x0000000000000d4c                _ZN11KernelTimer14SubtractExpiryEm
 .text._ZN11KernelTimer12TimeToExpiryEv
                0x0000000000000d6c       0x30 /home/moslevin/m3/trunk/embedded/stage/lib/avr/atmega328p/gcc/libmark3.a(kerneltimer.cpp.o)
                0x0000000000000d6c                _ZN11KernelTimer12TimeToExpiryEv
 .text._ZN11KernelTimer11GetOvertimeEv
                0x0000000000000d9c        0xc /home/moslevin/m3/trunk/embedded/stage/lib/avr/atmega328p/gcc/libmark3.a(kerneltimer.cpp.o)
                0x0000000000000d9c                _ZN11KernelTimer11GetOvertimeEv
 .text._ZN11KernelTimer9SetExpiryEm
                0x0000000000000da8       0x28 /home/moslevin/m3/trunk/embedded/stage/lib/avr/atmega328p/gcc/libmark3.a(kerneltimer.cpp.o)
                0x0000000000000da8                _ZN11KernelTimer9SetExpiryEm
 .text._ZN11KernelTimer11ClearExpiryEv
                0x0000000000000dd0        0xe /home/moslevin/m3/trunk/embedded/stage/lib/avr/atmega328p/gcc/libmark3.a(kerneltimer.cpp.o)
                0x0000000000000dd0                _ZN11KernelTimer11ClearExpiryEv
 .text._ZN8Profiler4InitEv
                0x0000000000000dde       0x1c /home/moslevin/m3/trunk/embedded/stage/lib/avr/atmega328p/gcc/libmark3.a(kprofile.cpp.o)
                0x0000000000000dde                _ZN8Profiler4InitEv
 .text._ZN8Profiler7ProcessEv
                0x0000000000000dfa       0x42 /home/moslevin/m3/trunk/embedded/stage/lib/avr/atmega328p/gcc/libmark3.a(kprofile.cpp.o)
                0x0000000000000dfa                _ZN8Profiler7ProcessEv
 .text.__vector_16
                0x0000000000000e3c       0x48 /home/moslevin/m3/trunk/embedded/stage/lib/avr/atmega328p/gcc/libmark3.a(kprofile.cpp.o)
                0x0000000000000e3c                __vector_16
 .text._ZN17GlobalMessagePool4InitEv
                0x0000000000000e84       0x38 /home/moslevin/m3/trunk/embedded/stage/lib/avr/atmega328p/gcc/libmark3.a(message.cpp.o)
                0x0000000000000e84                _ZN17GlobalMessagePool4InitEv
 .text._ZN17GlobalMessagePool3PopEv
                0x0000000000000ebc       0x38 /home/moslevin/m3/trunk/embedded/stage/lib/avr/atmega328p/gcc/libmark3.a(message.cpp.o)
                0x0000000000000ebc                _ZN17GlobalMessagePool3PopEv
 .text._ZN12MessageQueue4SendEP7Message
                0x0000000000000ef4       0x34 /home/moslevin/m3/trunk/embedded/stage/lib/avr/atmega328p/gcc/libmark3.a(message.cpp.o)
                0x0000000000000ef4                _ZN12MessageQueue4SendEP7Message
 .text.startup._GLOBAL__sub_I__ZN17GlobalMessagePool16m_aclMessagePoolE
                0x0000000000000f28       0x1e /home/moslevin/m3/trunk/embedded/stage/lib/avr/atmega328p/gcc/libmark3.a(message.cpp.o)
 .text._ZL15QuantumCallbackP6ThreadPv
                0x0000000000000f46       0x36 /home/moslevin/m3/trunk/embedded/stage/lib/avr/atmega328p/gcc/libmark3.a(quantum.cpp.o)
 .text._ZN7Quantum8SetTimerEP6Thread
                0x0000000000000f7c       0x3e /home/moslevin/m3/trunk/embedded/stage/lib/avr/atmega328p/gcc/libmark3.a(quantum.cpp.o)
                0x0000000000000f7c                _ZN7Quantum8SetTimerEP6Thread
 .text._ZN7Quantum9AddThreadEP6Thread
                0x0000000000000fba       0x38 /home/moslevin/m3/trunk/embedded/stage/lib/avr/atmega328p/gcc/libmark3.a(quantum.cpp.o)
                0x0000000000000fba                _ZN7Quantum9AddThreadEP6Thread
 .text._ZN7Quantum12RemoveThreadEv
                0x0000000000000ff2       0x1a /home/moslevin/m3/trunk/embedded/stage/lib/avr/atmega328p/gcc/libmark3.a(quantum.cpp.o)
                0x0000000000000ff2                _ZN7Quantum12RemoveThreadEv
 .text._ZN7Quantum11UpdateTimerEv
                0x000000000000100c       0x12 /home/moslevin/m3/trunk/embedded/stage/lib/avr/atmega328p/gcc/libmark3.a(quantum.cpp.o)
                0x000000000000100c                _ZN7Quantum11UpdateTimerEv
 .text.startup._GLOBAL__sub_I__ZN7Quantum16m_clQuantumTimerE
                0x000000000000101e       0x26 /home/moslevin/m3/trunk/embedded/stage/lib/avr/atmega328p/gcc/libmark3.a(quantum.cpp.o)
 .text._ZN9Scheduler4InitEv
                0x0000000000001044       0x52 /home/moslevin/m3/trunk/embedded/stage/lib/avr/atmega328p/gcc/libmark3.a(scheduler.cpp.o)
                0x0000000000001044                _ZN9Scheduler4InitEv
 .text._ZN9Scheduler8ScheduleEv
                0x0000000000001096       0x54 /home/moslevin/m3/trunk/embedded/stage/lib/avr/atmega328p/gcc/libmark3.a(scheduler.cpp.o)
                0x0000000000001096                _ZN9Scheduler8ScheduleEv
 .text._ZN9Scheduler3AddEP6Thread
                0x00000000000010ea       0x36 /home/moslevin/m3/trunk/embedded/stage/lib/avr/atmega328p/gcc/libmark3.a(scheduler.cpp.o)
                0x00000000000010ea                _ZN9Scheduler3AddEP6Thread
 .text.startup._GLOBAL__sub_I_g_pstNext
                0x0000000000001120       0x4c /home/moslevin/m3/trunk/embedded/stage/lib/avr/atmega328p/gcc/libmark3.a(scheduler.cpp.o)
 .text._ZN9Semaphore8WakeNextEv
                0x000000000000116c       0x3c /home/moslevin/m3/trunk/embedded/stage/lib/avr/atmega328p/gcc/libmark3.a(semaphore.cpp.o)
                0x000000000000116c                _ZN9Semaphore8WakeNextEv
 .text._ZN9Semaphore4InitEtt
                0x00000000000011a8        0xe /home/moslevin/m3/trunk/embedded/stage/lib/avr/atmega328p/gcc/libmark3.a(semaphore.cpp.o)
                0x00000000000011a8                _ZN9Semaphore4InitEtt
 .text._ZN9Semaphore4PostEv
                0x00000000000011b6       0x4e /home/moslevin/m3/trunk/embedded/stage/lib/avr/atmega328p/gcc/libmark3.a(semaphore.cpp.o)
                0x00000000000011b6                _ZN9Semaphore4PostEv
 .text._ZN14BlockingObject7UnBlockEP6Thread
                0x0000000000001204       0x2c /home/moslevin/m3/trunk/embedded/stage/lib/avr/atmega328p/gcc/libmark3.a(blocking.cpp.o)
                0x0000000000001204                _ZN14BlockingObject7UnBlockEP6Thread
 .text._ZN4Slip10EncodeByteEhPh
                0x0000000000001230       0x28 /home/moslevin/m3/trunk/embedded/stage/lib/avr/atmega328p/gcc/libslip.a(slip.cpp.o)
                0x0000000000001230                _ZN4Slip10EncodeByteEhPh
 .text._ZN4Slip9WriteByteEh
                0x0000000000001258       0x72 /home/moslevin/m3/trunk/embedded/stage/lib/avr/atmega328p/gcc/libslip.a(slip.cpp.o)
                0x0000000000001258                _ZN4Slip9WriteByteEh
 .text._ZN4Slip9WriteDataEhPct
                0x00000000000012ca       0xfe /home/moslevin/m3/trunk/embedded/stage/lib/avr/atmega328p/gcc/libslip.a(slip.cpp.o)
                0x00000000000012ca                _ZN4Slip9WriteDataEhPct
 .text._ZL16SlipMux_CallBackP6Driver
                0x00000000000013c8       0x64 /home/moslevin/m3/trunk/embedded/stage/lib/avr/atmega328p/gcc/libslip.a(slip_mux.cpp.o)
 .text._ZN7SlipMux4InitEPctPhtS1_
                0x000000000000142c       0xd4 /home/moslevin/m3/trunk/embedded/stage/lib/avr/atmega328p/gcc/libslip.a(slip_mux.cpp.o)
                0x000000000000142c                _ZN7SlipMux4InitEPctPhtS1_
 .text.startup._GLOBAL__sub_I__ZN7SlipMux17m_pclMessageQueueE
                0x0000000000001500       0x24 /home/moslevin/m3/trunk/embedded/stage/lib/avr/atmega328p/gcc/libslip.a(slip_mux.cpp.o)
 .text._ZN10ATMegaUART4OpenEv
                0x0000000000001524       0x1c /home/moslevin/m3/trunk/embedded/stage/lib/avr/atmega328p/gcc/libdrvUART.a(drvUART.cpp.o)
                0x0000000000001524                _ZN10ATMegaUART4OpenEv
 .text._ZN10ATMegaUART5CloseEv
                0x0000000000001540       0x14 /home/moslevin/m3/trunk/embedded/stage/lib/avr/atmega328p/gcc/libdrvUART.a(drvUART.cpp.o)
                0x0000000000001540                _ZN10ATMegaUART5CloseEv
 .text._ZN10ATMegaUART4ReadEtPh
                0x0000000000001554       0x8e /home/moslevin/m3/trunk/embedded/stage/lib/avr/atmega328p/gcc/libdrvUART.a(drvUART.cpp.o)
                0x0000000000001554                _ZN10ATMegaUART4ReadEtPh
 .text._ZN10ATMegaUART7SetBaudEv
                0x00000000000015e2       0x32 /home/moslevin/m3/trunk/embedded/stage/lib/avr/atmega328p/gcc/libdrvUART.a(drvUART.cpp.o)
                0x00000000000015e2                _ZN10ATMegaUART7SetBaudEv
 .text._ZN10ATMegaUART7ControlEtPvtS0_t
                0x0000000000001614       0x86 /home/moslevin/m3/trunk/embedded/stage/lib/avr/atmega328p/gcc/libdrvUART.a(drvUART.cpp.o)
                0x0000000000001614                _ZN10ATMegaUART7ControlEtPvtS0_t
 .text._ZN10ATMegaUART4InitEv
                0x000000000000169a       0x3c /home/moslevin/m3/trunk/embedded/stage/lib/avr/atmega328p/gcc/libdrvUART.a(drvUART.cpp.o)
                0x000000000000169a                _ZN10ATMegaUART4InitEv
 .text._ZN10ATMegaUART7StartTxEv
                0x00000000000016d6       0x3c /home/moslevin/m3/trunk/embedded/stage/lib/avr/atmega328p/gcc/libdrvUART.a(drvUART.cpp.o)
                0x00000000000016d6                _ZN10ATMegaUART7StartTxEv
 .text._ZN10ATMegaUART5WriteEtPh
                0x0000000000001712       0xc0 /home/moslevin/m3/trunk/embedded/stage/lib/avr/atmega328p/gcc/libdrvUART.a(drvUART.cpp.o)
                0x0000000000001712                _ZN10ATMegaUART5WriteEtPh
 .text._ZN10ATMegaUART5RxISREv
                0x00000000000017d2       0xb2 /home/moslevin/m3/trunk/embedded/stage/lib/avr/atmega328p/gcc/libdrvUART.a(drvUART.cpp.o)
                0x00000000000017d2                _ZN10ATMegaUART5RxISREv
 .text.__vector_18
                0x0000000000001884       0x50 /home/moslevin/m3/trunk/embedded/stage/lib/avr/atmega328p/gcc/libdrvUART.a(drvUART.cpp.o)
                0x0000000000001884                __vector_18
 .text._ZN10ATMegaUART5TxISREv
                0x00000000000018d4       0x10 /home/moslevin/m3/trunk/embedded/stage/lib/avr/atmega328p/gcc/libdrvUART.a(drvUART.cpp.o)
                0x00000000000018d4                _ZN10ATMegaUART5TxISREv
 .text.__vector_20
                0x00000000000018e4       0x50 /home/moslevin/m3/trunk/embedded/stage/lib/avr/atmega328p/gcc/libdrvUART.a(drvUART.cpp.o)
                0x00000000000018e4                __vector_20
 .text._ZN9BlockHeap6CreateEPvtt
                0x0000000000001934       0x9e /home/moslevin/m3/trunk/embedded/stage/lib/avr/atmega328p/gcc/libheap.a(fixed_heap.cpp.o)
                0x0000000000001934                _ZN9BlockHeap6CreateEPvtt
 .text._ZN9BlockHeap5AllocEv
                0x00000000000019d2       0x3a /home/moslevin/m3/trunk/embedded/stage/lib/avr/atmega328p/gcc/libheap.a(fixed_heap.cpp.o)
                0x00000000000019d2                _ZN9BlockHeap5AllocEv
 .text._ZN9BlockHeap4FreeEPv
                0x0000000000001a0c       0x20 /home/moslevin/m3/trunk/embedded/stage/lib/avr/atmega328p/gcc/libheap.a(fixed_heap.cpp.o)
                0x0000000000001a0c                _ZN9BlockHeap4FreeEPv
 .text._ZN9FixedHeap6CreateEPvP10HeapConfig
                0x0000000000001a2c       0x5a /home/moslevin/m3/trunk/embedded/stage/lib/avr/atmega328p/gcc/libheap.a(fixed_heap.cpp.o)
                0x0000000000001a2c                _ZN9FixedHeap6CreateEPvP10HeapConfig
 .text._ZN9FixedHeap5AllocEt
                0x0000000000001a86       0x7a /home/moslevin/m3/trunk/embedded/stage/lib/avr/atmega328p/gcc/libheap.a(fixed_heap.cpp.o)
                0x0000000000001a86                _ZN9FixedHeap5AllocEt
 .text._ZN9FixedHeap4FreeEPv
                0x0000000000001b00       0x2a /home/moslevin/m3/trunk/embedded/stage/lib/avr/atmega328p/gcc/libheap.a(fixed_heap.cpp.o)
                0x0000000000001b00                _ZN9FixedHeap4FreeEPv
 .text.libgcc   0x0000000000001b2a       0x3e /opt/avr8-gnu-toolchain-linux_x86_64/bin/../lib/gcc/avr/4.6.2/avr5/libgcc.a(_mulsi3.o)
                0x0000000000001b2a                __mulsi3
 .text.libgcc   0x0000000000001b68       0x28 /opt/avr8-gnu-toolchain-linux_x86_64/bin/../lib/gcc/avr/4.6.2/avr5/libgcc.a(_udivmodhi4.o)
                0x0000000000001b68                __udivmodhi4
 .text.libgcc   0x0000000000001b90       0x44 /opt/avr8-gnu-toolchain-linux_x86_64/bin/../lib/gcc/avr/4.6.2/avr5/libgcc.a(_udivmodsi4.o)
                0x0000000000001b90                __udivmodsi4
 .text.libgcc   0x0000000000001bd4        0xc /opt/avr8-gnu-toolchain-linux_x86_64/bin/../lib/gcc/avr/4.6.2/avr5/libgcc.a(_tablejump.o)
                0x0000000000001bd4                __tablejump2__
                0x0000000000001bd8                __tablejump__
                0x0000000000001be0                . = ALIGN (0x2)
 *(.fini9)
 .fini9         0x0000000000001be0        0x0 /opt/avr8-gnu-toolchain-linux_x86_64/bin/../lib/gcc/avr/4.6.2/avr5/libgcc.a(_exit.o)
                0x0000000000001be0                exit
                0x0000000000001be0                _exit
 *(.fini9)
 *(.fini8)
 *(.fini8)
 *(.fini7)
 *(.fini7)
 *(.fini6)
 *(.fini6)
 *(.fini5)
 *(.fini5)
 *(.fini4)
 *(.fini4)
 *(.fini3)
 *(.fini3)
 *(.fini2)
 *(.fini2)
 *(.fini1)
 *(.fini1)
 *(.fini0)
 .fini0         0x0000000000001be0        0x4 /opt/avr8-gnu-toolchain-linux_x86_64/bin/../lib/gcc/avr/4.6.2/avr5/libgcc.a(_exit.o)
 *(.fini0)
                0x0000000000001be4                _etext = .

.data           0x0000000000800100       0x80 load address 0x0000000000001be4
                0x0000000000800100                PROVIDE (__data_start, .)
 *(.data)
 .data          0x0000000000800100        0x0 /opt/avr8-gnu-toolchain-linux_x86_64/bin/../lib/gcc/avr/4.6.2/../../../../avr/lib/avr5/crtm328p.o
 .data          0x0000000000800100       0x1e ./obj/avr/atmega328p/gcc/Kernel++.cpp.o
                0x0000000000800116                _ZTV8LinkList
 .data          0x000000000080011e       0x1a /home/moslevin/m3/trunk/embedded/stage/lib/avr/atmega328p/gcc/libmark3.a(driver.cpp.o)
                0x0000000000800128                _ZTV7DevNull
 .data          0x0000000000800138       0x10 /home/moslevin/m3/trunk/embedded/stage/lib/avr/atmega328p/gcc/libmark3.a(ll.cpp.o)
                0x0000000000800138                _ZTV14DoubleLinkList
                0x0000000000800140                _ZTV16CircularLinkList
 .data          0x0000000000800148        0x0 /home/moslevin/m3/trunk/embedded/stage/lib/avr/atmega328p/gcc/libmark3.a(thread.cpp.o)
 .data          0x0000000000800148        0x8 /home/moslevin/m3/trunk/embedded/stage/lib/avr/atmega328p/gcc/libmark3.a(threadlist.cpp.o)
                0x0000000000800148                _ZTV10ThreadList
 .data          0x0000000000800150        0x0 /home/moslevin/m3/trunk/embedded/stage/lib/avr/atmega328p/gcc/libmark3.a(kernel.cpp.o)
 .data          0x0000000000800150        0x8 /home/moslevin/m3/trunk/embedded/stage/lib/avr/atmega328p/gcc/libmark3.a(timerlist.cpp.o)
                0x0000000000800150                _ZTV9TimerList
 .data          0x0000000000800158        0x0 /home/moslevin/m3/trunk/embedded/stage/lib/avr/atmega328p/gcc/libmark3.a(threadport.cpp.o)
 .data          0x0000000000800158        0x0 /home/moslevin/m3/trunk/embedded/stage/lib/avr/atmega328p/gcc/libmark3.a(kernelswi.cpp.o)
 .data          0x0000000000800158        0x0 /home/moslevin/m3/trunk/embedded/stage/lib/avr/atmega328p/gcc/libmark3.a(kerneltimer.cpp.o)
 .data          0x0000000000800158        0x0 /home/moslevin/m3/trunk/embedded/stage/lib/avr/atmega328p/gcc/libmark3.a(kprofile.cpp.o)
 .data          0x0000000000800158        0x0 /home/moslevin/m3/trunk/embedded/stage/lib/avr/atmega328p/gcc/libmark3.a(message.cpp.o)
 .data          0x0000000000800158        0x0 /home/moslevin/m3/trunk/embedded/stage/lib/avr/atmega328p/gcc/libmark3.a(quantum.cpp.o)
 .data          0x0000000000800158       0x18 /home/moslevin/m3/trunk/embedded/stage/lib/avr/atmega328p/gcc/libmark3.a(scheduler.cpp.o)
 .data          0x0000000000800170        0x0 /home/moslevin/m3/trunk/embedded/stage/lib/avr/atmega328p/gcc/libmark3.a(semaphore.cpp.o)
 .data          0x0000000000800170        0x0 /home/moslevin/m3/trunk/embedded/stage/lib/avr/atmega328p/gcc/libmark3.a(blocking.cpp.o)
 .data          0x0000000000800170        0x0 /home/moslevin/m3/trunk/embedded/stage/lib/avr/atmega328p/gcc/libslip.a(slip.cpp.o)
 .data          0x0000000000800170        0x0 /home/moslevin/m3/trunk/embedded/stage/lib/avr/atmega328p/gcc/libslip.a(slip_mux.cpp.o)
 .data          0x0000000000800170       0x10 /home/moslevin/m3/trunk/embedded/stage/lib/avr/atmega328p/gcc/libdrvUART.a(drvUART.cpp.o)
                0x0000000000800170                _ZTV10ATMegaUART
 .data          0x0000000000800180        0x0 /home/moslevin/m3/trunk/embedded/stage/lib/avr/atmega328p/gcc/libheap.a(fixed_heap.cpp.o)
 .data          0x0000000000800180        0x0 /opt/avr8-gnu-toolchain-linux_x86_64/bin/../lib/gcc/avr/4.6.2/avr5/libgcc.a(_mulsi3.o)
 .data          0x0000000000800180        0x0 /opt/avr8-gnu-toolchain-linux_x86_64/bin/../lib/gcc/avr/4.6.2/avr5/libgcc.a(_udivmodhi4.o)
 .data          0x0000000000800180        0x0 /opt/avr8-gnu-toolchain-linux_x86_64/bin/../lib/gcc/avr/4.6.2/avr5/libgcc.a(_udivmodsi4.o)
 .data          0x0000000000800180        0x0 /opt/avr8-gnu-toolchain-linux_x86_64/bin/../lib/gcc/avr/4.6.2/avr5/libgcc.a(_exit.o)
 .data          0x0000000000800180        0x0 /opt/avr8-gnu-toolchain-linux_x86_64/bin/../lib/gcc/avr/4.6.2/avr5/libgcc.a(_copy_data.o)
 .data          0x0000000000800180        0x0 /opt/avr8-gnu-toolchain-linux_x86_64/bin/../lib/gcc/avr/4.6.2/avr5/libgcc.a(_clear_bss.o)
 .data          0x0000000000800180        0x0 /opt/avr8-gnu-toolchain-linux_x86_64/bin/../lib/gcc/avr/4.6.2/avr5/libgcc.a(_ctors.o)
 .data          0x0000000000800180        0x0 /opt/avr8-gnu-toolchain-linux_x86_64/bin/../lib/gcc/avr/4.6.2/avr5/libgcc.a(_tablejump.o)
 *(.data*)
 *(.rodata)
 *(.rodata*)
 *(.gnu.linkonce.d*)
                0x0000000000800180                . = ALIGN (0x2)
                0x0000000000800180                _edata = .
                0x0000000000800180                PROVIDE (__data_end, .)

.bss            0x0000000000800180      0x582
                0x0000000000800180                PROVIDE (__bss_start, .)
 *(.bss)
 .bss           0x0000000000800180      0x46f ./obj/avr/atmega328p/gcc/Kernel++.cpp.o
 .bss           0x00000000008005ef        0xe /home/moslevin/m3/trunk/embedded/stage/lib/avr/atmega328p/gcc/libmark3.a(driver.cpp.o)
                0x00000000008005ef                _ZN10DriverList14m_clDriverListE
 .bss           0x00000000008005fd        0x1 /home/moslevin/m3/trunk/embedded/stage/lib/avr/atmega328p/gcc/libmark3.a(thread.cpp.o)
 .bss           0x00000000008005fe        0xb /home/moslevin/m3/trunk/embedded/stage/lib/avr/atmega328p/gcc/libmark3.a(timerlist.cpp.o)
                0x00000000008005fe                _ZN14TimerScheduler13m_clTimerListE
 .bss           0x0000000000800609        0x4 /home/moslevin/m3/trunk/embedded/stage/lib/avr/atmega328p/gcc/libmark3.a(kprofile.cpp.o)
                0x0000000000800609                _ZN8Profiler9m_ulEpochE
 .bss           0x000000000080060d       0x46 /home/moslevin/m3/trunk/embedded/stage/lib/avr/atmega328p/gcc/libmark3.a(message.cpp.o)
                0x000000000080060d                _ZN17GlobalMessagePool8m_clListE
                0x0000000000800613                _ZN17GlobalMessagePool16m_aclMessagePoolE
 .bss           0x0000000000800653       0x15 /home/moslevin/m3/trunk/embedded/stage/lib/avr/atmega328p/gcc/libmark3.a(quantum.cpp.o)
                0x0000000000800653                _ZN7Quantum9m_bActiveE
                0x0000000000800654                _ZN7Quantum16m_clQuantumTimerE
 .bss           0x0000000000800668       0x58 /home/moslevin/m3/trunk/embedded/stage/lib/avr/atmega328p/gcc/libmark3.a(scheduler.cpp.o)
                0x0000000000800668                g_ucFlag
                0x0000000000800669                _ZN9Scheduler11m_ucPriFlagE
                0x000000000080066a                _ZN9Scheduler15m_aclPrioritiesE
                0x00000000008006b2                _ZN9Scheduler12m_clStopListE
                0x00000000008006bb                _ZN9Scheduler10m_bEnabledE
                0x00000000008006bc                g_pstCurrent
                0x00000000008006be                g_pstNext
 .bss           0x00000000008006c0       0x40 /home/moslevin/m3/trunk/embedded/stage/lib/avr/atmega328p/gcc/libslip.a(slip_mux.cpp.o)
                0x00000000008006c0                _ZN7SlipMux8m_clSlipE
                0x00000000008006c2                _ZN7SlipMux11m_clSlipSemE
                0x00000000008006d0                _ZN7SlipMux20m_apfChannelHandlersE
                0x00000000008006dc                _ZN7SlipMux11m_pclDriverE
                0x00000000008006de                _ZN7SlipMux9m_aucDataE
                0x00000000008006fe                _ZN7SlipMux17m_pclMessageQueueE
 .bss           0x0000000000800700        0x2 /home/moslevin/m3/trunk/embedded/stage/lib/avr/atmega328p/gcc/libdrvUART.a(drvUART.cpp.o)
 *(.bss*)
 *(COMMON)
                0x0000000000800702                PROVIDE (__bss_end, .)
                0x0000000000001be4                __data_load_start = LOADADDR (.data)
                0x0000000000001c64                __data_load_end = (__data_load_start + SIZEOF (.data))

.noinit         0x0000000000800702        0x0
                0x0000000000800702                PROVIDE (__noinit_start, .)
 *(.noinit*)
                0x0000000000800702                PROVIDE (__noinit_end, .)
                0x0000000000800702                _end = .
                0x0000000000800702                PROVIDE (__heap_start, .)

.eeprom         0x0000000000810000        0x0
 *(.eeprom*)
                0x0000000000810000                __eeprom_end = .

.fuse
 *(.fuse)
 *(.lfuse)
 *(.hfuse)
 *(.efuse)

.lock
 *(.lock*)

.signature
 *(.signature*)

.stab           0x0000000000000000      0x6cc
 *(.stab)
 .stab          0x0000000000000000      0x6cc /opt/avr8-gnu-toolchain-linux_x86_64/bin/../lib/gcc/avr/4.6.2/../../../../avr/lib/avr5/crtm328p.o

.stabstr        0x0000000000000000       0x85
 *(.stabstr)
 .stabstr       0x0000000000000000       0x85 /opt/avr8-gnu-toolchain-linux_x86_64/bin/../lib/gcc/avr/4.6.2/../../../../avr/lib/avr5/crtm328p.o

.stab.excl
 *(.stab.excl)

.stab.exclstr
 *(.stab.exclstr)

.stab.index
 *(.stab.index)

.stab.indexstr
 *(.stab.indexstr)

.comment
 *(.comment)

.debug
 *(.debug)

.line
 *(.line)

.debug_srcinfo
 *(.debug_srcinfo)

.debug_sfnames
 *(.debug_sfnames)

.debug_aranges  0x0000000000000000      0x650
 *(.debug_aranges)
 .debug_aranges
                0x0000000000000000       0x48 ./obj/avr/atmega328p/gcc/Kernel++.cpp.o
 .debug_aranges
                0x0000000000000048       0x60 /home/moslevin/m3/trunk/embedded/stage/lib/avr/atmega328p/gcc/libmark3.a(driver.cpp.o)
 .debug_aranges
                0x00000000000000a8       0x50 /home/moslevin/m3/trunk/embedded/stage/lib/avr/atmega328p/gcc/libmark3.a(ll.cpp.o)
 .debug_aranges
                0x00000000000000f8       0x70 /home/moslevin/m3/trunk/embedded/stage/lib/avr/atmega328p/gcc/libmark3.a(thread.cpp.o)
 .debug_aranges
                0x0000000000000168       0x48 /home/moslevin/m3/trunk/embedded/stage/lib/avr/atmega328p/gcc/libmark3.a(threadlist.cpp.o)
 .debug_aranges
                0x00000000000001b0       0x28 /home/moslevin/m3/trunk/embedded/stage/lib/avr/atmega328p/gcc/libmark3.a(kernel.cpp.o)
 .debug_aranges
                0x00000000000001d8       0x70 /home/moslevin/m3/trunk/embedded/stage/lib/avr/atmega328p/gcc/libmark3.a(timerlist.cpp.o)
 .debug_aranges
                0x0000000000000248       0x38 /home/moslevin/m3/trunk/embedded/stage/lib/avr/atmega328p/gcc/libmark3.a(threadport.cpp.o)
 .debug_aranges
                0x0000000000000280       0x50 /home/moslevin/m3/trunk/embedded/stage/lib/avr/atmega328p/gcc/libmark3.a(kernelswi.cpp.o)
 .debug_aranges
                0x00000000000002d0       0x78 /home/moslevin/m3/trunk/embedded/stage/lib/avr/atmega328p/gcc/libmark3.a(kerneltimer.cpp.o)
 .debug_aranges
                0x0000000000000348       0x48 /home/moslevin/m3/trunk/embedded/stage/lib/avr/atmega328p/gcc/libmark3.a(kprofile.cpp.o)
 .debug_aranges
                0x0000000000000390       0x60 /home/moslevin/m3/trunk/embedded/stage/lib/avr/atmega328p/gcc/libmark3.a(message.cpp.o)
 .debug_aranges
                0x00000000000003f0       0x48 /home/moslevin/m3/trunk/embedded/stage/lib/avr/atmega328p/gcc/libmark3.a(quantum.cpp.o)
 .debug_aranges
                0x0000000000000438       0x40 /home/moslevin/m3/trunk/embedded/stage/lib/avr/atmega328p/gcc/libmark3.a(scheduler.cpp.o)
 .debug_aranges
                0x0000000000000478       0x58 /home/moslevin/m3/trunk/embedded/stage/lib/avr/atmega328p/gcc/libmark3.a(semaphore.cpp.o)
 .debug_aranges
                0x00000000000004d0       0x28 /home/moslevin/m3/trunk/embedded/stage/lib/avr/atmega328p/gcc/libmark3.a(blocking.cpp.o)
 .debug_aranges
                0x00000000000004f8       0x58 /home/moslevin/m3/trunk/embedded/stage/lib/avr/atmega328p/gcc/libslip.a(slip.cpp.o)
 .debug_aranges
                0x0000000000000550       0x40 /home/moslevin/m3/trunk/embedded/stage/lib/avr/atmega328p/gcc/libslip.a(slip_mux.cpp.o)
 .debug_aranges
                0x0000000000000590       0x78 /home/moslevin/m3/trunk/embedded/stage/lib/avr/atmega328p/gcc/libdrvUART.a(drvUART.cpp.o)
 .debug_aranges
                0x0000000000000608       0x48 /home/moslevin/m3/trunk/embedded/stage/lib/avr/atmega328p/gcc/libheap.a(fixed_heap.cpp.o)

.debug_pubnames
 *(.debug_pubnames)

.debug_info     0x0000000000000000     0xc832
 *(.debug_info)
 .debug_info    0x0000000000000000     0x102a ./obj/avr/atmega328p/gcc/Kernel++.cpp.o
 .debug_info    0x000000000000102a      0xad5 /home/moslevin/m3/trunk/embedded/stage/lib/avr/atmega328p/gcc/libmark3.a(driver.cpp.o)
 .debug_info    0x0000000000001aff      0x584 /home/moslevin/m3/trunk/embedded/stage/lib/avr/atmega328p/gcc/libmark3.a(ll.cpp.o)
 .debug_info    0x0000000000002083     0x123f /home/moslevin/m3/trunk/embedded/stage/lib/avr/atmega328p/gcc/libmark3.a(thread.cpp.o)
 .debug_info    0x00000000000032c2      0x9f0 /home/moslevin/m3/trunk/embedded/stage/lib/avr/atmega328p/gcc/libmark3.a(threadlist.cpp.o)
 .debug_info    0x0000000000003cb2      0x543 /home/moslevin/m3/trunk/embedded/stage/lib/avr/atmega328p/gcc/libmark3.a(kernel.cpp.o)
 .debug_info    0x00000000000041f5      0xe36 /home/moslevin/m3/trunk/embedded/stage/lib/avr/atmega328p/gcc/libmark3.a(timerlist.cpp.o)
 .debug_info    0x000000000000502b      0x646 /home/moslevin/m3/trunk/embedded/stage/lib/avr/atmega328p/gcc/libmark3.a(threadport.cpp.o)
 .debug_info    0x0000000000005671      0x187 /home/moslevin/m3/trunk/embedded/stage/lib/avr/atmega328p/gcc/libmark3.a(kernelswi.cpp.o)
 .debug_info    0x00000000000057f8      0x306 /home/moslevin/m3/trunk/embedded/stage/lib/avr/atmega328p/gcc/libmark3.a(kerneltimer.cpp.o)
 .debug_info    0x0000000000005afe      0x5f8 /home/moslevin/m3/trunk/embedded/stage/lib/avr/atmega328p/gcc/libmark3.a(kprofile.cpp.o)
 .debug_info    0x00000000000060f6      0xd5c /home/moslevin/m3/trunk/embedded/stage/lib/avr/atmega328p/gcc/libmark3.a(message.cpp.o)
 .debug_info    0x0000000000006e52      0xc8b /home/moslevin/m3/trunk/embedded/stage/lib/avr/atmega328p/gcc/libmark3.a(quantum.cpp.o)
 .debug_info    0x0000000000007add      0x95f /home/moslevin/m3/trunk/embedded/stage/lib/avr/atmega328p/gcc/libmark3.a(scheduler.cpp.o)
 .debug_info    0x000000000000843c      0xdc3 /home/moslevin/m3/trunk/embedded/stage/lib/avr/atmega328p/gcc/libmark3.a(semaphore.cpp.o)
 .debug_info    0x00000000000091ff      0x620 /home/moslevin/m3/trunk/embedded/stage/lib/avr/atmega328p/gcc/libmark3.a(blocking.cpp.o)
 .debug_info    0x000000000000981f      0x5d9 /home/moslevin/m3/trunk/embedded/stage/lib/avr/atmega328p/gcc/libslip.a(slip.cpp.o)
 .debug_info    0x0000000000009df8     0x1126 /home/moslevin/m3/trunk/embedded/stage/lib/avr/atmega328p/gcc/libslip.a(slip_mux.cpp.o)
 .debug_info    0x000000000000af1e      0xe83 /home/moslevin/m3/trunk/embedded/stage/lib/avr/atmega328p/gcc/libdrvUART.a(drvUART.cpp.o)
 .debug_info    0x000000000000bda1      0xa91 /home/moslevin/m3/trunk/embedded/stage/lib/avr/atmega328p/gcc/libheap.a(fixed_heap.cpp.o)
 *(.gnu.linkonce.wi.*)

.debug_abbrev   0x0000000000000000     0x3e6b
 *(.debug_abbrev)
 .debug_abbrev  0x0000000000000000      0x4c7 ./obj/avr/atmega328p/gcc/Kernel++.cpp.o
 .debug_abbrev  0x00000000000004c7      0x39b /home/moslevin/m3/trunk/embedded/stage/lib/avr/atmega328p/gcc/libmark3.a(driver.cpp.o)
 .debug_abbrev  0x0000000000000862      0x272 /home/moslevin/m3/trunk/embedded/stage/lib/avr/atmega328p/gcc/libmark3.a(ll.cpp.o)
 .debug_abbrev  0x0000000000000ad4      0x472 /home/moslevin/m3/trunk/embedded/stage/lib/avr/atmega328p/gcc/libmark3.a(thread.cpp.o)
 .debug_abbrev  0x0000000000000f46      0x335 /home/moslevin/m3/trunk/embedded/stage/lib/avr/atmega328p/gcc/libmark3.a(threadlist.cpp.o)
 .debug_abbrev  0x000000000000127b      0x1f4 /home/moslevin/m3/trunk/embedded/stage/lib/avr/atmega328p/gcc/libmark3.a(kernel.cpp.o)
 .debug_abbrev  0x000000000000146f      0x46b /home/moslevin/m3/trunk/embedded/stage/lib/avr/atmega328p/gcc/libmark3.a(timerlist.cpp.o)
 .debug_abbrev  0x00000000000018da      0x2cc /home/moslevin/m3/trunk/embedded/stage/lib/avr/atmega328p/gcc/libmark3.a(threadport.cpp.o)
 .debug_abbrev  0x0000000000001ba6       0xc5 /home/moslevin/m3/trunk/embedded/stage/lib/avr/atmega328p/gcc/libmark3.a(kernelswi.cpp.o)
 .debug_abbrev  0x0000000000001c6b      0x142 /home/moslevin/m3/trunk/embedded/stage/lib/avr/atmega328p/gcc/libmark3.a(kerneltimer.cpp.o)
 .debug_abbrev  0x0000000000001dad      0x242 /home/moslevin/m3/trunk/embedded/stage/lib/avr/atmega328p/gcc/libmark3.a(kprofile.cpp.o)
 .debug_abbrev  0x0000000000001fef      0x3e6 /home/moslevin/m3/trunk/embedded/stage/lib/avr/atmega328p/gcc/libmark3.a(message.cpp.o)
 .debug_abbrev  0x00000000000023d5      0x419 /home/moslevin/m3/trunk/embedded/stage/lib/avr/atmega328p/gcc/libmark3.a(quantum.cpp.o)
 .debug_abbrev  0x00000000000027ee      0x39e /home/moslevin/m3/trunk/embedded/stage/lib/avr/atmega328p/gcc/libmark3.a(scheduler.cpp.o)
 .debug_abbrev  0x0000000000002b8c      0x3f8 /home/moslevin/m3/trunk/embedded/stage/lib/avr/atmega328p/gcc/libmark3.a(semaphore.cpp.o)
 .debug_abbrev  0x0000000000002f84      0x22a /home/moslevin/m3/trunk/embedded/stage/lib/avr/atmega328p/gcc/libmark3.a(blocking.cpp.o)
 .debug_abbrev  0x00000000000031ae      0x1cb /home/moslevin/m3/trunk/embedded/stage/lib/avr/atmega328p/gcc/libslip.a(slip.cpp.o)
 .debug_abbrev  0x0000000000003379      0x456 /home/moslevin/m3/trunk/embedded/stage/lib/avr/atmega328p/gcc/libslip.a(slip_mux.cpp.o)
 .debug_abbrev  0x00000000000037cf      0x392 /home/moslevin/m3/trunk/embedded/stage/lib/avr/atmega328p/gcc/libdrvUART.a(drvUART.cpp.o)
 .debug_abbrev  0x0000000000003b61      0x30a /home/moslevin/m3/trunk/embedded/stage/lib/avr/atmega328p/gcc/libheap.a(fixed_heap.cpp.o)

.debug_line     0x0000000000000000     0x1bcd
 *(.debug_line)
 .debug_line    0x0000000000000000      0x243 ./obj/avr/atmega328p/gcc/Kernel++.cpp.o
 .debug_line    0x0000000000000243      0x13b /home/moslevin/m3/trunk/embedded/stage/lib/avr/atmega328p/gcc/libmark3.a(driver.cpp.o)
 .debug_line    0x000000000000037e      0x10c /home/moslevin/m3/trunk/embedded/stage/lib/avr/atmega328p/gcc/libmark3.a(ll.cpp.o)
 .debug_line    0x000000000000048a      0x243 /home/moslevin/m3/trunk/embedded/stage/lib/avr/atmega328p/gcc/libmark3.a(thread.cpp.o)
 .debug_line    0x00000000000006cd      0x111 /home/moslevin/m3/trunk/embedded/stage/lib/avr/atmega328p/gcc/libmark3.a(threadlist.cpp.o)
 .debug_line    0x00000000000007de       0xc2 /home/moslevin/m3/trunk/embedded/stage/lib/avr/atmega328p/gcc/libmark3.a(kernel.cpp.o)
 .debug_line    0x00000000000008a0      0x1d8 /home/moslevin/m3/trunk/embedded/stage/lib/avr/atmega328p/gcc/libmark3.a(timerlist.cpp.o)
 .debug_line    0x0000000000000a78      0x155 /home/moslevin/m3/trunk/embedded/stage/lib/avr/atmega328p/gcc/libmark3.a(threadport.cpp.o)
 .debug_line    0x0000000000000bcd       0xfb /home/moslevin/m3/trunk/embedded/stage/lib/avr/atmega328p/gcc/libmark3.a(kernelswi.cpp.o)
 .debug_line    0x0000000000000cc8      0x175 /home/moslevin/m3/trunk/embedded/stage/lib/avr/atmega328p/gcc/libmark3.a(kerneltimer.cpp.o)
 .debug_line    0x0000000000000e3d      0x114 /home/moslevin/m3/trunk/embedded/stage/lib/avr/atmega328p/gcc/libmark3.a(kprofile.cpp.o)
 .debug_line    0x0000000000000f51      0x183 /home/moslevin/m3/trunk/embedded/stage/lib/avr/atmega328p/gcc/libmark3.a(message.cpp.o)
 .debug_line    0x00000000000010d4      0x144 /home/moslevin/m3/trunk/embedded/stage/lib/avr/atmega328p/gcc/libmark3.a(quantum.cpp.o)
 .debug_line    0x0000000000001218      0x123 /home/moslevin/m3/trunk/embedded/stage/lib/avr/atmega328p/gcc/libmark3.a(scheduler.cpp.o)
 .debug_line    0x000000000000133b      0x181 /home/moslevin/m3/trunk/embedded/stage/lib/avr/atmega328p/gcc/libmark3.a(semaphore.cpp.o)
 .debug_line    0x00000000000014bc       0xc5 /home/moslevin/m3/trunk/embedded/stage/lib/avr/atmega328p/gcc/libmark3.a(blocking.cpp.o)
 .debug_line    0x0000000000001581      0x1ac /home/moslevin/m3/trunk/embedded/stage/lib/avr/atmega328p/gcc/libslip.a(slip.cpp.o)
 .debug_line    0x000000000000172d      0x16b /home/moslevin/m3/trunk/embedded/stage/lib/avr/atmega328p/gcc/libslip.a(slip_mux.cpp.o)
 .debug_line    0x0000000000001898      0x1e6 /home/moslevin/m3/trunk/embedded/stage/lib/avr/atmega328p/gcc/libdrvUART.a(drvUART.cpp.o)
 .debug_line    0x0000000000001a7e      0x14f /home/moslevin/m3/trunk/embedded/stage/lib/avr/atmega328p/gcc/libheap.a(fixed_heap.cpp.o)

.debug_frame    0x0000000000000000     0x1264
 *(.debug_frame)
 .debug_frame   0x0000000000000000       0x9c ./obj/avr/atmega328p/gcc/Kernel++.cpp.o
 .debug_frame   0x000000000000009c       0xb0 /home/moslevin/m3/trunk/embedded/stage/lib/avr/atmega328p/gcc/libmark3.a(driver.cpp.o)
 .debug_frame   0x000000000000014c       0xb4 /home/moslevin/m3/trunk/embedded/stage/lib/avr/atmega328p/gcc/libmark3.a(ll.cpp.o)
 .debug_frame   0x0000000000000200      0x1a8 /home/moslevin/m3/trunk/embedded/stage/lib/avr/atmega328p/gcc/libmark3.a(thread.cpp.o)
 .debug_frame   0x00000000000003a8       0x8c /home/moslevin/m3/trunk/embedded/stage/lib/avr/atmega328p/gcc/libmark3.a(threadlist.cpp.o)
 .debug_frame   0x0000000000000434       0x34 /home/moslevin/m3/trunk/embedded/stage/lib/avr/atmega328p/gcc/libmark3.a(kernel.cpp.o)
 .debug_frame   0x0000000000000468      0x190 /home/moslevin/m3/trunk/embedded/stage/lib/avr/atmega328p/gcc/libmark3.a(timerlist.cpp.o)
 .debug_frame   0x00000000000005f8       0xa8 /home/moslevin/m3/trunk/embedded/stage/lib/avr/atmega328p/gcc/libmark3.a(threadport.cpp.o)
 .debug_frame   0x00000000000006a0       0x84 /home/moslevin/m3/trunk/embedded/stage/lib/avr/atmega328p/gcc/libmark3.a(kernelswi.cpp.o)
 .debug_frame   0x0000000000000724       0xf0 /home/moslevin/m3/trunk/embedded/stage/lib/avr/atmega328p/gcc/libmark3.a(kerneltimer.cpp.o)
 .debug_frame   0x0000000000000814       0xdc /home/moslevin/m3/trunk/embedded/stage/lib/avr/atmega328p/gcc/libmark3.a(kprofile.cpp.o)
 .debug_frame   0x00000000000008f0      0x140 /home/moslevin/m3/trunk/embedded/stage/lib/avr/atmega328p/gcc/libmark3.a(message.cpp.o)
 .debug_frame   0x0000000000000a30       0x80 /home/moslevin/m3/trunk/embedded/stage/lib/avr/atmega328p/gcc/libmark3.a(quantum.cpp.o)
 .debug_frame   0x0000000000000ab0       0x78 /home/moslevin/m3/trunk/embedded/stage/lib/avr/atmega328p/gcc/libmark3.a(scheduler.cpp.o)
 .debug_frame   0x0000000000000b28      0x120 /home/moslevin/m3/trunk/embedded/stage/lib/avr/atmega328p/gcc/libmark3.a(semaphore.cpp.o)
 .debug_frame   0x0000000000000c48       0x54 /home/moslevin/m3/trunk/embedded/stage/lib/avr/atmega328p/gcc/libmark3.a(blocking.cpp.o)
 .debug_frame   0x0000000000000c9c      0x1c0 /home/moslevin/m3/trunk/embedded/stage/lib/avr/atmega328p/gcc/libslip.a(slip.cpp.o)
 .debug_frame   0x0000000000000e5c       0xe0 /home/moslevin/m3/trunk/embedded/stage/lib/avr/atmega328p/gcc/libslip.a(slip_mux.cpp.o)
 .debug_frame   0x0000000000000f3c      0x1ec /home/moslevin/m3/trunk/embedded/stage/lib/avr/atmega328p/gcc/libdrvUART.a(drvUART.cpp.o)
 .debug_frame   0x0000000000001128      0x13c /home/moslevin/m3/trunk/embedded/stage/lib/avr/atmega328p/gcc/libheap.a(fixed_heap.cpp.o)

.debug_str      0x0000000000000000     0x27b2
 *(.debug_str)
 .debug_str     0x0000000000000000      0xb27 ./obj/avr/atmega328p/gcc/Kernel++.cpp.o
                                        0xc07 (size before relaxing)
 .debug_str     0x0000000000000b27      0x1b2 /home/moslevin/m3/trunk/embedded/stage/lib/avr/atmega328p/gcc/libmark3.a(driver.cpp.o)
                                        0x4fb (size before relaxing)
 .debug_str     0x0000000000000cd9      0x130 /home/moslevin/m3/trunk/embedded/stage/lib/avr/atmega328p/gcc/libmark3.a(ll.cpp.o)
                                        0x301 (size before relaxing)
 .debug_str     0x0000000000000e09      0x554 /home/moslevin/m3/trunk/embedded/stage/lib/avr/atmega328p/gcc/libmark3.a(thread.cpp.o)
                                        0xb7c (size before relaxing)
 .debug_str     0x000000000000135d      0x127 /home/moslevin/m3/trunk/embedded/stage/lib/avr/atmega328p/gcc/libmark3.a(threadlist.cpp.o)
                                        0x725 (size before relaxing)
 .debug_str     0x0000000000001484       0x52 /home/moslevin/m3/trunk/embedded/stage/lib/avr/atmega328p/gcc/libmark3.a(kernel.cpp.o)
                                        0x55a (size before relaxing)
 .debug_str     0x00000000000014d6      0x18f /home/moslevin/m3/trunk/embedded/stage/lib/avr/atmega328p/gcc/libmark3.a(timerlist.cpp.o)
                                        0xa4f (size before relaxing)
 .debug_str     0x0000000000001665      0x130 /home/moslevin/m3/trunk/embedded/stage/lib/avr/atmega328p/gcc/libmark3.a(threadport.cpp.o)
                                        0x645 (size before relaxing)
 .debug_str     0x0000000000001795       0xd3 /home/moslevin/m3/trunk/embedded/stage/lib/avr/atmega328p/gcc/libmark3.a(kernelswi.cpp.o)
                                        0x194 (size before relaxing)
 .debug_str     0x0000000000001868      0x1f0 /home/moslevin/m3/trunk/embedded/stage/lib/avr/atmega328p/gcc/libmark3.a(kerneltimer.cpp.o)
                                        0x2c9 (size before relaxing)
 .debug_str     0x0000000000001a58       0xc9 /home/moslevin/m3/trunk/embedded/stage/lib/avr/atmega328p/gcc/libmark3.a(kprofile.cpp.o)
                                        0x5cf (size before relaxing)
 .debug_str     0x0000000000001b21      0x254 /home/moslevin/m3/trunk/embedded/stage/lib/avr/atmega328p/gcc/libmark3.a(message.cpp.o)
                                        0xa95 (size before relaxing)
 .debug_str     0x0000000000001d75      0x12d /home/moslevin/m3/trunk/embedded/stage/lib/avr/atmega328p/gcc/libmark3.a(quantum.cpp.o)
                                        0xa18 (size before relaxing)
 .debug_str     0x0000000000001ea2      0x14c /home/moslevin/m3/trunk/embedded/stage/lib/avr/atmega328p/gcc/libmark3.a(scheduler.cpp.o)
                                        0x792 (size before relaxing)
 .debug_str     0x0000000000001fee       0xc1 /home/moslevin/m3/trunk/embedded/stage/lib/avr/atmega328p/gcc/libmark3.a(semaphore.cpp.o)
                                        0xa8f (size before relaxing)
 .debug_str     0x00000000000020af        0xd /home/moslevin/m3/trunk/embedded/stage/lib/avr/atmega328p/gcc/libmark3.a(blocking.cpp.o)
                                        0x590 (size before relaxing)
 .debug_str     0x00000000000020bc       0xdd /home/moslevin/m3/trunk/embedded/stage/lib/avr/atmega328p/gcc/libslip.a(slip.cpp.o)
                                        0x2dc (size before relaxing)
 .debug_str     0x0000000000002199      0x2ac /home/moslevin/m3/trunk/embedded/stage/lib/avr/atmega328p/gcc/libslip.a(slip_mux.cpp.o)
                                        0xead (size before relaxing)
 .debug_str     0x0000000000002445      0x2c9 /home/moslevin/m3/trunk/embedded/stage/lib/avr/atmega328p/gcc/libdrvUART.a(drvUART.cpp.o)
                                        0x971 (size before relaxing)
 .debug_str     0x000000000000270e       0xa4 /home/moslevin/m3/trunk/embedded/stage/lib/avr/atmega328p/gcc/libheap.a(fixed_heap.cpp.o)
                                        0x7a6 (size before relaxing)

.debug_loc      0x0000000000000000     0x42b2
 *(.debug_loc)
 .debug_loc     0x0000000000000000      0x189 ./obj/avr/atmega328p/gcc/Kernel++.cpp.o
 .debug_loc     0x0000000000000189      0x16c /home/moslevin/m3/trunk/embedded/stage/lib/avr/atmega328p/gcc/libmark3.a(driver.cpp.o)
 .debug_loc     0x00000000000002f5      0x24c /home/moslevin/m3/trunk/embedded/stage/lib/avr/atmega328p/gcc/libmark3.a(ll.cpp.o)
 .debug_loc     0x0000000000000541      0x75c /home/moslevin/m3/trunk/embedded/stage/lib/avr/atmega328p/gcc/libmark3.a(thread.cpp.o)
 .debug_loc     0x0000000000000c9d      0x22b /home/moslevin/m3/trunk/embedded/stage/lib/avr/atmega328p/gcc/libmark3.a(threadlist.cpp.o)
 .debug_loc     0x0000000000000ec8      0x64b /home/moslevin/m3/trunk/embedded/stage/lib/avr/atmega328p/gcc/libmark3.a(timerlist.cpp.o)
 .debug_loc     0x0000000000001513      0x22f /home/moslevin/m3/trunk/embedded/stage/lib/avr/atmega328p/gcc/libmark3.a(threadport.cpp.o)
 .debug_loc     0x0000000000001742       0x17 /home/moslevin/m3/trunk/embedded/stage/lib/avr/atmega328p/gcc/libmark3.a(kernelswi.cpp.o)
 .debug_loc     0x0000000000001759      0x1af /home/moslevin/m3/trunk/embedded/stage/lib/avr/atmega328p/gcc/libmark3.a(kerneltimer.cpp.o)
 .debug_loc     0x0000000000001908      0x199 /home/moslevin/m3/trunk/embedded/stage/lib/avr/atmega328p/gcc/libmark3.a(kprofile.cpp.o)
 .debug_loc     0x0000000000001aa1      0x40c /home/moslevin/m3/trunk/embedded/stage/lib/avr/atmega328p/gcc/libmark3.a(message.cpp.o)
 .debug_loc     0x0000000000001ead       0xe5 /home/moslevin/m3/trunk/embedded/stage/lib/avr/atmega328p/gcc/libmark3.a(quantum.cpp.o)
 .debug_loc     0x0000000000001f92      0x100 /home/moslevin/m3/trunk/embedded/stage/lib/avr/atmega328p/gcc/libmark3.a(scheduler.cpp.o)
 .debug_loc     0x0000000000002092      0x4be /home/moslevin/m3/trunk/embedded/stage/lib/avr/atmega328p/gcc/libmark3.a(semaphore.cpp.o)
 .debug_loc     0x0000000000002550      0x144 /home/moslevin/m3/trunk/embedded/stage/lib/avr/atmega328p/gcc/libmark3.a(blocking.cpp.o)
 .debug_loc     0x0000000000002694      0xa13 /home/moslevin/m3/trunk/embedded/stage/lib/avr/atmega328p/gcc/libslip.a(slip.cpp.o)
 .debug_loc     0x00000000000030a7      0x32e /home/moslevin/m3/trunk/embedded/stage/lib/avr/atmega328p/gcc/libslip.a(slip_mux.cpp.o)
 .debug_loc     0x00000000000033d5      0x885 /home/moslevin/m3/trunk/embedded/stage/lib/avr/atmega328p/gcc/libdrvUART.a(drvUART.cpp.o)
 .debug_loc     0x0000000000003c5a      0x658 /home/moslevin/m3/trunk/embedded/stage/lib/avr/atmega328p/gcc/libheap.a(fixed_heap.cpp.o)

.debug_macinfo
 *(.debug_macinfo)
OUTPUT(./obj/avr/atmega328p/gcc/my_first_app.elf elf32-avr)
LOAD linker stubs

.debug_ranges   0x0000000000000000      0x558
 .debug_ranges  0x0000000000000000       0x50 ./obj/avr/atmega328p/gcc/Kernel++.cpp.o
 .debug_ranges  0x0000000000000050       0x50 /home/moslevin/m3/trunk/embedded/stage/lib/avr/atmega328p/gcc/libmark3.a(driver.cpp.o)
 .debug_ranges  0x00000000000000a0       0x40 /home/moslevin/m3/trunk/embedded/stage/lib/avr/atmega328p/gcc/libmark3.a(ll.cpp.o)
 .debug_ranges  0x00000000000000e0       0x60 /home/moslevin/m3/trunk/embedded/stage/lib/avr/atmega328p/gcc/libmark3.a(thread.cpp.o)
 .debug_ranges  0x0000000000000140       0x50 /home/moslevin/m3/trunk/embedded/stage/lib/avr/atmega328p/gcc/libmark3.a(threadlist.cpp.o)
 .debug_ranges  0x0000000000000190       0x18 /home/moslevin/m3/trunk/embedded/stage/lib/avr/atmega328p/gcc/libmark3.a(kernel.cpp.o)
 .debug_ranges  0x00000000000001a8       0x60 /home/moslevin/m3/trunk/embedded/stage/lib/avr/atmega328p/gcc/libmark3.a(timerlist.cpp.o)
 .debug_ranges  0x0000000000000208       0x28 /home/moslevin/m3/trunk/embedded/stage/lib/avr/atmega328p/gcc/libmark3.a(threadport.cpp.o)
 .debug_ranges  0x0000000000000230       0x40 /home/moslevin/m3/trunk/embedded/stage/lib/avr/atmega328p/gcc/libmark3.a(kernelswi.cpp.o)
 .debug_ranges  0x0000000000000270       0x68 /home/moslevin/m3/trunk/embedded/stage/lib/avr/atmega328p/gcc/libmark3.a(kerneltimer.cpp.o)
 .debug_ranges  0x00000000000002d8       0x38 /home/moslevin/m3/trunk/embedded/stage/lib/avr/atmega328p/gcc/libmark3.a(kprofile.cpp.o)
 .debug_ranges  0x0000000000000310       0x50 /home/moslevin/m3/trunk/embedded/stage/lib/avr/atmega328p/gcc/libmark3.a(message.cpp.o)
 .debug_ranges  0x0000000000000360       0x38 /home/moslevin/m3/trunk/embedded/stage/lib/avr/atmega328p/gcc/libmark3.a(quantum.cpp.o)
 .debug_ranges  0x0000000000000398       0x30 /home/moslevin/m3/trunk/embedded/stage/lib/avr/atmega328p/gcc/libmark3.a(scheduler.cpp.o)
 .debug_ranges  0x00000000000003c8       0x48 /home/moslevin/m3/trunk/embedded/stage/lib/avr/atmega328p/gcc/libmark3.a(semaphore.cpp.o)
 .debug_ranges  0x0000000000000410       0x18 /home/moslevin/m3/trunk/embedded/stage/lib/avr/atmega328p/gcc/libmark3.a(blocking.cpp.o)
 .debug_ranges  0x0000000000000428       0x48 /home/moslevin/m3/trunk/embedded/stage/lib/avr/atmega328p/gcc/libslip.a(slip.cpp.o)
 .debug_ranges  0x0000000000000470       0x30 /home/moslevin/m3/trunk/embedded/stage/lib/avr/atmega328p/gcc/libslip.a(slip_mux.cpp.o)
 .debug_ranges  0x00000000000004a0       0x68 /home/moslevin/m3/trunk/embedded/stage/lib/avr/atmega328p/gcc/libdrvUART.a(drvUART.cpp.o)
 .debug_ranges  0x0000000000000508       0x50 /home/moslevin/m3/trunk/embedded/stage/lib/avr/atmega328p/gcc/libheap.a(fixed_heap.cpp.o)
