Archive member included because of file (symbol)

/home/vm/mark3/trunk/embedded/stage/lib/avr/atmega328p/gcc/libmark3.a(ll.cpp.o)
                              ./obj/avr/atmega328p/gcc/main.cpp.o (_ZN12LinkListNode9ClearNodeEv)
/home/vm/mark3/trunk/embedded/stage/lib/avr/atmega328p/gcc/libmark3.a(message.cpp.o)
                              ./obj/avr/atmega328p/gcc/main.cpp.o (_ZN12MessageQueue4InitEv)
/home/vm/mark3/trunk/embedded/stage/lib/avr/atmega328p/gcc/libmark3.a(ksemaphore.cpp.o)
                              /home/vm/mark3/trunk/embedded/stage/lib/avr/atmega328p/gcc/libmark3.a(message.cpp.o) (_ZN9Semaphore4InitEjj)
/home/vm/mark3/trunk/embedded/stage/lib/avr/atmega328p/gcc/libmark3.a(thread.cpp.o)
                              ./obj/avr/atmega328p/gcc/main.cpp.o (_ZN6Thread4InitEPhjhPFvPvES1_)
/home/vm/mark3/trunk/embedded/stage/lib/avr/atmega328p/gcc/libmark3.a(threadlist.cpp.o)
                              /home/vm/mark3/trunk/embedded/stage/lib/avr/atmega328p/gcc/libmark3.a(ksemaphore.cpp.o) (_ZN10ThreadList13HighestWaiterEv)
/home/vm/mark3/trunk/embedded/stage/lib/avr/atmega328p/gcc/libmark3.a(kernel.cpp.o)
                              ./obj/avr/atmega328p/gcc/main.cpp.o (_ZN6Kernel4InitEv)
/home/vm/mark3/trunk/embedded/stage/lib/avr/atmega328p/gcc/libmark3.a(timer.cpp.o)
                              /home/vm/mark3/trunk/embedded/stage/lib/avr/atmega328p/gcc/libmark3.a(ksemaphore.cpp.o) (_ZN5Timer4StopEv)
/home/vm/mark3/trunk/embedded/stage/lib/avr/atmega328p/gcc/libmark3.a(timerlist.cpp.o)
                              /home/vm/mark3/trunk/embedded/stage/lib/avr/atmega328p/gcc/libmark3.a(kernel.cpp.o) (_ZN9TimerList4InitEv)
/home/vm/mark3/trunk/embedded/stage/lib/avr/atmega328p/gcc/libmark3.a(kernelaware.cpp.o)
                              /home/vm/mark3/trunk/embedded/stage/lib/avr/atmega328p/gcc/libmark3.a(kernel.cpp.o) (_ZN11KernelAware13ExitSimulatorEv)
/home/vm/mark3/trunk/embedded/stage/lib/avr/atmega328p/gcc/libmark3.a(threadport.cpp.o)
                              /home/vm/mark3/trunk/embedded/stage/lib/avr/atmega328p/gcc/libmark3.a(thread.cpp.o) (_ZN10ThreadPort9InitStackEP6Thread)
/home/vm/mark3/trunk/embedded/stage/lib/avr/atmega328p/gcc/libmark3.a(kernelswi.cpp.o)
                              /home/vm/mark3/trunk/embedded/stage/lib/avr/atmega328p/gcc/libmark3.a(threadport.cpp.o) (_ZN9KernelSWI6ConfigEv)
/home/vm/mark3/trunk/embedded/stage/lib/avr/atmega328p/gcc/libmark3.a(kerneltimer.cpp.o)
                              /home/vm/mark3/trunk/embedded/stage/lib/avr/atmega328p/gcc/libmark3.a(threadport.cpp.o) (_ZN11KernelTimer6ConfigEv)
/home/vm/mark3/trunk/embedded/stage/lib/avr/atmega328p/gcc/libmark3.a(kernelprofile.cpp.o)
                              /home/vm/mark3/trunk/embedded/stage/lib/avr/atmega328p/gcc/libmark3.a(kernel.cpp.o) (_ZN8Profiler4InitEv)
/home/vm/mark3/trunk/embedded/stage/lib/avr/atmega328p/gcc/libmark3.a(blocking.cpp.o)
                              /home/vm/mark3/trunk/embedded/stage/lib/avr/atmega328p/gcc/libmark3.a(ksemaphore.cpp.o) (_ZN14BlockingObject7UnBlockEP6Thread)
/home/vm/mark3/trunk/embedded/stage/lib/avr/atmega328p/gcc/libmark3.a(driver.cpp.o)
                              /home/vm/mark3/trunk/embedded/stage/lib/avr/atmega328p/gcc/libmark3.a(kernel.cpp.o) (_ZN10DriverList4InitEv)
/home/vm/mark3/trunk/embedded/stage/lib/avr/atmega328p/gcc/libmark3.a(quantum.cpp.o)
                              /home/vm/mark3/trunk/embedded/stage/lib/avr/atmega328p/gcc/libmark3.a(thread.cpp.o) (_ZN7Quantum9AddThreadEP6Thread)
/home/vm/mark3/trunk/embedded/stage/lib/avr/atmega328p/gcc/libmark3.a(scheduler.cpp.o)
                              /home/vm/mark3/trunk/embedded/stage/lib/avr/atmega328p/gcc/libmark3.a(kernel.cpp.o) (_ZN9Scheduler4InitEv)
/home/vm/mark3/trunk/embedded/stage/lib/avr/atmega328p/gcc/libheap.a(system_heap.cpp.o)
                              ./obj/avr/atmega328p/gcc/main.cpp.o (_ZN10SystemHeap4InitEv)
/home/vm/mark3/trunk/embedded/stage/lib/avr/atmega328p/gcc/libheap.a(fixed_heap.cpp.o)
                              /home/vm/mark3/trunk/embedded/stage/lib/avr/atmega328p/gcc/libheap.a(system_heap.cpp.o) (_ZN9FixedHeap6CreateEPvP10HeapConfig)
/home/vm/mark3/trunk/embedded/stage/lib/avr/atmega328p/gcc/librandom.a(rand_lfsr.cpp.o)
                              ./obj/avr/atmega328p/gcc/main.cpp.o (_ZN12PseudoRandomC1Ev)
/home/vm/mark3/trunk/embedded/stage/lib/avr/atmega328p/gcc/libgraphics.a(graphics.cpp.o)
                              ./obj/avr/atmega328p/gcc/main.cpp.o (_ZN14GraphicsDriver9SetWindowEP12DrawWindow_t)
/home/vm/mark3/trunk/embedded/stage/lib/avr/atmega328p/gcc/libarial_10.a(arial_10.cpp.o)
                              ./obj/avr/atmega328p/gcc/main.cpp.o (fntArial_10_False_False_False_)
/home/vm/mark3/trunk/embedded/stage/lib/avr/atmega328p/gcc/libdrvGraphicsFlavr.a(graphics_flavr.cpp.o)
                              ./obj/avr/atmega328p/gcc/main.cpp.o (_ZN13GraphicsFlavr4FlipEv)
/home/vm/mark3/trunk/embedded/stage/lib/avr/atmega328p/gcc/libjoystick.a(joystick.cpp.o)
                              ./obj/avr/atmega328p/gcc/main.cpp.o (_ZN14JoystickDriver4ScanEv)
/home/vm/mark3/trunk/embedded/stage/lib/avr/atmega328p/gcc/libdrvFlavrJoy.a(drvFlavrJoy.cpp.o)
                              ./obj/avr/atmega328p/gcc/main.cpp.o (_ZN13FlavrJoystick4InitEv)
/home/vm/mark3/trunk/embedded/stage/lib/avr/atmega328p/gcc/libgui.a(gui.cpp.o)
                              ./obj/avr/atmega328p/gcc/main.cpp.o (_ZN9GuiWindow6RedrawEb)
/home/vm/mark3/trunk/embedded/stage/lib/avr/atmega328p/gcc/libgui.a(control_brushpanel.cpp.o)
                              ./obj/avr/atmega328p/gcc/main.cpp.o (_ZTV17BrushPanelControl)
/home/vm/mark3/trunk/embedded/stage/lib/avr/atmega328p/gcc/libgui.a(control_button.cpp.o)
                              ./obj/avr/atmega328p/gcc/main.cpp.o (_ZN13ButtonControl4InitEv)
/home/vm/mark3/trunk/embedded/stage/lib/avr/atmega328p/gcc/libgui.a(control_checkbox.cpp.o)
                              ./obj/avr/atmega328p/gcc/main.cpp.o (_ZN15CheckBoxControl4InitEv)
/home/vm/mark3/trunk/embedded/stage/lib/avr/atmega328p/gcc/libgui.a(control_groupbox.cpp.o)
                              ./obj/avr/atmega328p/gcc/main.cpp.o (_ZN15GroupBoxControl4InitEv)
/home/vm/mark3/trunk/embedded/stage/lib/avr/atmega328p/gcc/libgui.a(control_label.cpp.o)
                              ./obj/avr/atmega328p/gcc/main.cpp.o (_ZN12LabelControl4InitEv)
/home/vm/mark3/trunk/embedded/stage/lib/avr/atmega328p/gcc/libgui.a(control_progress.cpp.o)
                              ./obj/avr/atmega328p/gcc/main.cpp.o (_ZN15ProgressControl4InitEv)
/home/vm/mark3/trunk/embedded/stage/lib/avr/atmega328p/gcc/libgui.a(control_sevenseg.cpp.o)
                              ./obj/avr/atmega328p/gcc/main.cpp.o (_ZN15SevenSegControl4InitEv)
/usr/lib/gcc/avr/4.8.2/avr5/libgcc.a(_umulhisi3.o)
                              /home/vm/mark3/trunk/embedded/stage/lib/avr/atmega328p/gcc/libgraphics.a(graphics.cpp.o) (__umulhisi3)
/usr/lib/gcc/avr/4.8.2/avr5/libgcc.a(_muluhisi3.o)
                              /home/vm/mark3/trunk/embedded/stage/lib/avr/atmega328p/gcc/libmark3.a(timer.cpp.o) (__muluhisi3)
/usr/lib/gcc/avr/4.8.2/avr5/libgcc.a(_mulsi3.o)
                              /home/vm/mark3/trunk/embedded/stage/lib/avr/atmega328p/gcc/libgraphics.a(graphics.cpp.o) (__mulsi3)
/usr/lib/gcc/avr/4.8.2/avr5/libgcc.a(_udivmodhi4.o)
                              ./obj/avr/atmega328p/gcc/main.cpp.o (__udivmodhi4)
/usr/lib/gcc/avr/4.8.2/avr5/libgcc.a(_udivmodsi4.o)
                              /home/vm/mark3/trunk/embedded/stage/lib/avr/atmega328p/gcc/libmark3.a(timer.cpp.o) (__udivmodsi4)
/usr/lib/gcc/avr/4.8.2/avr5/libgcc.a(_exit.o)
                              /usr/lib/gcc/avr/4.8.2/../../../avr/lib/avr5/crtm328p.o (exit)
/usr/lib/gcc/avr/4.8.2/avr5/libgcc.a(_copy_data.o)
                              ./obj/avr/atmega328p/gcc/main.cpp.o (__do_copy_data)
/usr/lib/gcc/avr/4.8.2/avr5/libgcc.a(_clear_bss.o)
                              ./obj/avr/atmega328p/gcc/main.cpp.o (__do_clear_bss)
/usr/lib/gcc/avr/4.8.2/avr5/libgcc.a(_ctors.o)
                              ./obj/avr/atmega328p/gcc/main.cpp.o (__do_global_ctors)
/usr/lib/gcc/avr/4.8.2/avr5/libgcc.a(_tablejump.o)
                              /usr/lib/gcc/avr/4.8.2/avr5/libgcc.a(_ctors.o) (__tablejump__)

Discarded input sections

 .bss           0x0000000000000000        0x0 /usr/lib/gcc/avr/4.8.2/../../../avr/lib/avr5/crtm328p.o
 .text          0x0000000000000000        0x0 ./obj/avr/atmega328p/gcc/main.cpp.o
 .group         0x0000000000000000        0x8 /home/vm/mark3/trunk/embedded/stage/lib/avr/atmega328p/gcc/libmark3.a(ll.cpp.o)
 .group         0x0000000000000000        0x8 /home/vm/mark3/trunk/embedded/stage/lib/avr/atmega328p/gcc/libmark3.a(ll.cpp.o)
 .text          0x0000000000000000        0x0 /home/vm/mark3/trunk/embedded/stage/lib/avr/atmega328p/gcc/libmark3.a(ll.cpp.o)
 .bss           0x0000000000000000        0x0 /home/vm/mark3/trunk/embedded/stage/lib/avr/atmega328p/gcc/libmark3.a(ll.cpp.o)
 .text._ZN16CircularLinkList13PivotBackwardEv
                0x0000000000000000       0x28 /home/vm/mark3/trunk/embedded/stage/lib/avr/atmega328p/gcc/libmark3.a(ll.cpp.o)
 .rodata._ZTV16CircularLinkList
                0x0000000000000000        0x8 /home/vm/mark3/trunk/embedded/stage/lib/avr/atmega328p/gcc/libmark3.a(ll.cpp.o)
 .text          0x0000000000000000        0x0 /home/vm/mark3/trunk/embedded/stage/lib/avr/atmega328p/gcc/libmark3.a(message.cpp.o)
 .text._ZN12MessageQueue7ReceiveEm
                0x0000000000000000        0x4 /home/vm/mark3/trunk/embedded/stage/lib/avr/atmega328p/gcc/libmark3.a(message.cpp.o)
 .text._ZN12MessageQueue8GetCountEv
                0x0000000000000000        0x4 /home/vm/mark3/trunk/embedded/stage/lib/avr/atmega328p/gcc/libmark3.a(message.cpp.o)
 .text          0x0000000000000000        0x0 /home/vm/mark3/trunk/embedded/stage/lib/avr/atmega328p/gcc/libmark3.a(ksemaphore.cpp.o)
 .bss           0x0000000000000000        0x0 /home/vm/mark3/trunk/embedded/stage/lib/avr/atmega328p/gcc/libmark3.a(ksemaphore.cpp.o)
 .text._ZN9Semaphore6WakeMeEP6Thread
                0x0000000000000000        0x4 /home/vm/mark3/trunk/embedded/stage/lib/avr/atmega328p/gcc/libmark3.a(ksemaphore.cpp.o)
 .text._ZN9Semaphore4PendEv
                0x0000000000000000        0xa /home/vm/mark3/trunk/embedded/stage/lib/avr/atmega328p/gcc/libmark3.a(ksemaphore.cpp.o)
 .text._ZN9Semaphore8GetCountEv
                0x0000000000000000       0x22 /home/vm/mark3/trunk/embedded/stage/lib/avr/atmega328p/gcc/libmark3.a(ksemaphore.cpp.o)
 .text          0x0000000000000000        0x0 /home/vm/mark3/trunk/embedded/stage/lib/avr/atmega328p/gcc/libmark3.a(thread.cpp.o)
 .text._ZL19ThreadSleepCallbackP6ThreadPv
                0x0000000000000000        0x6 /home/vm/mark3/trunk/embedded/stage/lib/avr/atmega328p/gcc/libmark3.a(thread.cpp.o)
 .text._ZN6Thread5SleepEm
                0x0000000000000000       0xda /home/vm/mark3/trunk/embedded/stage/lib/avr/atmega328p/gcc/libmark3.a(thread.cpp.o)
 .text._ZN6Thread6USleepEm
                0x0000000000000000       0xda /home/vm/mark3/trunk/embedded/stage/lib/avr/atmega328p/gcc/libmark3.a(thread.cpp.o)
 .text._ZN6Thread13GetStackSlackEv
                0x0000000000000000       0x46 /home/vm/mark3/trunk/embedded/stage/lib/avr/atmega328p/gcc/libmark3.a(thread.cpp.o)
 .text._ZN6Thread15SetPriorityBaseEh
                0x0000000000000000       0x40 /home/vm/mark3/trunk/embedded/stage/lib/avr/atmega328p/gcc/libmark3.a(thread.cpp.o)
 .text._ZN6Thread15InheritPriorityEh
                0x0000000000000000       0x16 /home/vm/mark3/trunk/embedded/stage/lib/avr/atmega328p/gcc/libmark3.a(thread.cpp.o)
 .text._ZN6Thread4StopEv
                0x0000000000000000       0xa2 /home/vm/mark3/trunk/embedded/stage/lib/avr/atmega328p/gcc/libmark3.a(thread.cpp.o)
 .text._ZN6Thread4ExitEv
                0x0000000000000000       0x8a /home/vm/mark3/trunk/embedded/stage/lib/avr/atmega328p/gcc/libmark3.a(thread.cpp.o)
 .text._ZN6Thread11SetPriorityEh
                0x0000000000000000       0xa4 /home/vm/mark3/trunk/embedded/stage/lib/avr/atmega328p/gcc/libmark3.a(thread.cpp.o)
 .text._ZN6Thread8GetTimerEv
                0x0000000000000000        0x4 /home/vm/mark3/trunk/embedded/stage/lib/avr/atmega328p/gcc/libmark3.a(thread.cpp.o)
 .group         0x0000000000000000        0x8 /home/vm/mark3/trunk/embedded/stage/lib/avr/atmega328p/gcc/libmark3.a(threadlist.cpp.o)
 .text          0x0000000000000000        0x0 /home/vm/mark3/trunk/embedded/stage/lib/avr/atmega328p/gcc/libmark3.a(threadlist.cpp.o)
 .bss           0x0000000000000000        0x0 /home/vm/mark3/trunk/embedded/stage/lib/avr/atmega328p/gcc/libmark3.a(threadlist.cpp.o)
 .text._ZN10ThreadList3AddEP12LinkListNodePhh
                0x0000000000000000       0x1c /home/vm/mark3/trunk/embedded/stage/lib/avr/atmega328p/gcc/libmark3.a(threadlist.cpp.o)
 .text          0x0000000000000000        0x0 /home/vm/mark3/trunk/embedded/stage/lib/avr/atmega328p/gcc/libmark3.a(kernel.cpp.o)
 .text._ZN6Kernel5PanicEj
                0x0000000000000000       0x1a /home/vm/mark3/trunk/embedded/stage/lib/avr/atmega328p/gcc/libmark3.a(kernel.cpp.o)
 .text          0x0000000000000000        0x0 /home/vm/mark3/trunk/embedded/stage/lib/avr/atmega328p/gcc/libmark3.a(timer.cpp.o)
 .bss           0x0000000000000000        0x0 /home/vm/mark3/trunk/embedded/stage/lib/avr/atmega328p/gcc/libmark3.a(timer.cpp.o)
 .text._ZN5Timer16SetIntervalTicksEm
                0x0000000000000000        0xc /home/vm/mark3/trunk/embedded/stage/lib/avr/atmega328p/gcc/libmark3.a(timer.cpp.o)
 .text._ZN5Timer18SetIntervalSecondsEm
                0x0000000000000000       0x18 /home/vm/mark3/trunk/embedded/stage/lib/avr/atmega328p/gcc/libmark3.a(timer.cpp.o)
 .text._ZN5Timer5StartEbmmPFvP6ThreadPvES2_
                0x0000000000000000       0x7e /home/vm/mark3/trunk/embedded/stage/lib/avr/atmega328p/gcc/libmark3.a(timer.cpp.o)
 .text._ZN5Timer19SetIntervalUSecondsEm
                0x0000000000000000       0x34 /home/vm/mark3/trunk/embedded/stage/lib/avr/atmega328p/gcc/libmark3.a(timer.cpp.o)
 .text._ZN5Timer12SetToleranceEm
                0x0000000000000000        0xc /home/vm/mark3/trunk/embedded/stage/lib/avr/atmega328p/gcc/libmark3.a(timer.cpp.o)
 .group         0x0000000000000000        0x8 /home/vm/mark3/trunk/embedded/stage/lib/avr/atmega328p/gcc/libmark3.a(timerlist.cpp.o)
 .text          0x0000000000000000        0x0 /home/vm/mark3/trunk/embedded/stage/lib/avr/atmega328p/gcc/libmark3.a(timerlist.cpp.o)
 .text          0x0000000000000000        0x0 /home/vm/mark3/trunk/embedded/stage/lib/avr/atmega328p/gcc/libmark3.a(kernelaware.cpp.o)
 .text._ZN11KernelAware11ProfileInitEPKc
                0x0000000000000000       0x2a /home/vm/mark3/trunk/embedded/stage/lib/avr/atmega328p/gcc/libmark3.a(kernelaware.cpp.o)
 .text._ZN11KernelAware12ProfileStartEv
                0x0000000000000000        0x8 /home/vm/mark3/trunk/embedded/stage/lib/avr/atmega328p/gcc/libmark3.a(kernelaware.cpp.o)
 .text._ZN11KernelAware11ProfileStopEv
                0x0000000000000000        0x8 /home/vm/mark3/trunk/embedded/stage/lib/avr/atmega328p/gcc/libmark3.a(kernelaware.cpp.o)
 .text._ZN11KernelAware13ProfileReportEv
                0x0000000000000000        0x8 /home/vm/mark3/trunk/embedded/stage/lib/avr/atmega328p/gcc/libmark3.a(kernelaware.cpp.o)
 .text._ZN11KernelAware13ExitSimulatorEv
                0x0000000000000000        0x8 /home/vm/mark3/trunk/embedded/stage/lib/avr/atmega328p/gcc/libmark3.a(kernelaware.cpp.o)
 .text._ZN11KernelAware7Trace_iEjjjjj20KernelAwareCommand_t
                0x0000000000000000       0x54 /home/vm/mark3/trunk/embedded/stage/lib/avr/atmega328p/gcc/libmark3.a(kernelaware.cpp.o)
 .text._ZN11KernelAware5TraceEjjj
                0x0000000000000000       0x1e /home/vm/mark3/trunk/embedded/stage/lib/avr/atmega328p/gcc/libmark3.a(kernelaware.cpp.o)
 .text._ZN11KernelAware5TraceEjjjj
                0x0000000000000000       0x1a /home/vm/mark3/trunk/embedded/stage/lib/avr/atmega328p/gcc/libmark3.a(kernelaware.cpp.o)
 .text._ZN11KernelAware5TraceEjjjjj
                0x0000000000000000       0x16 /home/vm/mark3/trunk/embedded/stage/lib/avr/atmega328p/gcc/libmark3.a(kernelaware.cpp.o)
 .text._ZN11KernelAware16IsSimulatorAwareEv
                0x0000000000000000        0x6 /home/vm/mark3/trunk/embedded/stage/lib/avr/atmega328p/gcc/libmark3.a(kernelaware.cpp.o)
 .text          0x0000000000000000        0x0 /home/vm/mark3/trunk/embedded/stage/lib/avr/atmega328p/gcc/libmark3.a(threadport.cpp.o)
 .bss           0x0000000000000000        0x2 /home/vm/mark3/trunk/embedded/stage/lib/avr/atmega328p/gcc/libmark3.a(threadport.cpp.o)
 .text          0x0000000000000000        0x0 /home/vm/mark3/trunk/embedded/stage/lib/avr/atmega328p/gcc/libmark3.a(kernelswi.cpp.o)
 .bss           0x0000000000000000        0x0 /home/vm/mark3/trunk/embedded/stage/lib/avr/atmega328p/gcc/libmark3.a(kernelswi.cpp.o)
 .text._ZN9KernelSWI4StopEv
                0x0000000000000000        0x4 /home/vm/mark3/trunk/embedded/stage/lib/avr/atmega328p/gcc/libmark3.a(kernelswi.cpp.o)
 .text._ZN9KernelSWI5ClearEv
                0x0000000000000000        0x4 /home/vm/mark3/trunk/embedded/stage/lib/avr/atmega328p/gcc/libmark3.a(kernelswi.cpp.o)
 .text          0x0000000000000000        0x0 /home/vm/mark3/trunk/embedded/stage/lib/avr/atmega328p/gcc/libmark3.a(kerneltimer.cpp.o)
 .bss           0x0000000000000000        0x0 /home/vm/mark3/trunk/embedded/stage/lib/avr/atmega328p/gcc/libmark3.a(kerneltimer.cpp.o)
 .text._ZN11KernelTimer2DIEv
                0x0000000000000000       0x14 /home/vm/mark3/trunk/embedded/stage/lib/avr/atmega328p/gcc/libmark3.a(kerneltimer.cpp.o)
 .text._ZN11KernelTimer2RIEb
                0x0000000000000000       0x18 /home/vm/mark3/trunk/embedded/stage/lib/avr/atmega328p/gcc/libmark3.a(kerneltimer.cpp.o)
 .text._ZN11KernelTimer2EIEv
                0x0000000000000000        0x6 /home/vm/mark3/trunk/embedded/stage/lib/avr/atmega328p/gcc/libmark3.a(kerneltimer.cpp.o)
 .text          0x0000000000000000        0x0 /home/vm/mark3/trunk/embedded/stage/lib/avr/atmega328p/gcc/libmark3.a(kernelprofile.cpp.o)
 .text._ZN8Profiler5StartEv
                0x0000000000000000       0x16 /home/vm/mark3/trunk/embedded/stage/lib/avr/atmega328p/gcc/libmark3.a(kernelprofile.cpp.o)
 .text._ZN8Profiler4StopEv
                0x0000000000000000       0x14 /home/vm/mark3/trunk/embedded/stage/lib/avr/atmega328p/gcc/libmark3.a(kernelprofile.cpp.o)
 .text._ZN8Profiler4ReadEv
                0x0000000000000000       0x2c /home/vm/mark3/trunk/embedded/stage/lib/avr/atmega328p/gcc/libmark3.a(kernelprofile.cpp.o)
 .text          0x0000000000000000        0x0 /home/vm/mark3/trunk/embedded/stage/lib/avr/atmega328p/gcc/libmark3.a(blocking.cpp.o)
 .bss           0x0000000000000000        0x0 /home/vm/mark3/trunk/embedded/stage/lib/avr/atmega328p/gcc/libmark3.a(blocking.cpp.o)
 .group         0x0000000000000000        0x8 /home/vm/mark3/trunk/embedded/stage/lib/avr/atmega328p/gcc/libmark3.a(driver.cpp.o)
 .group         0x0000000000000000        0x8 /home/vm/mark3/trunk/embedded/stage/lib/avr/atmega328p/gcc/libmark3.a(driver.cpp.o)
 .group         0x0000000000000000        0x8 /home/vm/mark3/trunk/embedded/stage/lib/avr/atmega328p/gcc/libmark3.a(driver.cpp.o)
 .group         0x0000000000000000        0x8 /home/vm/mark3/trunk/embedded/stage/lib/avr/atmega328p/gcc/libmark3.a(driver.cpp.o)
 .group         0x0000000000000000        0x8 /home/vm/mark3/trunk/embedded/stage/lib/avr/atmega328p/gcc/libmark3.a(driver.cpp.o)
 .group         0x0000000000000000        0x8 /home/vm/mark3/trunk/embedded/stage/lib/avr/atmega328p/gcc/libmark3.a(driver.cpp.o)
 .group         0x0000000000000000        0x8 /home/vm/mark3/trunk/embedded/stage/lib/avr/atmega328p/gcc/libmark3.a(driver.cpp.o)
 .text          0x0000000000000000        0x0 /home/vm/mark3/trunk/embedded/stage/lib/avr/atmega328p/gcc/libmark3.a(driver.cpp.o)
 .text._ZN10DriverList10FindByPathEPKc
                0x0000000000000000       0x50 /home/vm/mark3/trunk/embedded/stage/lib/avr/atmega328p/gcc/libmark3.a(driver.cpp.o)
 .text          0x0000000000000000        0x0 /home/vm/mark3/trunk/embedded/stage/lib/avr/atmega328p/gcc/libmark3.a(quantum.cpp.o)
 .group         0x0000000000000000        0x8 /home/vm/mark3/trunk/embedded/stage/lib/avr/atmega328p/gcc/libmark3.a(scheduler.cpp.o)
 .text          0x0000000000000000        0x0 /home/vm/mark3/trunk/embedded/stage/lib/avr/atmega328p/gcc/libmark3.a(scheduler.cpp.o)
 .rodata._ZTV8LinkList
                0x0000000000000000        0x8 /home/vm/mark3/trunk/embedded/stage/lib/avr/atmega328p/gcc/libmark3.a(scheduler.cpp.o)
 .group         0x0000000000000000        0x8 /home/vm/mark3/trunk/embedded/stage/lib/avr/atmega328p/gcc/libheap.a(system_heap.cpp.o)
 .text          0x0000000000000000        0x0 /home/vm/mark3/trunk/embedded/stage/lib/avr/atmega328p/gcc/libheap.a(system_heap.cpp.o)
 .rodata._ZTV8LinkList
                0x0000000000000000        0x8 /home/vm/mark3/trunk/embedded/stage/lib/avr/atmega328p/gcc/libheap.a(system_heap.cpp.o)
 .text          0x0000000000000000        0x0 /home/vm/mark3/trunk/embedded/stage/lib/avr/atmega328p/gcc/libheap.a(fixed_heap.cpp.o)
 .bss           0x0000000000000000        0x0 /home/vm/mark3/trunk/embedded/stage/lib/avr/atmega328p/gcc/libheap.a(fixed_heap.cpp.o)
 .text          0x0000000000000000        0x0 /home/vm/mark3/trunk/embedded/stage/lib/avr/atmega328p/gcc/librandom.a(rand_lfsr.cpp.o)
 .bss           0x0000000000000000        0x0 /home/vm/mark3/trunk/embedded/stage/lib/avr/atmega328p/gcc/librandom.a(rand_lfsr.cpp.o)
 .group         0x0000000000000000        0x8 /home/vm/mark3/trunk/embedded/stage/lib/avr/atmega328p/gcc/libgraphics.a(graphics.cpp.o)
 .group         0x0000000000000000        0x8 /home/vm/mark3/trunk/embedded/stage/lib/avr/atmega328p/gcc/libgraphics.a(graphics.cpp.o)
 .group         0x0000000000000000        0x8 /home/vm/mark3/trunk/embedded/stage/lib/avr/atmega328p/gcc/libgraphics.a(graphics.cpp.o)
 .text          0x0000000000000000        0x0 /home/vm/mark3/trunk/embedded/stage/lib/avr/atmega328p/gcc/libgraphics.a(graphics.cpp.o)
 .bss           0x0000000000000000        0x0 /home/vm/mark3/trunk/embedded/stage/lib/avr/atmega328p/gcc/libgraphics.a(graphics.cpp.o)
 .text._ZN14GraphicsDriver9DrawPixelEP11DrawPoint_t
                0x0000000000000000        0x2 /home/vm/mark3/trunk/embedded/stage/lib/avr/atmega328p/gcc/libgraphics.a(graphics.cpp.o)
 .text._ZN14GraphicsDriver5PointEP11DrawPoint_t
                0x0000000000000000        0xe /home/vm/mark3/trunk/embedded/stage/lib/avr/atmega328p/gcc/libgraphics.a(graphics.cpp.o)
 .text._ZN14GraphicsDriver6TextFXEP10DrawText_tP8TextFX_t
                0x0000000000000000      0x330 /home/vm/mark3/trunk/embedded/stage/lib/avr/atmega328p/gcc/libgraphics.a(graphics.cpp.o)
 .rodata._ZTV14GraphicsDriver
                0x0000000000000000       0x30 /home/vm/mark3/trunk/embedded/stage/lib/avr/atmega328p/gcc/libgraphics.a(graphics.cpp.o)
 .text          0x0000000000000000        0x0 /home/vm/mark3/trunk/embedded/stage/lib/avr/atmega328p/gcc/libarial_10.a(arial_10.cpp.o)
 .bss           0x0000000000000000        0x0 /home/vm/mark3/trunk/embedded/stage/lib/avr/atmega328p/gcc/libarial_10.a(arial_10.cpp.o)
 .group         0x0000000000000000        0x8 /home/vm/mark3/trunk/embedded/stage/lib/avr/atmega328p/gcc/libdrvGraphicsFlavr.a(graphics_flavr.cpp.o)
 .group         0x0000000000000000        0x8 /home/vm/mark3/trunk/embedded/stage/lib/avr/atmega328p/gcc/libdrvGraphicsFlavr.a(graphics_flavr.cpp.o)
 .group         0x0000000000000000        0x8 /home/vm/mark3/trunk/embedded/stage/lib/avr/atmega328p/gcc/libdrvGraphicsFlavr.a(graphics_flavr.cpp.o)
 .group         0x0000000000000000        0x8 /home/vm/mark3/trunk/embedded/stage/lib/avr/atmega328p/gcc/libdrvGraphicsFlavr.a(graphics_flavr.cpp.o)
 .group         0x0000000000000000        0x8 /home/vm/mark3/trunk/embedded/stage/lib/avr/atmega328p/gcc/libdrvGraphicsFlavr.a(graphics_flavr.cpp.o)
 .group         0x0000000000000000        0x8 /home/vm/mark3/trunk/embedded/stage/lib/avr/atmega328p/gcc/libdrvGraphicsFlavr.a(graphics_flavr.cpp.o)
 .group         0x0000000000000000        0x8 /home/vm/mark3/trunk/embedded/stage/lib/avr/atmega328p/gcc/libdrvGraphicsFlavr.a(graphics_flavr.cpp.o)
 .group         0x0000000000000000        0x8 /home/vm/mark3/trunk/embedded/stage/lib/avr/atmega328p/gcc/libdrvGraphicsFlavr.a(graphics_flavr.cpp.o)
 .group         0x0000000000000000        0x8 /home/vm/mark3/trunk/embedded/stage/lib/avr/atmega328p/gcc/libdrvGraphicsFlavr.a(graphics_flavr.cpp.o)
 .text          0x0000000000000000        0x0 /home/vm/mark3/trunk/embedded/stage/lib/avr/atmega328p/gcc/libdrvGraphicsFlavr.a(graphics_flavr.cpp.o)
 .text._ZN14GraphicsDriver9ReadPixelEP11DrawPoint_t
                0x0000000000000000        0x2 /home/vm/mark3/trunk/embedded/stage/lib/avr/atmega328p/gcc/libdrvGraphicsFlavr.a(graphics_flavr.cpp.o)
 .text          0x0000000000000000        0x0 /home/vm/mark3/trunk/embedded/stage/lib/avr/atmega328p/gcc/libjoystick.a(joystick.cpp.o)
 .bss           0x0000000000000000        0x0 /home/vm/mark3/trunk/embedded/stage/lib/avr/atmega328p/gcc/libjoystick.a(joystick.cpp.o)
 .group         0x0000000000000000        0x8 /home/vm/mark3/trunk/embedded/stage/lib/avr/atmega328p/gcc/libdrvFlavrJoy.a(drvFlavrJoy.cpp.o)
 .group         0x0000000000000000        0x8 /home/vm/mark3/trunk/embedded/stage/lib/avr/atmega328p/gcc/libdrvFlavrJoy.a(drvFlavrJoy.cpp.o)
 .group         0x0000000000000000        0x8 /home/vm/mark3/trunk/embedded/stage/lib/avr/atmega328p/gcc/libdrvFlavrJoy.a(drvFlavrJoy.cpp.o)
 .group         0x0000000000000000        0x8 /home/vm/mark3/trunk/embedded/stage/lib/avr/atmega328p/gcc/libdrvFlavrJoy.a(drvFlavrJoy.cpp.o)
 .text          0x0000000000000000        0x0 /home/vm/mark3/trunk/embedded/stage/lib/avr/atmega328p/gcc/libdrvFlavrJoy.a(drvFlavrJoy.cpp.o)
 .text          0x0000000000000000        0x0 /home/vm/mark3/trunk/embedded/stage/lib/avr/atmega328p/gcc/libgui.a(gui.cpp.o)
 .bss           0x0000000000000000        0x0 /home/vm/mark3/trunk/embedded/stage/lib/avr/atmega328p/gcc/libgui.a(gui.cpp.o)
 .text._ZN15GuiEventSurface16FindWindowByNameEPKc
                0x0000000000000000       0x3c /home/vm/mark3/trunk/embedded/stage/lib/avr/atmega328p/gcc/libgui.a(gui.cpp.o)
 .text._ZN9GuiWindow16InvalidateRegionEjjjj
                0x0000000000000000      0x218 /home/vm/mark3/trunk/embedded/stage/lib/avr/atmega328p/gcc/libgui.a(gui.cpp.o)
 .text._ZN15GuiEventSurface16InvalidateRegionEjjjj
                0x0000000000000000       0x50 /home/vm/mark3/trunk/embedded/stage/lib/avr/atmega328p/gcc/libgui.a(gui.cpp.o)
 .text._ZN9GuiWindow13RemoveControlEP10GuiControl
                0x0000000000000000       0x4a /home/vm/mark3/trunk/embedded/stage/lib/avr/atmega328p/gcc/libgui.a(gui.cpp.o)
 .text._ZN15GuiEventSurface12RemoveWindowEP9GuiWindow
                0x0000000000000000        0x4 /home/vm/mark3/trunk/embedded/stage/lib/avr/atmega328p/gcc/libgui.a(gui.cpp.o)
 .group         0x0000000000000000        0x8 /home/vm/mark3/trunk/embedded/stage/lib/avr/atmega328p/gcc/libgui.a(control_brushpanel.cpp.o)
 .group         0x0000000000000000        0x8 /home/vm/mark3/trunk/embedded/stage/lib/avr/atmega328p/gcc/libgui.a(control_brushpanel.cpp.o)
 .group         0x0000000000000000        0x8 /home/vm/mark3/trunk/embedded/stage/lib/avr/atmega328p/gcc/libgui.a(control_brushpanel.cpp.o)
 .group         0x0000000000000000        0x8 /home/vm/mark3/trunk/embedded/stage/lib/avr/atmega328p/gcc/libgui.a(control_brushpanel.cpp.o)
 .text          0x0000000000000000        0x0 /home/vm/mark3/trunk/embedded/stage/lib/avr/atmega328p/gcc/libgui.a(control_brushpanel.cpp.o)
 .bss           0x0000000000000000        0x0 /home/vm/mark3/trunk/embedded/stage/lib/avr/atmega328p/gcc/libgui.a(control_brushpanel.cpp.o)
 .group         0x0000000000000000        0x8 /home/vm/mark3/trunk/embedded/stage/lib/avr/atmega328p/gcc/libgui.a(control_button.cpp.o)
 .text          0x0000000000000000        0x0 /home/vm/mark3/trunk/embedded/stage/lib/avr/atmega328p/gcc/libgui.a(control_button.cpp.o)
 .bss           0x0000000000000000        0x0 /home/vm/mark3/trunk/embedded/stage/lib/avr/atmega328p/gcc/libgui.a(control_button.cpp.o)
 .group         0x0000000000000000        0x8 /home/vm/mark3/trunk/embedded/stage/lib/avr/atmega328p/gcc/libgui.a(control_checkbox.cpp.o)
 .group         0x0000000000000000        0x8 /home/vm/mark3/trunk/embedded/stage/lib/avr/atmega328p/gcc/libgui.a(control_checkbox.cpp.o)
 .text          0x0000000000000000        0x0 /home/vm/mark3/trunk/embedded/stage/lib/avr/atmega328p/gcc/libgui.a(control_checkbox.cpp.o)
 .bss           0x0000000000000000        0x0 /home/vm/mark3/trunk/embedded/stage/lib/avr/atmega328p/gcc/libgui.a(control_checkbox.cpp.o)
 .group         0x0000000000000000        0x8 /home/vm/mark3/trunk/embedded/stage/lib/avr/atmega328p/gcc/libgui.a(control_groupbox.cpp.o)
 .group         0x0000000000000000        0x8 /home/vm/mark3/trunk/embedded/stage/lib/avr/atmega328p/gcc/libgui.a(control_groupbox.cpp.o)
 .group         0x0000000000000000        0x8 /home/vm/mark3/trunk/embedded/stage/lib/avr/atmega328p/gcc/libgui.a(control_groupbox.cpp.o)
 .text          0x0000000000000000        0x0 /home/vm/mark3/trunk/embedded/stage/lib/avr/atmega328p/gcc/libgui.a(control_groupbox.cpp.o)
 .bss           0x0000000000000000        0x0 /home/vm/mark3/trunk/embedded/stage/lib/avr/atmega328p/gcc/libgui.a(control_groupbox.cpp.o)
 .group         0x0000000000000000        0x8 /home/vm/mark3/trunk/embedded/stage/lib/avr/atmega328p/gcc/libgui.a(control_label.cpp.o)
 .group         0x0000000000000000        0x8 /home/vm/mark3/trunk/embedded/stage/lib/avr/atmega328p/gcc/libgui.a(control_label.cpp.o)
 .group         0x0000000000000000        0x8 /home/vm/mark3/trunk/embedded/stage/lib/avr/atmega328p/gcc/libgui.a(control_label.cpp.o)
 .text          0x0000000000000000        0x0 /home/vm/mark3/trunk/embedded/stage/lib/avr/atmega328p/gcc/libgui.a(control_label.cpp.o)
 .bss           0x0000000000000000        0x0 /home/vm/mark3/trunk/embedded/stage/lib/avr/atmega328p/gcc/libgui.a(control_label.cpp.o)
 .group         0x0000000000000000        0x8 /home/vm/mark3/trunk/embedded/stage/lib/avr/atmega328p/gcc/libgui.a(control_progress.cpp.o)
 .group         0x0000000000000000        0x8 /home/vm/mark3/trunk/embedded/stage/lib/avr/atmega328p/gcc/libgui.a(control_progress.cpp.o)
 .text          0x0000000000000000        0x0 /home/vm/mark3/trunk/embedded/stage/lib/avr/atmega328p/gcc/libgui.a(control_progress.cpp.o)
 .bss           0x0000000000000000        0x0 /home/vm/mark3/trunk/embedded/stage/lib/avr/atmega328p/gcc/libgui.a(control_progress.cpp.o)
 .group         0x0000000000000000        0x8 /home/vm/mark3/trunk/embedded/stage/lib/avr/atmega328p/gcc/libgui.a(control_sevenseg.cpp.o)
 .group         0x0000000000000000        0x8 /home/vm/mark3/trunk/embedded/stage/lib/avr/atmega328p/gcc/libgui.a(control_sevenseg.cpp.o)
 .text          0x0000000000000000        0x0 /home/vm/mark3/trunk/embedded/stage/lib/avr/atmega328p/gcc/libgui.a(control_sevenseg.cpp.o)
 .bss           0x0000000000000000        0x0 /home/vm/mark3/trunk/embedded/stage/lib/avr/atmega328p/gcc/libgui.a(control_sevenseg.cpp.o)
 .text          0x0000000000000000        0x0 /usr/lib/gcc/avr/4.8.2/avr5/libgcc.a(_umulhisi3.o)
 .bss           0x0000000000000000        0x0 /usr/lib/gcc/avr/4.8.2/avr5/libgcc.a(_umulhisi3.o)
 .text.libgcc.div
                0x0000000000000000        0x0 /usr/lib/gcc/avr/4.8.2/avr5/libgcc.a(_umulhisi3.o)
 .text.libgcc   0x0000000000000000        0x0 /usr/lib/gcc/avr/4.8.2/avr5/libgcc.a(_umulhisi3.o)
 .text.libgcc.prologue
                0x0000000000000000        0x0 /usr/lib/gcc/avr/4.8.2/avr5/libgcc.a(_umulhisi3.o)
 .text.libgcc.builtins
                0x0000000000000000        0x0 /usr/lib/gcc/avr/4.8.2/avr5/libgcc.a(_umulhisi3.o)
 .text.libgcc.fmul
                0x0000000000000000        0x0 /usr/lib/gcc/avr/4.8.2/avr5/libgcc.a(_umulhisi3.o)
 .text.libgcc.fixed
                0x0000000000000000        0x0 /usr/lib/gcc/avr/4.8.2/avr5/libgcc.a(_umulhisi3.o)
 .text          0x0000000000000000        0x0 /usr/lib/gcc/avr/4.8.2/avr5/libgcc.a(_muluhisi3.o)
 .bss           0x0000000000000000        0x0 /usr/lib/gcc/avr/4.8.2/avr5/libgcc.a(_muluhisi3.o)
 .text.libgcc.div
                0x0000000000000000        0x0 /usr/lib/gcc/avr/4.8.2/avr5/libgcc.a(_muluhisi3.o)
 .text.libgcc   0x0000000000000000        0x0 /usr/lib/gcc/avr/4.8.2/avr5/libgcc.a(_muluhisi3.o)
 .text.libgcc.prologue
                0x0000000000000000        0x0 /usr/lib/gcc/avr/4.8.2/avr5/libgcc.a(_muluhisi3.o)
 .text.libgcc.builtins
                0x0000000000000000        0x0 /usr/lib/gcc/avr/4.8.2/avr5/libgcc.a(_muluhisi3.o)
 .text.libgcc.fmul
                0x0000000000000000        0x0 /usr/lib/gcc/avr/4.8.2/avr5/libgcc.a(_muluhisi3.o)
 .text.libgcc.fixed
                0x0000000000000000        0x0 /usr/lib/gcc/avr/4.8.2/avr5/libgcc.a(_muluhisi3.o)
 .text          0x0000000000000000        0x0 /usr/lib/gcc/avr/4.8.2/avr5/libgcc.a(_mulsi3.o)
 .bss           0x0000000000000000        0x0 /usr/lib/gcc/avr/4.8.2/avr5/libgcc.a(_mulsi3.o)
 .text.libgcc.div
                0x0000000000000000        0x0 /usr/lib/gcc/avr/4.8.2/avr5/libgcc.a(_mulsi3.o)
 .text.libgcc   0x0000000000000000        0x0 /usr/lib/gcc/avr/4.8.2/avr5/libgcc.a(_mulsi3.o)
 .text.libgcc.prologue
                0x0000000000000000        0x0 /usr/lib/gcc/avr/4.8.2/avr5/libgcc.a(_mulsi3.o)
 .text.libgcc.builtins
                0x0000000000000000        0x0 /usr/lib/gcc/avr/4.8.2/avr5/libgcc.a(_mulsi3.o)
 .text.libgcc.fmul
                0x0000000000000000        0x0 /usr/lib/gcc/avr/4.8.2/avr5/libgcc.a(_mulsi3.o)
 .text.libgcc.fixed
                0x0000000000000000        0x0 /usr/lib/gcc/avr/4.8.2/avr5/libgcc.a(_mulsi3.o)
 .text          0x0000000000000000        0x0 /usr/lib/gcc/avr/4.8.2/avr5/libgcc.a(_udivmodhi4.o)
 .bss           0x0000000000000000        0x0 /usr/lib/gcc/avr/4.8.2/avr5/libgcc.a(_udivmodhi4.o)
 .text.libgcc.mul
                0x0000000000000000        0x0 /usr/lib/gcc/avr/4.8.2/avr5/libgcc.a(_udivmodhi4.o)
 .text.libgcc   0x0000000000000000        0x0 /usr/lib/gcc/avr/4.8.2/avr5/libgcc.a(_udivmodhi4.o)
 .text.libgcc.prologue
                0x0000000000000000        0x0 /usr/lib/gcc/avr/4.8.2/avr5/libgcc.a(_udivmodhi4.o)
 .text.libgcc.builtins
                0x0000000000000000        0x0 /usr/lib/gcc/avr/4.8.2/avr5/libgcc.a(_udivmodhi4.o)
 .text.libgcc.fmul
                0x0000000000000000        0x0 /usr/lib/gcc/avr/4.8.2/avr5/libgcc.a(_udivmodhi4.o)
 .text.libgcc.fixed
                0x0000000000000000        0x0 /usr/lib/gcc/avr/4.8.2/avr5/libgcc.a(_udivmodhi4.o)
 .text          0x0000000000000000        0x0 /usr/lib/gcc/avr/4.8.2/avr5/libgcc.a(_udivmodsi4.o)
 .bss           0x0000000000000000        0x0 /usr/lib/gcc/avr/4.8.2/avr5/libgcc.a(_udivmodsi4.o)
 .text.libgcc.mul
                0x0000000000000000        0x0 /usr/lib/gcc/avr/4.8.2/avr5/libgcc.a(_udivmodsi4.o)
 .text.libgcc   0x0000000000000000        0x0 /usr/lib/gcc/avr/4.8.2/avr5/libgcc.a(_udivmodsi4.o)
 .text.libgcc.prologue
                0x0000000000000000        0x0 /usr/lib/gcc/avr/4.8.2/avr5/libgcc.a(_udivmodsi4.o)
 .text.libgcc.builtins
                0x0000000000000000        0x0 /usr/lib/gcc/avr/4.8.2/avr5/libgcc.a(_udivmodsi4.o)
 .text.libgcc.fmul
                0x0000000000000000        0x0 /usr/lib/gcc/avr/4.8.2/avr5/libgcc.a(_udivmodsi4.o)
 .text.libgcc.fixed
                0x0000000000000000        0x0 /usr/lib/gcc/avr/4.8.2/avr5/libgcc.a(_udivmodsi4.o)
 .text          0x0000000000000000        0x0 /usr/lib/gcc/avr/4.8.2/avr5/libgcc.a(_exit.o)
 .bss           0x0000000000000000        0x0 /usr/lib/gcc/avr/4.8.2/avr5/libgcc.a(_exit.o)
 .text.libgcc.mul
                0x0000000000000000        0x0 /usr/lib/gcc/avr/4.8.2/avr5/libgcc.a(_exit.o)
 .text.libgcc.div
                0x0000000000000000        0x0 /usr/lib/gcc/avr/4.8.2/avr5/libgcc.a(_exit.o)
 .text.libgcc   0x0000000000000000        0x0 /usr/lib/gcc/avr/4.8.2/avr5/libgcc.a(_exit.o)
 .text.libgcc.prologue
                0x0000000000000000        0x0 /usr/lib/gcc/avr/4.8.2/avr5/libgcc.a(_exit.o)
 .text.libgcc.builtins
                0x0000000000000000        0x0 /usr/lib/gcc/avr/4.8.2/avr5/libgcc.a(_exit.o)
 .text.libgcc.fmul
                0x0000000000000000        0x0 /usr/lib/gcc/avr/4.8.2/avr5/libgcc.a(_exit.o)
 .text.libgcc.fixed
                0x0000000000000000        0x0 /usr/lib/gcc/avr/4.8.2/avr5/libgcc.a(_exit.o)
 .text          0x0000000000000000        0x0 /usr/lib/gcc/avr/4.8.2/avr5/libgcc.a(_copy_data.o)
 .bss           0x0000000000000000        0x0 /usr/lib/gcc/avr/4.8.2/avr5/libgcc.a(_copy_data.o)
 .text.libgcc.mul
                0x0000000000000000        0x0 /usr/lib/gcc/avr/4.8.2/avr5/libgcc.a(_copy_data.o)
 .text.libgcc.div
                0x0000000000000000        0x0 /usr/lib/gcc/avr/4.8.2/avr5/libgcc.a(_copy_data.o)
 .text.libgcc   0x0000000000000000        0x0 /usr/lib/gcc/avr/4.8.2/avr5/libgcc.a(_copy_data.o)
 .text.libgcc.prologue
                0x0000000000000000        0x0 /usr/lib/gcc/avr/4.8.2/avr5/libgcc.a(_copy_data.o)
 .text.libgcc.builtins
                0x0000000000000000        0x0 /usr/lib/gcc/avr/4.8.2/avr5/libgcc.a(_copy_data.o)
 .text.libgcc.fmul
                0x0000000000000000        0x0 /usr/lib/gcc/avr/4.8.2/avr5/libgcc.a(_copy_data.o)
 .text.libgcc.fixed
                0x0000000000000000        0x0 /usr/lib/gcc/avr/4.8.2/avr5/libgcc.a(_copy_data.o)
 .text          0x0000000000000000        0x0 /usr/lib/gcc/avr/4.8.2/avr5/libgcc.a(_clear_bss.o)
 .bss           0x0000000000000000        0x0 /usr/lib/gcc/avr/4.8.2/avr5/libgcc.a(_clear_bss.o)
 .text.libgcc.mul
                0x0000000000000000        0x0 /usr/lib/gcc/avr/4.8.2/avr5/libgcc.a(_clear_bss.o)
 .text.libgcc.div
                0x0000000000000000        0x0 /usr/lib/gcc/avr/4.8.2/avr5/libgcc.a(_clear_bss.o)
 .text.libgcc   0x0000000000000000        0x0 /usr/lib/gcc/avr/4.8.2/avr5/libgcc.a(_clear_bss.o)
 .text.libgcc.prologue
                0x0000000000000000        0x0 /usr/lib/gcc/avr/4.8.2/avr5/libgcc.a(_clear_bss.o)
 .text.libgcc.builtins
                0x0000000000000000        0x0 /usr/lib/gcc/avr/4.8.2/avr5/libgcc.a(_clear_bss.o)
 .text.libgcc.fmul
                0x0000000000000000        0x0 /usr/lib/gcc/avr/4.8.2/avr5/libgcc.a(_clear_bss.o)
 .text.libgcc.fixed
                0x0000000000000000        0x0 /usr/lib/gcc/avr/4.8.2/avr5/libgcc.a(_clear_bss.o)
 .text          0x0000000000000000        0x0 /usr/lib/gcc/avr/4.8.2/avr5/libgcc.a(_ctors.o)
 .bss           0x0000000000000000        0x0 /usr/lib/gcc/avr/4.8.2/avr5/libgcc.a(_ctors.o)
 .text.libgcc.mul
                0x0000000000000000        0x0 /usr/lib/gcc/avr/4.8.2/avr5/libgcc.a(_ctors.o)
 .text.libgcc.div
                0x0000000000000000        0x0 /usr/lib/gcc/avr/4.8.2/avr5/libgcc.a(_ctors.o)
 .text.libgcc   0x0000000000000000        0x0 /usr/lib/gcc/avr/4.8.2/avr5/libgcc.a(_ctors.o)
 .text.libgcc.prologue
                0x0000000000000000        0x0 /usr/lib/gcc/avr/4.8.2/avr5/libgcc.a(_ctors.o)
 .text.libgcc.builtins
                0x0000000000000000        0x0 /usr/lib/gcc/avr/4.8.2/avr5/libgcc.a(_ctors.o)
 .text.libgcc.fmul
                0x0000000000000000        0x0 /usr/lib/gcc/avr/4.8.2/avr5/libgcc.a(_ctors.o)
 .text.libgcc.fixed
                0x0000000000000000        0x0 /usr/lib/gcc/avr/4.8.2/avr5/libgcc.a(_ctors.o)
 .text          0x0000000000000000        0x0 /usr/lib/gcc/avr/4.8.2/avr5/libgcc.a(_tablejump.o)
 .bss           0x0000000000000000        0x0 /usr/lib/gcc/avr/4.8.2/avr5/libgcc.a(_tablejump.o)
 .text.libgcc.mul
                0x0000000000000000        0x0 /usr/lib/gcc/avr/4.8.2/avr5/libgcc.a(_tablejump.o)
 .text.libgcc.div
                0x0000000000000000        0x0 /usr/lib/gcc/avr/4.8.2/avr5/libgcc.a(_tablejump.o)
 .text.libgcc.prologue
                0x0000000000000000        0x0 /usr/lib/gcc/avr/4.8.2/avr5/libgcc.a(_tablejump.o)
 .text.libgcc.builtins
                0x0000000000000000        0x0 /usr/lib/gcc/avr/4.8.2/avr5/libgcc.a(_tablejump.o)
 .text.libgcc.fmul
                0x0000000000000000        0x0 /usr/lib/gcc/avr/4.8.2/avr5/libgcc.a(_tablejump.o)
 .text.libgcc.fixed
                0x0000000000000000        0x0 /usr/lib/gcc/avr/4.8.2/avr5/libgcc.a(_tablejump.o)

Memory Configuration

Name             Origin             Length             Attributes
text             0x0000000000000000 0x0000000000020000 xr
data             0x0000000000800060 0x000000000000ffa0 rw !x
eeprom           0x0000000000810000 0x0000000000010000 rw !x
fuse             0x0000000000820000 0x0000000000000400 rw !x
lock             0x0000000000830000 0x0000000000000400 rw !x
signature        0x0000000000840000 0x0000000000000400 rw !x
user_signatures  0x0000000000850000 0x0000000000000400 rw !x
*default*        0x0000000000000000 0xffffffffffffffff

Linker script and memory map

Address of section .data set to 0x800100
LOAD /usr/lib/gcc/avr/4.8.2/../../../avr/lib/avr5/crtm328p.o
START GROUP
LOAD /usr/lib/gcc/avr/4.8.2/../../../avr/lib/avr5/libm.a
END GROUP
LOAD ./obj/avr/atmega328p/gcc/main.cpp.o
LOAD /home/vm/mark3/trunk/embedded/stage/lib/avr/atmega328p/gcc/libmark3.a
LOAD /home/vm/mark3/trunk/embedded/stage/lib/avr/atmega328p/gcc/libheap.a
LOAD /home/vm/mark3/trunk/embedded/stage/lib/avr/atmega328p/gcc/librandom.a
LOAD /home/vm/mark3/trunk/embedded/stage/lib/avr/atmega328p/gcc/libgraphics.a
LOAD /home/vm/mark3/trunk/embedded/stage/lib/avr/atmega328p/gcc/libarial_10.a
LOAD /home/vm/mark3/trunk/embedded/stage/lib/avr/atmega328p/gcc/libdrvGraphicsFlavr.a
LOAD /home/vm/mark3/trunk/embedded/stage/lib/avr/atmega328p/gcc/libjoystick.a
LOAD /home/vm/mark3/trunk/embedded/stage/lib/avr/atmega328p/gcc/libdrvFlavrJoy.a
LOAD /home/vm/mark3/trunk/embedded/stage/lib/avr/atmega328p/gcc/libgui.a
START GROUP
LOAD /usr/lib/gcc/avr/4.8.2/avr5/libgcc.a
LOAD /usr/lib/gcc/avr/4.8.2/../../../avr/lib/avr5/libm.a
LOAD /usr/lib/gcc/avr/4.8.2/../../../avr/lib/avr5/libc.a
END GROUP

.hash
 *(.hash)

.dynsym
 *(.dynsym)

.dynstr
 *(.dynstr)

.gnu.version
 *(.gnu.version)

.gnu.version_d
 *(.gnu.version_d)

.gnu.version_r
 *(.gnu.version_r)

.rel.init
 *(.rel.init)

.rela.init
 *(.rela.init)

.rel.text
 *(.rel.text)
 *(.rel.text.*)
 *(.rel.gnu.linkonce.t*)

.rela.text
 *(.rela.text)
 *(.rela.text.*)
 *(.rela.gnu.linkonce.t*)

.rel.fini
 *(.rel.fini)

.rela.fini
 *(.rela.fini)

.rel.rodata
 *(.rel.rodata)
 *(.rel.rodata.*)
 *(.rel.gnu.linkonce.r*)

.rela.rodata
 *(.rela.rodata)
 *(.rela.rodata.*)
 *(.rela.gnu.linkonce.r*)

.rel.data
 *(.rel.data)
 *(.rel.data.*)
 *(.rel.gnu.linkonce.d*)

.rela.data
 *(.rela.data)
 *(.rela.data.*)
 *(.rela.gnu.linkonce.d*)

.rel.ctors
 *(.rel.ctors)

.rela.ctors
 *(.rela.ctors)

.rel.dtors
 *(.rel.dtors)

.rela.dtors
 *(.rela.dtors)

.rel.got
 *(.rel.got)

.rela.got
 *(.rela.got)

.rel.bss
 *(.rel.bss)

.rela.bss
 *(.rela.bss)

.rel.plt
 *(.rel.plt)

.rela.plt
 *(.rela.plt)

.text           0x0000000000000000     0x61f8
 *(.vectors)
 .vectors       0x0000000000000000       0x68 /usr/lib/gcc/avr/4.8.2/../../../avr/lib/avr5/crtm328p.o
                0x0000000000000000                __vectors
                0x0000000000000000                __vector_default
 *(.vectors)
 *(.progmem.gcc*)
 *(.progmem*)
 .progmem.data  0x0000000000000068      0xb84 /home/vm/mark3/trunk/embedded/stage/lib/avr/atmega328p/gcc/libarial_10.a(arial_10.cpp.o)
                0x0000000000000bec                . = ALIGN (0x2)
                0x0000000000000bec                __trampolines_start = .
 *(.trampolines)
 .trampolines   0x0000000000000bec        0x0 linker stubs
 *(.trampolines*)
                0x0000000000000bec                __trampolines_end = .
 *(.jumptables)
 *(.jumptables*)
 *(.lowtext)
 *(.lowtext*)
                0x0000000000000bec                __ctors_start = .
 *(.ctors)
 .ctors         0x0000000000000bec        0x2 ./obj/avr/atmega328p/gcc/main.cpp.o
 .ctors         0x0000000000000bee        0x2 /home/vm/mark3/trunk/embedded/stage/lib/avr/atmega328p/gcc/libmark3.a(message.cpp.o)
 .ctors         0x0000000000000bf0        0x2 /home/vm/mark3/trunk/embedded/stage/lib/avr/atmega328p/gcc/libmark3.a(timerlist.cpp.o)
 .ctors         0x0000000000000bf2        0x2 /home/vm/mark3/trunk/embedded/stage/lib/avr/atmega328p/gcc/libmark3.a(driver.cpp.o)
 .ctors         0x0000000000000bf4        0x2 /home/vm/mark3/trunk/embedded/stage/lib/avr/atmega328p/gcc/libmark3.a(scheduler.cpp.o)
 .ctors         0x0000000000000bf6        0x2 /home/vm/mark3/trunk/embedded/stage/lib/avr/atmega328p/gcc/libheap.a(system_heap.cpp.o)
                0x0000000000000bf8                __ctors_end = .
                0x0000000000000bf8                __dtors_start = .
 *(.dtors)
                0x0000000000000bf8                __dtors_end = .
 SORT(*)(.ctors)
 SORT(*)(.dtors)
 *(.init0)
 .init0         0x0000000000000bf8        0x0 /usr/lib/gcc/avr/4.8.2/../../../avr/lib/avr5/crtm328p.o
                0x0000000000000bf8                __init
 *(.init0)
 *(.init1)
 *(.init1)
 *(.init2)
 .init2         0x0000000000000bf8        0xc /usr/lib/gcc/avr/4.8.2/../../../avr/lib/avr5/crtm328p.o
 *(.init2)
 *(.init3)
 *(.init3)
 *(.init4)
 .init4         0x0000000000000c04       0x16 /usr/lib/gcc/avr/4.8.2/avr5/libgcc.a(_copy_data.o)
                0x0000000000000c04                __do_copy_data
 .init4         0x0000000000000c1a       0x10 /usr/lib/gcc/avr/4.8.2/avr5/libgcc.a(_clear_bss.o)
                0x0000000000000c1a                __do_clear_bss
 *(.init4)
 *(.init5)
 *(.init5)
 *(.init6)
 .init6         0x0000000000000c2a       0x16 /usr/lib/gcc/avr/4.8.2/avr5/libgcc.a(_ctors.o)
                0x0000000000000c2a                __do_global_ctors
 *(.init6)
 *(.init7)
 *(.init7)
 *(.init8)
 *(.init8)
 *(.init9)
 .init9         0x0000000000000c40        0x8 /usr/lib/gcc/avr/4.8.2/../../../avr/lib/avr5/crtm328p.o
 *(.init9)
 *(.text)
 .text          0x0000000000000c48        0x4 /usr/lib/gcc/avr/4.8.2/../../../avr/lib/avr5/crtm328p.o
                0x0000000000000c48                __vector_22
                0x0000000000000c48                __vector_24
                0x0000000000000c48                __vector_12
                0x0000000000000c48                __bad_interrupt
                0x0000000000000c48                __vector_6
                0x0000000000000c48                __vector_3
                0x0000000000000c48                __vector_23
                0x0000000000000c48                __vector_25
                0x0000000000000c48                __vector_13
                0x0000000000000c48                __vector_17
                0x0000000000000c48                __vector_19
                0x0000000000000c48                __vector_7
                0x0000000000000c48                __vector_5
                0x0000000000000c48                __vector_4
                0x0000000000000c48                __vector_9
                0x0000000000000c48                __vector_2
                0x0000000000000c48                __vector_21
                0x0000000000000c48                __vector_15
                0x0000000000000c48                __vector_8
                0x0000000000000c48                __vector_14
                0x0000000000000c48                __vector_10
                0x0000000000000c48                __vector_18
                0x0000000000000c48                __vector_20
                0x0000000000000c4c                . = ALIGN (0x2)
 *(.text.*)
 .text._ZL17CheckBox2Callbackb
                0x0000000000000c4c       0x32 ./obj/avr/atmega328p/gcc/main.cpp.o
 .text._ZL17CheckBox1Callbackb
                0x0000000000000c7e       0x32 ./obj/avr/atmega328p/gcc/main.cpp.o
 .text._ZL17TickTimerCallbackP6ThreadPv
                0x0000000000000cb0       0x80 ./obj/avr/atmega328p/gcc/main.cpp.o
 .text._ZL16JoyTimerCallbackP6ThreadPv
                0x0000000000000d30       0x70 ./obj/avr/atmega328p/gcc/main.cpp.o
 .text._ZL16MyButtonCallbackPv
                0x0000000000000da0       0x26 ./obj/avr/atmega328p/gcc/main.cpp.o
 .text._ZL7AppMainPv
                0x0000000000000dc6      0x594 ./obj/avr/atmega328p/gcc/main.cpp.o
 .text.startup.main
                0x000000000000135a       0x40 ./obj/avr/atmega328p/gcc/main.cpp.o
                0x000000000000135a                main
 .text.startup._GLOBAL__sub_I_clAppThread
                0x000000000000139a       0xea ./obj/avr/atmega328p/gcc/main.cpp.o
 .text._ZN14DoubleLinkList3AddEP12LinkListNode
                0x0000000000001484       0x50 /home/vm/mark3/trunk/embedded/stage/lib/avr/atmega328p/gcc/libmark3.a(ll.cpp.o)
                0x0000000000001484                _ZN14DoubleLinkList3AddEP12LinkListNode
 .text._ZN14DoubleLinkList6RemoveEP12LinkListNode
                0x00000000000014d4       0x64 /home/vm/mark3/trunk/embedded/stage/lib/avr/atmega328p/gcc/libmark3.a(ll.cpp.o)
                0x00000000000014d4                _ZN14DoubleLinkList6RemoveEP12LinkListNode
 .text._ZN16CircularLinkList3AddEP12LinkListNode
                0x0000000000001538       0x5e /home/vm/mark3/trunk/embedded/stage/lib/avr/atmega328p/gcc/libmark3.a(ll.cpp.o)
                0x0000000000001538                _ZN16CircularLinkList3AddEP12LinkListNode
 .text._ZN16CircularLinkList6RemoveEP12LinkListNode
                0x0000000000001596       0x7a /home/vm/mark3/trunk/embedded/stage/lib/avr/atmega328p/gcc/libmark3.a(ll.cpp.o)
                0x0000000000001596                _ZN16CircularLinkList6RemoveEP12LinkListNode
 .text._ZN12LinkListNode9ClearNodeEv
                0x0000000000001610        0xc /home/vm/mark3/trunk/embedded/stage/lib/avr/atmega328p/gcc/libmark3.a(ll.cpp.o)
                0x0000000000001610                _ZN12LinkListNode9ClearNodeEv
 .text._ZN16CircularLinkList12PivotForwardEv
                0x000000000000161c       0x20 /home/vm/mark3/trunk/embedded/stage/lib/avr/atmega328p/gcc/libmark3.a(ll.cpp.o)
                0x000000000000161c                _ZN16CircularLinkList12PivotForwardEv
 .text._ZN17GlobalMessagePool4InitEv
                0x000000000000163c       0x40 /home/vm/mark3/trunk/embedded/stage/lib/avr/atmega328p/gcc/libmark3.a(message.cpp.o)
                0x000000000000163c                _ZN17GlobalMessagePool4InitEv
 .text._ZN17GlobalMessagePool4PushEP7Message
                0x000000000000167c       0x26 /home/vm/mark3/trunk/embedded/stage/lib/avr/atmega328p/gcc/libmark3.a(message.cpp.o)
                0x000000000000167c                _ZN17GlobalMessagePool4PushEP7Message
 .text._ZN17GlobalMessagePool3PopEv
                0x00000000000016a2       0x3e /home/vm/mark3/trunk/embedded/stage/lib/avr/atmega328p/gcc/libmark3.a(message.cpp.o)
                0x00000000000016a2                _ZN17GlobalMessagePool3PopEv
 .text._ZN12MessageQueue4InitEv
                0x00000000000016e0        0xc /home/vm/mark3/trunk/embedded/stage/lib/avr/atmega328p/gcc/libmark3.a(message.cpp.o)
                0x00000000000016e0                _ZN12MessageQueue4InitEv
 .text._ZN12MessageQueue9Receive_iEm
                0x00000000000016ec       0x4e /home/vm/mark3/trunk/embedded/stage/lib/avr/atmega328p/gcc/libmark3.a(message.cpp.o)
                0x00000000000016ec                _ZN12MessageQueue9Receive_iEm
 .text._ZN12MessageQueue7ReceiveEv
                0x000000000000173a        0xa /home/vm/mark3/trunk/embedded/stage/lib/avr/atmega328p/gcc/libmark3.a(message.cpp.o)
                0x000000000000173a                _ZN12MessageQueue7ReceiveEv
 .text._ZN12MessageQueue4SendEP7Message
                0x0000000000001744       0x34 /home/vm/mark3/trunk/embedded/stage/lib/avr/atmega328p/gcc/libmark3.a(message.cpp.o)
                0x0000000000001744                _ZN12MessageQueue4SendEP7Message
 .text.startup._GLOBAL__sub_I__ZN17GlobalMessagePool16m_aclMessagePoolE
                0x0000000000001778       0x1e /home/vm/mark3/trunk/embedded/stage/lib/avr/atmega328p/gcc/libmark3.a(message.cpp.o)
 .text._Z23TimedSemaphore_CallbackP6ThreadPv
                0x0000000000001796       0x40 /home/vm/mark3/trunk/embedded/stage/lib/avr/atmega328p/gcc/libmark3.a(ksemaphore.cpp.o)
                0x0000000000001796                _Z23TimedSemaphore_CallbackP6ThreadPv
 .text._ZN9Semaphore8WakeNextEv
                0x00000000000017d6       0x36 /home/vm/mark3/trunk/embedded/stage/lib/avr/atmega328p/gcc/libmark3.a(ksemaphore.cpp.o)
                0x00000000000017d6                _ZN9Semaphore8WakeNextEv
 .text._ZN9Semaphore4InitEjj
                0x000000000000180c       0x14 /home/vm/mark3/trunk/embedded/stage/lib/avr/atmega328p/gcc/libmark3.a(ksemaphore.cpp.o)
                0x000000000000180c                _ZN9Semaphore4InitEjj
 .text._ZN9Semaphore4PostEv
                0x0000000000001820       0x68 /home/vm/mark3/trunk/embedded/stage/lib/avr/atmega328p/gcc/libmark3.a(ksemaphore.cpp.o)
                0x0000000000001820                _ZN9Semaphore4PostEv
 .text._ZN9Semaphore6Pend_iEm
                0x0000000000001888       0xf6 /home/vm/mark3/trunk/embedded/stage/lib/avr/atmega328p/gcc/libmark3.a(ksemaphore.cpp.o)
                0x0000000000001888                _ZN9Semaphore6Pend_iEm
 .text._ZN9Semaphore4PendEm
                0x000000000000197e        0x4 /home/vm/mark3/trunk/embedded/stage/lib/avr/atmega328p/gcc/libmark3.a(ksemaphore.cpp.o)
                0x000000000000197e                _ZN9Semaphore4PendEm
 .text._ZN6Thread4InitEPhjhPFvPvES1_
                0x0000000000001982       0xea /home/vm/mark3/trunk/embedded/stage/lib/avr/atmega328p/gcc/libmark3.a(thread.cpp.o)
                0x0000000000001982                _ZN6Thread4InitEPhjhPFvPvES1_
 .text._ZN6Thread16ContextSwitchSWIEv
                0x0000000000001a6c        0xc /home/vm/mark3/trunk/embedded/stage/lib/avr/atmega328p/gcc/libmark3.a(thread.cpp.o)
                0x0000000000001a6c                _ZN6Thread16ContextSwitchSWIEv
 .text._ZN6Thread5YieldEv
                0x0000000000001a78       0x5a /home/vm/mark3/trunk/embedded/stage/lib/avr/atmega328p/gcc/libmark3.a(thread.cpp.o)
                0x0000000000001a78                _ZN6Thread5YieldEv
 .text._ZN6Thread5StartEv
                0x0000000000001ad2       0xa0 /home/vm/mark3/trunk/embedded/stage/lib/avr/atmega328p/gcc/libmark3.a(thread.cpp.o)
                0x0000000000001ad2                _ZN6Thread5StartEv
 .text._ZN6Thread10SetExpiredEb
                0x0000000000001b72        0x6 /home/vm/mark3/trunk/embedded/stage/lib/avr/atmega328p/gcc/libmark3.a(thread.cpp.o)
                0x0000000000001b72                _ZN6Thread10SetExpiredEb
 .text._ZN6Thread10GetExpiredEv
                0x0000000000001b78        0x6 /home/vm/mark3/trunk/embedded/stage/lib/avr/atmega328p/gcc/libmark3.a(thread.cpp.o)
                0x0000000000001b78                _ZN6Thread10GetExpiredEv
 .text._ZN6Thread8InitIdleEv
                0x0000000000001b7e       0x24 /home/vm/mark3/trunk/embedded/stage/lib/avr/atmega328p/gcc/libmark3.a(thread.cpp.o)
                0x0000000000001b7e                _ZN6Thread8InitIdleEv
 .text._ZN10ThreadList11SetPriorityEh
                0x0000000000001ba2        0x6 /home/vm/mark3/trunk/embedded/stage/lib/avr/atmega328p/gcc/libmark3.a(threadlist.cpp.o)
                0x0000000000001ba2                _ZN10ThreadList11SetPriorityEh
 .text._ZN10ThreadList14SetFlagPointerEPh
                0x0000000000001ba8        0x8 /home/vm/mark3/trunk/embedded/stage/lib/avr/atmega328p/gcc/libmark3.a(threadlist.cpp.o)
                0x0000000000001ba8                _ZN10ThreadList14SetFlagPointerEPh
 .text._ZN10ThreadList13HighestWaiterEv
                0x0000000000001bb0       0x34 /home/vm/mark3/trunk/embedded/stage/lib/avr/atmega328p/gcc/libmark3.a(threadlist.cpp.o)
                0x0000000000001bb0                _ZN10ThreadList13HighestWaiterEv
 .text._ZN10ThreadList3AddEP12LinkListNode
                0x0000000000001be4       0x34 /home/vm/mark3/trunk/embedded/stage/lib/avr/atmega328p/gcc/libmark3.a(threadlist.cpp.o)
                0x0000000000001be4                _ZN10ThreadList3AddEP12LinkListNode
 .text._ZN10ThreadList6RemoveEP12LinkListNode
                0x0000000000001c18       0x38 /home/vm/mark3/trunk/embedded/stage/lib/avr/atmega328p/gcc/libmark3.a(threadlist.cpp.o)
                0x0000000000001c18                _ZN10ThreadList6RemoveEP12LinkListNode
 .text._ZN6Kernel4InitEv
                0x0000000000001c50       0x38 /home/vm/mark3/trunk/embedded/stage/lib/avr/atmega328p/gcc/libmark3.a(kernel.cpp.o)
                0x0000000000001c50                _ZN6Kernel4InitEv
 .text._ZN6Kernel5StartEv
                0x0000000000001c88        0xa /home/vm/mark3/trunk/embedded/stage/lib/avr/atmega328p/gcc/libmark3.a(kernel.cpp.o)
                0x0000000000001c88                _ZN6Kernel5StartEv
 .text._ZN5Timer4StopEv
                0x0000000000001c92        0xa /home/vm/mark3/trunk/embedded/stage/lib/avr/atmega328p/gcc/libmark3.a(timer.cpp.o)
                0x0000000000001c92                _ZN5Timer4StopEv
 .text._ZN5Timer19SetIntervalMSecondsEm
                0x0000000000001c9c       0x34 /home/vm/mark3/trunk/embedded/stage/lib/avr/atmega328p/gcc/libmark3.a(timer.cpp.o)
                0x0000000000001c9c                _ZN5Timer19SetIntervalMSecondsEm
 .text._ZN5Timer5StartEbmPFvP6ThreadPvES2_
                0x0000000000001cd0       0x5a /home/vm/mark3/trunk/embedded/stage/lib/avr/atmega328p/gcc/libmark3.a(timer.cpp.o)
                0x0000000000001cd0                _ZN5Timer5StartEbmPFvP6ThreadPvES2_
 .text._ZN9TimerList4InitEv
                0x0000000000001d2a        0xe /home/vm/mark3/trunk/embedded/stage/lib/avr/atmega328p/gcc/libmark3.a(timerlist.cpp.o)
                0x0000000000001d2a                _ZN9TimerList4InitEv
 .text._ZN9TimerList3AddEP5Timer
                0x0000000000001d38       0xb4 /home/vm/mark3/trunk/embedded/stage/lib/avr/atmega328p/gcc/libmark3.a(timerlist.cpp.o)
                0x0000000000001d38                _ZN9TimerList3AddEP5Timer
 .text._ZN9TimerList6RemoveEP5Timer
                0x0000000000001dec       0x3a /home/vm/mark3/trunk/embedded/stage/lib/avr/atmega328p/gcc/libmark3.a(timerlist.cpp.o)
                0x0000000000001dec                _ZN9TimerList6RemoveEP5Timer
 .text._ZN9TimerList7ProcessEv
                0x0000000000001e26      0x156 /home/vm/mark3/trunk/embedded/stage/lib/avr/atmega328p/gcc/libmark3.a(timerlist.cpp.o)
                0x0000000000001e26                _ZN9TimerList7ProcessEv
 .text.startup._GLOBAL__sub_I__ZN14TimerScheduler13m_clTimerListE
                0x0000000000001f7c       0x1e /home/vm/mark3/trunk/embedded/stage/lib/avr/atmega328p/gcc/libmark3.a(timerlist.cpp.o)
 .text._ZN11KernelAware5PrintEPKc
                0x0000000000001f9a       0x2a /home/vm/mark3/trunk/embedded/stage/lib/avr/atmega328p/gcc/libmark3.a(kernelaware.cpp.o)
                0x0000000000001f9a                _ZN11KernelAware5PrintEPKc
 .text._ZL13Thread_Switchv
                0x0000000000001fc4       0x5e /home/vm/mark3/trunk/embedded/stage/lib/avr/atmega328p/gcc/libmark3.a(threadport.cpp.o)
 .text._ZN10ThreadPort9InitStackEP6Thread
                0x0000000000002022       0x78 /home/vm/mark3/trunk/embedded/stage/lib/avr/atmega328p/gcc/libmark3.a(threadport.cpp.o)
                0x0000000000002022                _ZN10ThreadPort9InitStackEP6Thread
 .text._ZN10ThreadPort12StartThreadsEv
                0x000000000000209a       0x78 /home/vm/mark3/trunk/embedded/stage/lib/avr/atmega328p/gcc/libmark3.a(threadport.cpp.o)
                0x000000000000209a                _ZN10ThreadPort12StartThreadsEv
 .text.__vector_1
                0x0000000000002112       0xb6 /home/vm/mark3/trunk/embedded/stage/lib/avr/atmega328p/gcc/libmark3.a(threadport.cpp.o)
                0x0000000000002112                __vector_1
 .text.__vector_11
                0x00000000000021c8       0x50 /home/vm/mark3/trunk/embedded/stage/lib/avr/atmega328p/gcc/libmark3.a(threadport.cpp.o)
                0x00000000000021c8                __vector_11
 .text._ZN9KernelSWI6ConfigEv
                0x0000000000002218       0x10 /home/vm/mark3/trunk/embedded/stage/lib/avr/atmega328p/gcc/libmark3.a(kernelswi.cpp.o)
                0x0000000000002218                _ZN9KernelSWI6ConfigEv
 .text._ZN9KernelSWI5StartEv
                0x0000000000002228        0x6 /home/vm/mark3/trunk/embedded/stage/lib/avr/atmega328p/gcc/libmark3.a(kernelswi.cpp.o)
                0x0000000000002228                _ZN9KernelSWI5StartEv
 .text._ZN9KernelSWI2DIEv
                0x000000000000222e        0x8 /home/vm/mark3/trunk/embedded/stage/lib/avr/atmega328p/gcc/libmark3.a(kernelswi.cpp.o)
                0x000000000000222e                _ZN9KernelSWI2DIEv
 .text._ZN9KernelSWI2RIEb
                0x0000000000002236        0xc /home/vm/mark3/trunk/embedded/stage/lib/avr/atmega328p/gcc/libmark3.a(kernelswi.cpp.o)
                0x0000000000002236                _ZN9KernelSWI2RIEb
 .text._ZN9KernelSWI7TriggerEv
                0x0000000000002242        0x6 /home/vm/mark3/trunk/embedded/stage/lib/avr/atmega328p/gcc/libmark3.a(kernelswi.cpp.o)
                0x0000000000002242                _ZN9KernelSWI7TriggerEv
 .text._ZN11KernelTimer6ConfigEv
                0x0000000000002248        0x8 /home/vm/mark3/trunk/embedded/stage/lib/avr/atmega328p/gcc/libmark3.a(kerneltimer.cpp.o)
                0x0000000000002248                _ZN11KernelTimer6ConfigEv
 .text._ZN11KernelTimer5StartEv
                0x0000000000002250       0x20 /home/vm/mark3/trunk/embedded/stage/lib/avr/atmega328p/gcc/libmark3.a(kerneltimer.cpp.o)
                0x0000000000002250                _ZN11KernelTimer5StartEv
 .text._ZN11KernelTimer4StopEv
                0x0000000000002270       0x28 /home/vm/mark3/trunk/embedded/stage/lib/avr/atmega328p/gcc/libmark3.a(kerneltimer.cpp.o)
                0x0000000000002270                _ZN11KernelTimer4StopEv
 .text._ZN11KernelTimer4ReadEv
                0x0000000000002298       0x44 /home/vm/mark3/trunk/embedded/stage/lib/avr/atmega328p/gcc/libmark3.a(kerneltimer.cpp.o)
                0x0000000000002298                _ZN11KernelTimer4ReadEv
 .text._ZN11KernelTimer14SubtractExpiryEm
                0x00000000000022dc       0x1a /home/vm/mark3/trunk/embedded/stage/lib/avr/atmega328p/gcc/libmark3.a(kerneltimer.cpp.o)
                0x00000000000022dc                _ZN11KernelTimer14SubtractExpiryEm
 .text._ZN11KernelTimer12TimeToExpiryEv
                0x00000000000022f6       0x2a /home/vm/mark3/trunk/embedded/stage/lib/avr/atmega328p/gcc/libmark3.a(kerneltimer.cpp.o)
                0x00000000000022f6                _ZN11KernelTimer12TimeToExpiryEv
 .text._ZN11KernelTimer11GetOvertimeEv
                0x0000000000002320        0xc /home/vm/mark3/trunk/embedded/stage/lib/avr/atmega328p/gcc/libmark3.a(kerneltimer.cpp.o)
                0x0000000000002320                _ZN11KernelTimer11GetOvertimeEv
 .text._ZN11KernelTimer9SetExpiryEm
                0x000000000000232c       0x1e /home/vm/mark3/trunk/embedded/stage/lib/avr/atmega328p/gcc/libmark3.a(kerneltimer.cpp.o)
                0x000000000000232c                _ZN11KernelTimer9SetExpiryEm
 .text._ZN11KernelTimer11ClearExpiryEv
                0x000000000000234a        0xe /home/vm/mark3/trunk/embedded/stage/lib/avr/atmega328p/gcc/libmark3.a(kerneltimer.cpp.o)
                0x000000000000234a                _ZN11KernelTimer11ClearExpiryEv
 .text._ZN8Profiler4InitEv
                0x0000000000002358       0x1c /home/vm/mark3/trunk/embedded/stage/lib/avr/atmega328p/gcc/libmark3.a(kernelprofile.cpp.o)
                0x0000000000002358                _ZN8Profiler4InitEv
 .text._ZN8Profiler7ProcessEv
                0x0000000000002374       0x42 /home/vm/mark3/trunk/embedded/stage/lib/avr/atmega328p/gcc/libmark3.a(kernelprofile.cpp.o)
                0x0000000000002374                _ZN8Profiler7ProcessEv
 .text.__vector_16
                0x00000000000023b6       0x48 /home/vm/mark3/trunk/embedded/stage/lib/avr/atmega328p/gcc/libmark3.a(kernelprofile.cpp.o)
                0x00000000000023b6                __vector_16
 .text._ZN14BlockingObject7UnBlockEP6Thread
                0x00000000000023fe       0x30 /home/vm/mark3/trunk/embedded/stage/lib/avr/atmega328p/gcc/libmark3.a(blocking.cpp.o)
                0x00000000000023fe                _ZN14BlockingObject7UnBlockEP6Thread
 .text._ZN14BlockingObject5BlockEP6Thread
                0x000000000000242e       0x2c /home/vm/mark3/trunk/embedded/stage/lib/avr/atmega328p/gcc/libmark3.a(blocking.cpp.o)
                0x000000000000242e                _ZN14BlockingObject5BlockEP6Thread
 .text._ZN7DevNull4InitEv
                0x000000000000245a        0xc /home/vm/mark3/trunk/embedded/stage/lib/avr/atmega328p/gcc/libmark3.a(driver.cpp.o)
                0x000000000000245a                _ZN7DevNull4InitEv
 .text._ZN7DevNull4OpenEv
                0x0000000000002466        0x4 /home/vm/mark3/trunk/embedded/stage/lib/avr/atmega328p/gcc/libmark3.a(driver.cpp.o)
                0x0000000000002466                _ZN7DevNull4OpenEv
 .text._ZN7DevNull5CloseEv
                0x000000000000246a        0x4 /home/vm/mark3/trunk/embedded/stage/lib/avr/atmega328p/gcc/libmark3.a(driver.cpp.o)
                0x000000000000246a                _ZN7DevNull5CloseEv
 .text._ZN7DevNull4ReadEjPh
                0x000000000000246e        0x6 /home/vm/mark3/trunk/embedded/stage/lib/avr/atmega328p/gcc/libmark3.a(driver.cpp.o)
                0x000000000000246e                _ZN7DevNull4ReadEjPh
 .text._ZN7DevNull5WriteEjPh
                0x0000000000002474        0x6 /home/vm/mark3/trunk/embedded/stage/lib/avr/atmega328p/gcc/libmark3.a(driver.cpp.o)
                0x0000000000002474                _ZN7DevNull5WriteEjPh
 .text._ZN7DevNull7ControlEjPvjS0_j
                0x000000000000247a        0x6 /home/vm/mark3/trunk/embedded/stage/lib/avr/atmega328p/gcc/libmark3.a(driver.cpp.o)
                0x000000000000247a                _ZN7DevNull7ControlEjPvjS0_j
 .text._ZN10DriverList4InitEv
                0x0000000000002480       0x18 /home/vm/mark3/trunk/embedded/stage/lib/avr/atmega328p/gcc/libmark3.a(driver.cpp.o)
                0x0000000000002480                _ZN10DriverList4InitEv
 .text.startup._GLOBAL__sub_I__ZN10DriverList14m_clDriverListE
                0x0000000000002498       0x2a /home/vm/mark3/trunk/embedded/stage/lib/avr/atmega328p/gcc/libmark3.a(driver.cpp.o)
 .text._ZL15QuantumCallbackP6ThreadPv
                0x00000000000024c2       0x3a /home/vm/mark3/trunk/embedded/stage/lib/avr/atmega328p/gcc/libmark3.a(quantum.cpp.o)
 .text._ZN7Quantum8SetTimerEP6Thread
                0x00000000000024fc       0x34 /home/vm/mark3/trunk/embedded/stage/lib/avr/atmega328p/gcc/libmark3.a(quantum.cpp.o)
                0x00000000000024fc                _ZN7Quantum8SetTimerEP6Thread
 .text._ZN7Quantum9AddThreadEP6Thread
                0x0000000000002530       0x54 /home/vm/mark3/trunk/embedded/stage/lib/avr/atmega328p/gcc/libmark3.a(quantum.cpp.o)
                0x0000000000002530                _ZN7Quantum9AddThreadEP6Thread
 .text._ZN7Quantum12RemoveThreadEv
                0x0000000000002584       0x1a /home/vm/mark3/trunk/embedded/stage/lib/avr/atmega328p/gcc/libmark3.a(quantum.cpp.o)
                0x0000000000002584                _ZN7Quantum12RemoveThreadEv
 .text._ZN7Quantum11UpdateTimerEv
                0x000000000000259e       0x12 /home/vm/mark3/trunk/embedded/stage/lib/avr/atmega328p/gcc/libmark3.a(quantum.cpp.o)
                0x000000000000259e                _ZN7Quantum11UpdateTimerEv
 .text._ZN9Scheduler4InitEv
                0x00000000000025b0       0x36 /home/vm/mark3/trunk/embedded/stage/lib/avr/atmega328p/gcc/libmark3.a(scheduler.cpp.o)
                0x00000000000025b0                _ZN9Scheduler4InitEv
 .text._ZN9Scheduler8ScheduleEv
                0x00000000000025e6       0x50 /home/vm/mark3/trunk/embedded/stage/lib/avr/atmega328p/gcc/libmark3.a(scheduler.cpp.o)
                0x00000000000025e6                _ZN9Scheduler8ScheduleEv
 .text._ZN9Scheduler3AddEP6Thread
                0x0000000000002636       0x22 /home/vm/mark3/trunk/embedded/stage/lib/avr/atmega328p/gcc/libmark3.a(scheduler.cpp.o)
                0x0000000000002636                _ZN9Scheduler3AddEP6Thread
 .text._ZN9Scheduler6RemoveEP6Thread
                0x0000000000002658       0x22 /home/vm/mark3/trunk/embedded/stage/lib/avr/atmega328p/gcc/libmark3.a(scheduler.cpp.o)
                0x0000000000002658                _ZN9Scheduler6RemoveEP6Thread
 .text._ZN9Scheduler12SetSchedulerEb
                0x000000000000267a       0x3e /home/vm/mark3/trunk/embedded/stage/lib/avr/atmega328p/gcc/libmark3.a(scheduler.cpp.o)
                0x000000000000267a                _ZN9Scheduler12SetSchedulerEb
 .text.startup._GLOBAL__sub_I_g_pclNext
                0x00000000000026b8       0x4a /home/vm/mark3/trunk/embedded/stage/lib/avr/atmega328p/gcc/libmark3.a(scheduler.cpp.o)
 .text._ZN10SystemHeap4InitEv
                0x0000000000002702       0x6c /home/vm/mark3/trunk/embedded/stage/lib/avr/atmega328p/gcc/libheap.a(system_heap.cpp.o)
                0x0000000000002702                _ZN10SystemHeap4InitEv
 .text._ZN10SystemHeap5AllocEj
                0x000000000000276e       0x18 /home/vm/mark3/trunk/embedded/stage/lib/avr/atmega328p/gcc/libheap.a(system_heap.cpp.o)
                0x000000000000276e                _ZN10SystemHeap5AllocEj
 .text._ZN10SystemHeap4FreeEPv
                0x0000000000002786        0xc /home/vm/mark3/trunk/embedded/stage/lib/avr/atmega328p/gcc/libheap.a(system_heap.cpp.o)
                0x0000000000002786                _ZN10SystemHeap4FreeEPv
 .text.startup._GLOBAL__sub_I__ZN10SystemHeap12m_pu8RawHeapE
                0x0000000000002792       0x24 /home/vm/mark3/trunk/embedded/stage/lib/avr/atmega328p/gcc/libheap.a(system_heap.cpp.o)
 .text._ZN9BlockHeap6CreateEPvjj
                0x00000000000027b6       0x9e /home/vm/mark3/trunk/embedded/stage/lib/avr/atmega328p/gcc/libheap.a(fixed_heap.cpp.o)
                0x00000000000027b6                _ZN9BlockHeap6CreateEPvjj
 .text._ZN9FixedHeap6CreateEPvP10HeapConfig
                0x0000000000002854       0x56 /home/vm/mark3/trunk/embedded/stage/lib/avr/atmega328p/gcc/libheap.a(fixed_heap.cpp.o)
                0x0000000000002854                _ZN9FixedHeap6CreateEPvP10HeapConfig
 .text._ZN9BlockHeap4FreeEPv
                0x00000000000028aa       0x20 /home/vm/mark3/trunk/embedded/stage/lib/avr/atmega328p/gcc/libheap.a(fixed_heap.cpp.o)
                0x00000000000028aa                _ZN9BlockHeap4FreeEPv
 .text._ZN9FixedHeap4FreeEPv
                0x00000000000028ca       0x2a /home/vm/mark3/trunk/embedded/stage/lib/avr/atmega328p/gcc/libheap.a(fixed_heap.cpp.o)
                0x00000000000028ca                _ZN9FixedHeap4FreeEPv
 .text._ZN9BlockHeap5AllocEv
                0x00000000000028f4       0x3a /home/vm/mark3/trunk/embedded/stage/lib/avr/atmega328p/gcc/libheap.a(fixed_heap.cpp.o)
                0x00000000000028f4                _ZN9BlockHeap5AllocEv
 .text._ZN9FixedHeap5AllocEj
                0x000000000000292e       0x7c /home/vm/mark3/trunk/embedded/stage/lib/avr/atmega328p/gcc/libheap.a(fixed_heap.cpp.o)
                0x000000000000292e                _ZN9FixedHeap5AllocEj
 .text._ZN12PseudoRandomC2Ev
                0x00000000000029aa       0x24 /home/vm/mark3/trunk/embedded/stage/lib/avr/atmega328p/gcc/librandom.a(rand_lfsr.cpp.o)
                0x00000000000029aa                _ZN12PseudoRandomC2Ev
                0x00000000000029aa                _ZN12PseudoRandomC1Ev
 .text._ZN12PseudoRandom4SeedEmm
                0x00000000000029ce       0x1c /home/vm/mark3/trunk/embedded/stage/lib/avr/atmega328p/gcc/librandom.a(rand_lfsr.cpp.o)
                0x00000000000029ce                _ZN12PseudoRandom4SeedEmm
 .text._ZN12PseudoRandom5ShiftEPmm
                0x00000000000029ea       0x44 /home/vm/mark3/trunk/embedded/stage/lib/avr/atmega328p/gcc/librandom.a(rand_lfsr.cpp.o)
                0x00000000000029ea                _ZN12PseudoRandom5ShiftEPmm
 .text._ZN12PseudoRandom9GetRandomEv
                0x0000000000002a2e       0x5e /home/vm/mark3/trunk/embedded/stage/lib/avr/atmega328p/gcc/librandom.a(rand_lfsr.cpp.o)
                0x0000000000002a2e                _ZN12PseudoRandom9GetRandomEv
 .text._ZN14GraphicsDriver9ReadPixelEP11DrawPoint_t
                0x0000000000002a8c        0x2 /home/vm/mark3/trunk/embedded/stage/lib/avr/atmega328p/gcc/libgraphics.a(graphics.cpp.o)
                0x0000000000002a8c                _ZN14GraphicsDriver9ReadPixelEP11DrawPoint_t
 .text._ZN14GraphicsDriver11ClearScreenEv
                0x0000000000002a8e       0x92 /home/vm/mark3/trunk/embedded/stage/lib/avr/atmega328p/gcc/libgraphics.a(graphics.cpp.o)
                0x0000000000002a8e                _ZN14GraphicsDriver11ClearScreenEv
 .text._ZN14GraphicsDriver4LineEP10DrawLine_t
                0x0000000000002b20      0x19a /home/vm/mark3/trunk/embedded/stage/lib/avr/atmega328p/gcc/libgraphics.a(graphics.cpp.o)
                0x0000000000002b20                _ZN14GraphicsDriver4LineEP10DrawLine_t
 .text._ZN14GraphicsDriver9RectangleEP15DrawRectangle_t
                0x0000000000002cba      0x1c2 /home/vm/mark3/trunk/embedded/stage/lib/avr/atmega328p/gcc/libgraphics.a(graphics.cpp.o)
                0x0000000000002cba                _ZN14GraphicsDriver9RectangleEP15DrawRectangle_t
 .text._ZN14GraphicsDriver6CircleEP12DrawCircle_t
                0x0000000000002e7c      0x344 /home/vm/mark3/trunk/embedded/stage/lib/avr/atmega328p/gcc/libgraphics.a(graphics.cpp.o)
                0x0000000000002e7c                _ZN14GraphicsDriver6CircleEP12DrawCircle_t
 .text._ZN14GraphicsDriver7EllipseEP13DrawEllipse_t
                0x00000000000031c0      0x20e /home/vm/mark3/trunk/embedded/stage/lib/avr/atmega328p/gcc/libgraphics.a(graphics.cpp.o)
                0x00000000000031c0                _ZN14GraphicsDriver7EllipseEP13DrawEllipse_t
 .text._ZN14GraphicsDriver6BitmapEP12DrawBitmap_t
                0x00000000000033ce       0xe4 /home/vm/mark3/trunk/embedded/stage/lib/avr/atmega328p/gcc/libgraphics.a(graphics.cpp.o)
                0x00000000000033ce                _ZN14GraphicsDriver6BitmapEP12DrawBitmap_t
 .text._ZN14GraphicsDriver5StampEP11DrawStamp_t
                0x00000000000034b2      0x114 /home/vm/mark3/trunk/embedded/stage/lib/avr/atmega328p/gcc/libgraphics.a(graphics.cpp.o)
                0x00000000000034b2                _ZN14GraphicsDriver5StampEP11DrawStamp_t
 .text._ZN14GraphicsDriver4MoveEP10DrawMove_t
                0x00000000000035c6      0x1e4 /home/vm/mark3/trunk/embedded/stage/lib/avr/atmega328p/gcc/libgraphics.a(graphics.cpp.o)
                0x00000000000035c6                _ZN14GraphicsDriver4MoveEP10DrawMove_t
 .text._ZN14GraphicsDriver4TextEP10DrawText_t
                0x00000000000037aa      0x1c6 /home/vm/mark3/trunk/embedded/stage/lib/avr/atmega328p/gcc/libgraphics.a(graphics.cpp.o)
                0x00000000000037aa                _ZN14GraphicsDriver4TextEP10DrawText_t
 .text._ZN14GraphicsDriver9TextWidthEP10DrawText_t
                0x0000000000003970       0x92 /home/vm/mark3/trunk/embedded/stage/lib/avr/atmega328p/gcc/libgraphics.a(graphics.cpp.o)
                0x0000000000003970                _ZN14GraphicsDriver9TextWidthEP10DrawText_t
 .text._ZN14GraphicsDriver12TriangleWireEP10DrawPoly_t
                0x0000000000003a02      0x10e /home/vm/mark3/trunk/embedded/stage/lib/avr/atmega328p/gcc/libgraphics.a(graphics.cpp.o)
                0x0000000000003a02                _ZN14GraphicsDriver12TriangleWireEP10DrawPoly_t
 .text._ZN14GraphicsDriver12TriangleFillEP10DrawPoly_t
                0x0000000000003b10      0x3e6 /home/vm/mark3/trunk/embedded/stage/lib/avr/atmega328p/gcc/libgraphics.a(graphics.cpp.o)
                0x0000000000003b10                _ZN14GraphicsDriver12TriangleFillEP10DrawPoly_t
 .text._ZN14GraphicsDriver7PolygonEP10DrawPoly_t
                0x0000000000003ef6      0x1ce /home/vm/mark3/trunk/embedded/stage/lib/avr/atmega328p/gcc/libgraphics.a(graphics.cpp.o)
                0x0000000000003ef6                _ZN14GraphicsDriver7PolygonEP10DrawPoly_t
 .text._ZN14GraphicsDriver9SetWindowEP12DrawWindow_t
                0x00000000000040c4       0x64 /home/vm/mark3/trunk/embedded/stage/lib/avr/atmega328p/gcc/libgraphics.a(graphics.cpp.o)
                0x00000000000040c4                _ZN14GraphicsDriver9SetWindowEP12DrawWindow_t
 .text._ZN14GraphicsDriver11ClearWindowEv
                0x0000000000004128       0x20 /home/vm/mark3/trunk/embedded/stage/lib/avr/atmega328p/gcc/libgraphics.a(graphics.cpp.o)
                0x0000000000004128                _ZN14GraphicsDriver11ClearWindowEv
 .text._ZN13GraphicsFlavr4InitEv
                0x0000000000004148       0x14 /home/vm/mark3/trunk/embedded/stage/lib/avr/atmega328p/gcc/libdrvGraphicsFlavr.a(graphics_flavr.cpp.o)
                0x0000000000004148                _ZN13GraphicsFlavr4InitEv
 .text._ZN13GraphicsFlavr4OpenEv
                0x000000000000415c        0x4 /home/vm/mark3/trunk/embedded/stage/lib/avr/atmega328p/gcc/libdrvGraphicsFlavr.a(graphics_flavr.cpp.o)
                0x000000000000415c                _ZN13GraphicsFlavr4OpenEv
 .text._ZN13GraphicsFlavr5CloseEv
                0x0000000000004160        0x4 /home/vm/mark3/trunk/embedded/stage/lib/avr/atmega328p/gcc/libdrvGraphicsFlavr.a(graphics_flavr.cpp.o)
                0x0000000000004160                _ZN13GraphicsFlavr5CloseEv
 .text._ZN13GraphicsFlavr4ReadEjPh
                0x0000000000004164        0x4 /home/vm/mark3/trunk/embedded/stage/lib/avr/atmega328p/gcc/libdrvGraphicsFlavr.a(graphics_flavr.cpp.o)
                0x0000000000004164                _ZN13GraphicsFlavr4ReadEjPh
 .text._ZN13GraphicsFlavr5WriteEjPh
                0x0000000000004168        0x4 /home/vm/mark3/trunk/embedded/stage/lib/avr/atmega328p/gcc/libdrvGraphicsFlavr.a(graphics_flavr.cpp.o)
                0x0000000000004168                _ZN13GraphicsFlavr5WriteEjPh
 .text._ZN13GraphicsFlavr7ControlEjPvjS0_j
                0x000000000000416c        0x6 /home/vm/mark3/trunk/embedded/stage/lib/avr/atmega328p/gcc/libdrvGraphicsFlavr.a(graphics_flavr.cpp.o)
                0x000000000000416c                _ZN13GraphicsFlavr7ControlEjPvjS0_j
 .text._ZN13GraphicsFlavr5PointEP11DrawPoint_t
                0x0000000000004172        0xe /home/vm/mark3/trunk/embedded/stage/lib/avr/atmega328p/gcc/libdrvGraphicsFlavr.a(graphics_flavr.cpp.o)
                0x0000000000004172                _ZN13GraphicsFlavr5PointEP11DrawPoint_t
 .text._ZN13GraphicsFlavr9DrawPixelEP11DrawPoint_t
                0x0000000000004180       0x10 /home/vm/mark3/trunk/embedded/stage/lib/avr/atmega328p/gcc/libdrvGraphicsFlavr.a(graphics_flavr.cpp.o)
                0x0000000000004180                _ZN13GraphicsFlavr9DrawPixelEP11DrawPoint_t
 .text._ZN13GraphicsFlavr4FlipEv
                0x0000000000004190        0x8 /home/vm/mark3/trunk/embedded/stage/lib/avr/atmega328p/gcc/libdrvGraphicsFlavr.a(graphics_flavr.cpp.o)
                0x0000000000004190                _ZN13GraphicsFlavr4FlipEv
 .text._ZN14JoystickDriver4ScanEv
                0x0000000000004198       0x8a /home/vm/mark3/trunk/embedded/stage/lib/avr/atmega328p/gcc/libjoystick.a(joystick.cpp.o)
                0x0000000000004198                _ZN14JoystickDriver4ScanEv
 .text._ZN14JoystickDriver11ReadCurrentEP14JoystickReport
                0x0000000000004222       0x40 /home/vm/mark3/trunk/embedded/stage/lib/avr/atmega328p/gcc/libjoystick.a(joystick.cpp.o)
                0x0000000000004222                _ZN14JoystickDriver11ReadCurrentEP14JoystickReport
 .text._ZN14JoystickDriver12ReadPreviousEP14JoystickReport
                0x0000000000004262       0x40 /home/vm/mark3/trunk/embedded/stage/lib/avr/atmega328p/gcc/libjoystick.a(joystick.cpp.o)
                0x0000000000004262                _ZN14JoystickDriver12ReadPreviousEP14JoystickReport
 .text._ZN13FlavrJoystick5CloseEv
                0x00000000000042a2        0x4 /home/vm/mark3/trunk/embedded/stage/lib/avr/atmega328p/gcc/libdrvFlavrJoy.a(drvFlavrJoy.cpp.o)
                0x00000000000042a2                _ZN13FlavrJoystick5CloseEv
 .text._ZN13FlavrJoystick4ReadEjPh
                0x00000000000042a6        0x4 /home/vm/mark3/trunk/embedded/stage/lib/avr/atmega328p/gcc/libdrvFlavrJoy.a(drvFlavrJoy.cpp.o)
                0x00000000000042a6                _ZN13FlavrJoystick4ReadEjPh
 .text._ZN13FlavrJoystick5WriteEjPh
                0x00000000000042aa        0x4 /home/vm/mark3/trunk/embedded/stage/lib/avr/atmega328p/gcc/libdrvFlavrJoy.a(drvFlavrJoy.cpp.o)
                0x00000000000042aa                _ZN13FlavrJoystick5WriteEjPh
 .text._ZN13FlavrJoystick4InitEv
                0x00000000000042ae        0x2 /home/vm/mark3/trunk/embedded/stage/lib/avr/atmega328p/gcc/libdrvFlavrJoy.a(drvFlavrJoy.cpp.o)
                0x00000000000042ae                _ZN13FlavrJoystick4InitEv
 .text._ZN13FlavrJoystick4OpenEv
                0x00000000000042b0        0x4 /home/vm/mark3/trunk/embedded/stage/lib/avr/atmega328p/gcc/libdrvFlavrJoy.a(drvFlavrJoy.cpp.o)
                0x00000000000042b0                _ZN13FlavrJoystick4OpenEv
 .text._ZN13FlavrJoystick12ScanInternalEv
                0x00000000000042b4       0x58 /home/vm/mark3/trunk/embedded/stage/lib/avr/atmega328p/gcc/libdrvFlavrJoy.a(drvFlavrJoy.cpp.o)
                0x00000000000042b4                _ZN13FlavrJoystick12ScanInternalEv
 .text._ZN13FlavrJoystick7ControlEjPvjS0_j
                0x000000000000430c       0x10 /home/vm/mark3/trunk/embedded/stage/lib/avr/atmega328p/gcc/libdrvFlavrJoy.a(drvFlavrJoy.cpp.o)
                0x000000000000430c                _ZN13FlavrJoystick7ControlEjPvjS0_j
 .text._ZN9GuiWindow12GetMaxZOrderEv
                0x000000000000431c       0x22 /home/vm/mark3/trunk/embedded/stage/lib/avr/atmega328p/gcc/libgui.a(gui.cpp.o)
                0x000000000000431c                _ZN9GuiWindow12GetMaxZOrderEv
 .text._ZN9GuiWindow6RedrawEb
                0x000000000000433e       0x76 /home/vm/mark3/trunk/embedded/stage/lib/avr/atmega328p/gcc/libgui.a(gui.cpp.o)
                0x000000000000433e                _ZN9GuiWindow6RedrawEb
 .text._ZN9GuiWindow8SetFocusEP10GuiControl
                0x00000000000043b4        0x8 /home/vm/mark3/trunk/embedded/stage/lib/avr/atmega328p/gcc/libgui.a(gui.cpp.o)
                0x00000000000043b4                _ZN9GuiWindow8SetFocusEP10GuiControl
 .text._ZN9GuiWindow10CycleFocusEb
                0x00000000000043bc      0x186 /home/vm/mark3/trunk/embedded/stage/lib/avr/atmega328p/gcc/libgui.a(gui.cpp.o)
                0x00000000000043bc                _ZN9GuiWindow10CycleFocusEb
 .text._ZN15GuiEventSurface9CopyEventEP10GuiEvent_tS1_
                0x0000000000004542       0x16 /home/vm/mark3/trunk/embedded/stage/lib/avr/atmega328p/gcc/libgui.a(gui.cpp.o)
                0x0000000000004542                _ZN15GuiEventSurface9CopyEventEP10GuiEvent_tS1_
 .text._ZN15GuiEventSurface9SendEventEP10GuiEvent_t
                0x0000000000004558       0x64 /home/vm/mark3/trunk/embedded/stage/lib/avr/atmega328p/gcc/libgui.a(gui.cpp.o)
                0x0000000000004558                _ZN15GuiEventSurface9SendEventEP10GuiEvent_t
 .text._ZN10GuiControl16GetControlOffsetEPjS0_
                0x00000000000045bc       0x7e /home/vm/mark3/trunk/embedded/stage/lib/avr/atmega328p/gcc/libgui.a(gui.cpp.o)
                0x00000000000045bc                _ZN10GuiControl16GetControlOffsetEPjS0_
 .text._ZN9GuiWindow12ProcessEventEP10GuiEvent_t
                0x000000000000463a      0x21c /home/vm/mark3/trunk/embedded/stage/lib/avr/atmega328p/gcc/libgui.a(gui.cpp.o)
                0x000000000000463a                _ZN9GuiWindow12ProcessEventEP10GuiEvent_t
 .text._ZN15GuiEventSurface12ProcessEventEv
                0x0000000000004856       0xd0 /home/vm/mark3/trunk/embedded/stage/lib/avr/atmega328p/gcc/libgui.a(gui.cpp.o)
                0x0000000000004856                _ZN15GuiEventSurface12ProcessEventEv
 .text._ZN9GuiWindow10AddControlEP10GuiControlS1_
                0x0000000000004926       0x4a /home/vm/mark3/trunk/embedded/stage/lib/avr/atmega328p/gcc/libgui.a(gui.cpp.o)
                0x0000000000004926                _ZN9GuiWindow10AddControlEP10GuiControlS1_
 .text._ZN15GuiEventSurface9AddWindowEP9GuiWindow
                0x0000000000004970        0x4 /home/vm/mark3/trunk/embedded/stage/lib/avr/atmega328p/gcc/libgui.a(gui.cpp.o)
                0x0000000000004970                _ZN15GuiEventSurface9AddWindowEP9GuiWindow
 .text._ZN17BrushPanelControl4InitEv
                0x0000000000004974        0x6 /home/vm/mark3/trunk/embedded/stage/lib/avr/atmega328p/gcc/libgui.a(control_brushpanel.cpp.o)
                0x0000000000004974                _ZN17BrushPanelControl4InitEv
 .text._ZN17BrushPanelControl12ProcessEventEP10GuiEvent_t
                0x000000000000497a        0x4 /home/vm/mark3/trunk/embedded/stage/lib/avr/atmega328p/gcc/libgui.a(control_brushpanel.cpp.o)
                0x000000000000497a                _ZN17BrushPanelControl12ProcessEventEP10GuiEvent_t
 .text._ZN17BrushPanelControl8ActivateEb
                0x000000000000497e        0x2 /home/vm/mark3/trunk/embedded/stage/lib/avr/atmega328p/gcc/libgui.a(control_brushpanel.cpp.o)
                0x000000000000497e                _ZN17BrushPanelControl8ActivateEb
 .text._ZN17BrushPanelControl4DrawEv
                0x0000000000004980      0x1ba /home/vm/mark3/trunk/embedded/stage/lib/avr/atmega328p/gcc/libgui.a(control_brushpanel.cpp.o)
                0x0000000000004980                _ZN17BrushPanelControl4DrawEv
 .text._ZN13ButtonControl4InitEv
                0x0000000000004b3a       0x6e /home/vm/mark3/trunk/embedded/stage/lib/avr/atmega328p/gcc/libgui.a(control_button.cpp.o)
                0x0000000000004b3a                _ZN13ButtonControl4InitEv
 .text._ZN13ButtonControl8ActivateEb
                0x0000000000004ba8       0x10 /home/vm/mark3/trunk/embedded/stage/lib/avr/atmega328p/gcc/libgui.a(control_button.cpp.o)
                0x0000000000004ba8                _ZN13ButtonControl8ActivateEb
 .text._ZN13ButtonControl4DrawEv
                0x0000000000004bb8      0x2c8 /home/vm/mark3/trunk/embedded/stage/lib/avr/atmega328p/gcc/libgui.a(control_button.cpp.o)
                0x0000000000004bb8                _ZN13ButtonControl4DrawEv
 .text._ZN13ButtonControl12ProcessEventEP10GuiEvent_t
                0x0000000000004e80      0x26a /home/vm/mark3/trunk/embedded/stage/lib/avr/atmega328p/gcc/libgui.a(control_button.cpp.o)
                0x0000000000004e80                _ZN13ButtonControl12ProcessEventEP10GuiEvent_t
 .text._ZN15CheckBoxControl8ActivateEb
                0x00000000000050ea        0x8 /home/vm/mark3/trunk/embedded/stage/lib/avr/atmega328p/gcc/libgui.a(control_checkbox.cpp.o)
                0x00000000000050ea                _ZN15CheckBoxControl8ActivateEb
 .text._ZN15CheckBoxControl4InitEv
                0x00000000000050f2       0x3c /home/vm/mark3/trunk/embedded/stage/lib/avr/atmega328p/gcc/libgui.a(control_checkbox.cpp.o)
                0x00000000000050f2                _ZN15CheckBoxControl4InitEv
 .text._ZN15CheckBoxControl4DrawEv
                0x000000000000512e      0x216 /home/vm/mark3/trunk/embedded/stage/lib/avr/atmega328p/gcc/libgui.a(control_checkbox.cpp.o)
                0x000000000000512e                _ZN15CheckBoxControl4DrawEv
 .text._ZN15CheckBoxControl12ProcessEventEP10GuiEvent_t
                0x0000000000005344      0x1d8 /home/vm/mark3/trunk/embedded/stage/lib/avr/atmega328p/gcc/libgui.a(control_checkbox.cpp.o)
                0x0000000000005344                _ZN15CheckBoxControl12ProcessEventEP10GuiEvent_t
 .text._ZN15GroupBoxControl12ProcessEventEP10GuiEvent_t
                0x000000000000551c        0x4 /home/vm/mark3/trunk/embedded/stage/lib/avr/atmega328p/gcc/libgui.a(control_groupbox.cpp.o)
                0x000000000000551c                _ZN15GroupBoxControl12ProcessEventEP10GuiEvent_t
 .text._ZN15GroupBoxControl8ActivateEb
                0x0000000000005520        0x2 /home/vm/mark3/trunk/embedded/stage/lib/avr/atmega328p/gcc/libgui.a(control_groupbox.cpp.o)
                0x0000000000005520                _ZN15GroupBoxControl8ActivateEb
 .text._ZN15GroupBoxControl4InitEv
                0x0000000000005522       0x36 /home/vm/mark3/trunk/embedded/stage/lib/avr/atmega328p/gcc/libgui.a(control_groupbox.cpp.o)
                0x0000000000005522                _ZN15GroupBoxControl4InitEv
 .text._ZN15GroupBoxControl4DrawEv
                0x0000000000005558      0x180 /home/vm/mark3/trunk/embedded/stage/lib/avr/atmega328p/gcc/libgui.a(control_groupbox.cpp.o)
                0x0000000000005558                _ZN15GroupBoxControl4DrawEv
 .text._ZN12LabelControl12ProcessEventEP10GuiEvent_t
                0x00000000000056d8        0x4 /home/vm/mark3/trunk/embedded/stage/lib/avr/atmega328p/gcc/libgui.a(control_label.cpp.o)
                0x00000000000056d8                _ZN12LabelControl12ProcessEventEP10GuiEvent_t
 .text._ZN12LabelControl8ActivateEb
                0x00000000000056dc        0x2 /home/vm/mark3/trunk/embedded/stage/lib/avr/atmega328p/gcc/libgui.a(control_label.cpp.o)
                0x00000000000056dc                _ZN12LabelControl8ActivateEb
 .text._ZN12LabelControl4InitEv
                0x00000000000056de       0x2c /home/vm/mark3/trunk/embedded/stage/lib/avr/atmega328p/gcc/libgui.a(control_label.cpp.o)
                0x00000000000056de                _ZN12LabelControl4InitEv
 .text._ZN12LabelControl4DrawEv
                0x000000000000570a      0x182 /home/vm/mark3/trunk/embedded/stage/lib/avr/atmega328p/gcc/libgui.a(control_label.cpp.o)
                0x000000000000570a                _ZN12LabelControl4DrawEv
 .text._ZN15ProgressControl8ActivateEb
                0x000000000000588c        0x2 /home/vm/mark3/trunk/embedded/stage/lib/avr/atmega328p/gcc/libgui.a(control_progress.cpp.o)
                0x000000000000588c                _ZN15ProgressControl8ActivateEb
 .text._ZN15ProgressControl4InitEv
                0x000000000000588e       0x36 /home/vm/mark3/trunk/embedded/stage/lib/avr/atmega328p/gcc/libgui.a(control_progress.cpp.o)
                0x000000000000588e                _ZN15ProgressControl4InitEv
 .text._ZN15ProgressControl12ProcessEventEP10GuiEvent_t
                0x00000000000058c4        0x4 /home/vm/mark3/trunk/embedded/stage/lib/avr/atmega328p/gcc/libgui.a(control_progress.cpp.o)
                0x00000000000058c4                _ZN15ProgressControl12ProcessEventEP10GuiEvent_t
 .text._ZN15ProgressControl4DrawEv
                0x00000000000058c8      0x270 /home/vm/mark3/trunk/embedded/stage/lib/avr/atmega328p/gcc/libgui.a(control_progress.cpp.o)
                0x00000000000058c8                _ZN15ProgressControl4DrawEv
 .text._ZN15ProgressControl11SetProgressEh
                0x0000000000005b38       0x14 /home/vm/mark3/trunk/embedded/stage/lib/avr/atmega328p/gcc/libgui.a(control_progress.cpp.o)
                0x0000000000005b38                _ZN15ProgressControl11SetProgressEh
 .text._ZN15SevenSegControl8ActivateEb
                0x0000000000005b4c        0x2 /home/vm/mark3/trunk/embedded/stage/lib/avr/atmega328p/gcc/libgui.a(control_sevenseg.cpp.o)
                0x0000000000005b4c                _ZN15SevenSegControl8ActivateEb
 .text._ZN15SevenSegControl4InitEv
                0x0000000000005b4e        0x6 /home/vm/mark3/trunk/embedded/stage/lib/avr/atmega328p/gcc/libgui.a(control_sevenseg.cpp.o)
                0x0000000000005b4e                _ZN15SevenSegControl4InitEv
 .text._ZN15SevenSegControl12ProcessEventEP10GuiEvent_t
                0x0000000000005b54        0x4 /home/vm/mark3/trunk/embedded/stage/lib/avr/atmega328p/gcc/libgui.a(control_sevenseg.cpp.o)
                0x0000000000005b54                _ZN15SevenSegControl12ProcessEventEP10GuiEvent_t
 .text._ZN15SevenSegControl4DrawEv
                0x0000000000005b58      0x5d0 /home/vm/mark3/trunk/embedded/stage/lib/avr/atmega328p/gcc/libgui.a(control_sevenseg.cpp.o)
                0x0000000000005b58                _ZN15SevenSegControl4DrawEv
 .text.libgcc.mul
                0x0000000000006128       0x1e /usr/lib/gcc/avr/4.8.2/avr5/libgcc.a(_umulhisi3.o)
                0x0000000000006128                __umulhisi3
 .text.libgcc.mul
                0x0000000000006146       0x16 /usr/lib/gcc/avr/4.8.2/avr5/libgcc.a(_muluhisi3.o)
                0x0000000000006146                __muluhisi3
 .text.libgcc.mul
                0x000000000000615c       0x20 /usr/lib/gcc/avr/4.8.2/avr5/libgcc.a(_mulsi3.o)
                0x000000000000615c                __mulsi3
 .text.libgcc.div
                0x000000000000617c       0x28 /usr/lib/gcc/avr/4.8.2/avr5/libgcc.a(_udivmodhi4.o)
                0x000000000000617c                __udivmodhi4
 .text.libgcc.div
                0x00000000000061a4       0x44 /usr/lib/gcc/avr/4.8.2/avr5/libgcc.a(_udivmodsi4.o)
                0x00000000000061a4                __udivmodsi4
 .text.libgcc   0x00000000000061e8        0xc /usr/lib/gcc/avr/4.8.2/avr5/libgcc.a(_tablejump.o)
                0x00000000000061e8                __tablejump2__
                0x00000000000061ec                __tablejump__
                0x00000000000061f4                . = ALIGN (0x2)
 *(.fini9)
 .fini9         0x00000000000061f4        0x0 /usr/lib/gcc/avr/4.8.2/avr5/libgcc.a(_exit.o)
                0x00000000000061f4                exit
                0x00000000000061f4                _exit
 *(.fini9)
 *(.fini8)
 *(.fini8)
 *(.fini7)
 *(.fini7)
 *(.fini6)
 *(.fini6)
 *(.fini5)
 *(.fini5)
 *(.fini4)
 *(.fini4)
 *(.fini3)
 *(.fini3)
 *(.fini2)
 *(.fini2)
 *(.fini1)
 *(.fini1)
 *(.fini0)
 .fini0         0x00000000000061f4        0x4 /usr/lib/gcc/avr/4.8.2/avr5/libgcc.a(_exit.o)
 *(.fini0)
                0x00000000000061f8                _etext = .

.data           0x0000000000800100      0x1a2 load address 0x00000000000061f8
                0x0000000000800100                PROVIDE (__data_start, .)
 *(.data)
 .data          0x0000000000800100        0x0 /usr/lib/gcc/avr/4.8.2/../../../avr/lib/avr5/crtm328p.o
 .data          0x0000000000800100        0x1 ./obj/avr/atmega328p/gcc/main.cpp.o
 .data          0x0000000000800101        0x0 /home/vm/mark3/trunk/embedded/stage/lib/avr/atmega328p/gcc/libmark3.a(ll.cpp.o)
 .data          0x0000000000800101        0x0 /home/vm/mark3/trunk/embedded/stage/lib/avr/atmega328p/gcc/libmark3.a(message.cpp.o)
 .data          0x0000000000800101        0x0 /home/vm/mark3/trunk/embedded/stage/lib/avr/atmega328p/gcc/libmark3.a(ksemaphore.cpp.o)
 .data          0x0000000000800101        0x0 /home/vm/mark3/trunk/embedded/stage/lib/avr/atmega328p/gcc/libmark3.a(thread.cpp.o)
 .data          0x0000000000800101        0x0 /home/vm/mark3/trunk/embedded/stage/lib/avr/atmega328p/gcc/libmark3.a(threadlist.cpp.o)
 .data          0x0000000000800101        0x0 /home/vm/mark3/trunk/embedded/stage/lib/avr/atmega328p/gcc/libmark3.a(kernel.cpp.o)
 .data          0x0000000000800101        0x0 /home/vm/mark3/trunk/embedded/stage/lib/avr/atmega328p/gcc/libmark3.a(timer.cpp.o)
 .data          0x0000000000800101        0x0 /home/vm/mark3/trunk/embedded/stage/lib/avr/atmega328p/gcc/libmark3.a(timerlist.cpp.o)
 .data          0x0000000000800101        0x0 /home/vm/mark3/trunk/embedded/stage/lib/avr/atmega328p/gcc/libmark3.a(kernelaware.cpp.o)
 .data          0x0000000000800101        0x0 /home/vm/mark3/trunk/embedded/stage/lib/avr/atmega328p/gcc/libmark3.a(threadport.cpp.o)
 .data          0x0000000000800101        0x0 /home/vm/mark3/trunk/embedded/stage/lib/avr/atmega328p/gcc/libmark3.a(kernelswi.cpp.o)
 .data          0x0000000000800101        0x0 /home/vm/mark3/trunk/embedded/stage/lib/avr/atmega328p/gcc/libmark3.a(kerneltimer.cpp.o)
 .data          0x0000000000800101        0x0 /home/vm/mark3/trunk/embedded/stage/lib/avr/atmega328p/gcc/libmark3.a(kernelprofile.cpp.o)
 .data          0x0000000000800101        0x0 /home/vm/mark3/trunk/embedded/stage/lib/avr/atmega328p/gcc/libmark3.a(blocking.cpp.o)
 .data          0x0000000000800101        0x0 /home/vm/mark3/trunk/embedded/stage/lib/avr/atmega328p/gcc/libmark3.a(driver.cpp.o)
 .data          0x0000000000800101        0x0 /home/vm/mark3/trunk/embedded/stage/lib/avr/atmega328p/gcc/libmark3.a(quantum.cpp.o)
 .data          0x0000000000800101        0x0 /home/vm/mark3/trunk/embedded/stage/lib/avr/atmega328p/gcc/libmark3.a(scheduler.cpp.o)
 .data          0x0000000000800101        0x0 /home/vm/mark3/trunk/embedded/stage/lib/avr/atmega328p/gcc/libheap.a(system_heap.cpp.o)
 .data          0x0000000000800101        0x0 /home/vm/mark3/trunk/embedded/stage/lib/avr/atmega328p/gcc/libheap.a(fixed_heap.cpp.o)
 .data          0x0000000000800101        0x0 /home/vm/mark3/trunk/embedded/stage/lib/avr/atmega328p/gcc/librandom.a(rand_lfsr.cpp.o)
 .data          0x0000000000800101        0x0 /home/vm/mark3/trunk/embedded/stage/lib/avr/atmega328p/gcc/libgraphics.a(graphics.cpp.o)
 .data          0x0000000000800101        0x8 /home/vm/mark3/trunk/embedded/stage/lib/avr/atmega328p/gcc/libarial_10.a(arial_10.cpp.o)
                0x0000000000800101                fntArial_10_False_False_False_
 .data          0x0000000000800109        0x0 /home/vm/mark3/trunk/embedded/stage/lib/avr/atmega328p/gcc/libdrvGraphicsFlavr.a(graphics_flavr.cpp.o)
 .data          0x0000000000800109        0x0 /home/vm/mark3/trunk/embedded/stage/lib/avr/atmega328p/gcc/libjoystick.a(joystick.cpp.o)
 .data          0x0000000000800109        0x0 /home/vm/mark3/trunk/embedded/stage/lib/avr/atmega328p/gcc/libdrvFlavrJoy.a(drvFlavrJoy.cpp.o)
 .data          0x0000000000800109        0x0 /home/vm/mark3/trunk/embedded/stage/lib/avr/atmega328p/gcc/libgui.a(gui.cpp.o)
 .data          0x0000000000800109        0x0 /home/vm/mark3/trunk/embedded/stage/lib/avr/atmega328p/gcc/libgui.a(control_brushpanel.cpp.o)
 .data          0x0000000000800109        0x0 /home/vm/mark3/trunk/embedded/stage/lib/avr/atmega328p/gcc/libgui.a(control_button.cpp.o)
 .data          0x0000000000800109        0x0 /home/vm/mark3/trunk/embedded/stage/lib/avr/atmega328p/gcc/libgui.a(control_checkbox.cpp.o)
 .data          0x0000000000800109        0x0 /home/vm/mark3/trunk/embedded/stage/lib/avr/atmega328p/gcc/libgui.a(control_groupbox.cpp.o)
 .data          0x0000000000800109        0x0 /home/vm/mark3/trunk/embedded/stage/lib/avr/atmega328p/gcc/libgui.a(control_label.cpp.o)
 .data          0x0000000000800109        0x0 /home/vm/mark3/trunk/embedded/stage/lib/avr/atmega328p/gcc/libgui.a(control_progress.cpp.o)
 .data          0x0000000000800109        0x0 /home/vm/mark3/trunk/embedded/stage/lib/avr/atmega328p/gcc/libgui.a(control_sevenseg.cpp.o)
 .data          0x0000000000800109        0x0 /usr/lib/gcc/avr/4.8.2/avr5/libgcc.a(_umulhisi3.o)
 .data          0x0000000000800109        0x0 /usr/lib/gcc/avr/4.8.2/avr5/libgcc.a(_muluhisi3.o)
 .data          0x0000000000800109        0x0 /usr/lib/gcc/avr/4.8.2/avr5/libgcc.a(_mulsi3.o)
 .data          0x0000000000800109        0x0 /usr/lib/gcc/avr/4.8.2/avr5/libgcc.a(_udivmodhi4.o)
 .data          0x0000000000800109        0x0 /usr/lib/gcc/avr/4.8.2/avr5/libgcc.a(_udivmodsi4.o)
 .data          0x0000000000800109        0x0 /usr/lib/gcc/avr/4.8.2/avr5/libgcc.a(_exit.o)
 .data          0x0000000000800109        0x0 /usr/lib/gcc/avr/4.8.2/avr5/libgcc.a(_copy_data.o)
 .data          0x0000000000800109        0x0 /usr/lib/gcc/avr/4.8.2/avr5/libgcc.a(_clear_bss.o)
 .data          0x0000000000800109        0x0 /usr/lib/gcc/avr/4.8.2/avr5/libgcc.a(_ctors.o)
 .data          0x0000000000800109        0x0 /usr/lib/gcc/avr/4.8.2/avr5/libgcc.a(_tablejump.o)
 *(.data*)
 *(.rodata)
 .rodata        0x0000000000800109       0x10 /home/vm/mark3/trunk/embedded/stage/lib/avr/atmega328p/gcc/libmark3.a(scheduler.cpp.o)
 .rodata        0x0000000000800119       0x10 /home/vm/mark3/trunk/embedded/stage/lib/avr/atmega328p/gcc/libgui.a(control_checkbox.cpp.o)
 .rodata        0x0000000000800129        0xa /home/vm/mark3/trunk/embedded/stage/lib/avr/atmega328p/gcc/libgui.a(control_sevenseg.cpp.o)
 *(.rodata*)
 .rodata.str1.1
                0x0000000000800133       0x9c ./obj/avr/atmega328p/gcc/main.cpp.o
                                         0x9d (size before relaxing)
 .rodata._ZTV14DoubleLinkList
                0x00000000008001cf        0x8 /home/vm/mark3/trunk/embedded/stage/lib/avr/atmega328p/gcc/libmark3.a(ll.cpp.o)
                0x00000000008001cf                _ZTV14DoubleLinkList
 .rodata._ZTV10ThreadList
                0x00000000008001d7        0x8 /home/vm/mark3/trunk/embedded/stage/lib/avr/atmega328p/gcc/libmark3.a(threadlist.cpp.o)
                0x00000000008001d7                _ZTV10ThreadList
 .rodata._ZTV9TimerList
                0x00000000008001df        0x8 /home/vm/mark3/trunk/embedded/stage/lib/avr/atmega328p/gcc/libmark3.a(timerlist.cpp.o)
                0x00000000008001df                _ZTV9TimerList
 .rodata.str1.1
                0x00000000008001e7        0xa /home/vm/mark3/trunk/embedded/stage/lib/avr/atmega328p/gcc/libmark3.a(driver.cpp.o)
 .rodata._ZTV7DevNull
                0x00000000008001f1       0x10 /home/vm/mark3/trunk/embedded/stage/lib/avr/atmega328p/gcc/libmark3.a(driver.cpp.o)
                0x00000000008001f1                _ZTV7DevNull
 .rodata.str1.1
                0x0000000000800201        0x6 /home/vm/mark3/trunk/embedded/stage/lib/avr/atmega328p/gcc/libarial_10.a(arial_10.cpp.o)
 .rodata._ZTV13GraphicsFlavr
                0x0000000000800207       0x30 /home/vm/mark3/trunk/embedded/stage/lib/avr/atmega328p/gcc/libdrvGraphicsFlavr.a(graphics_flavr.cpp.o)
                0x0000000000800207                _ZTV13GraphicsFlavr
 .rodata._ZTV13FlavrJoystick
                0x0000000000800237       0x10 /home/vm/mark3/trunk/embedded/stage/lib/avr/atmega328p/gcc/libdrvFlavrJoy.a(drvFlavrJoy.cpp.o)
                0x0000000000800237                _ZTV13FlavrJoystick
 .rodata._ZTV17BrushPanelControl
                0x0000000000800247        0xc /home/vm/mark3/trunk/embedded/stage/lib/avr/atmega328p/gcc/libgui.a(control_brushpanel.cpp.o)
                0x0000000000800247                _ZTV17BrushPanelControl
 .rodata.str1.1
                0x0000000000800253        0x7 /home/vm/mark3/trunk/embedded/stage/lib/avr/atmega328p/gcc/libgui.a(control_button.cpp.o)
 .rodata._ZTV13ButtonControl
                0x000000000080025a        0xc /home/vm/mark3/trunk/embedded/stage/lib/avr/atmega328p/gcc/libgui.a(control_button.cpp.o)
                0x000000000080025a                _ZTV13ButtonControl
 .rodata._ZTV15CheckBoxControl
                0x0000000000800266        0xc /home/vm/mark3/trunk/embedded/stage/lib/avr/atmega328p/gcc/libgui.a(control_checkbox.cpp.o)
                0x0000000000800266                _ZTV15CheckBoxControl
 .rodata._ZTV15GroupBoxControl
                0x0000000000800272        0xc /home/vm/mark3/trunk/embedded/stage/lib/avr/atmega328p/gcc/libgui.a(control_groupbox.cpp.o)
                0x0000000000800272                _ZTV15GroupBoxControl
 .rodata.str1.1
                0x0000000000000000        0x1 /home/vm/mark3/trunk/embedded/stage/lib/avr/atmega328p/gcc/libgui.a(control_label.cpp.o)
 .rodata._ZTV12LabelControl
                0x000000000080027e        0xc /home/vm/mark3/trunk/embedded/stage/lib/avr/atmega328p/gcc/libgui.a(control_label.cpp.o)
                0x000000000080027e                _ZTV12LabelControl
 .rodata._ZTV15ProgressControl
                0x000000000080028a        0xc /home/vm/mark3/trunk/embedded/stage/lib/avr/atmega328p/gcc/libgui.a(control_progress.cpp.o)
                0x000000000080028a                _ZTV15ProgressControl
 .rodata._ZTV15SevenSegControl
                0x0000000000800296        0xc /home/vm/mark3/trunk/embedded/stage/lib/avr/atmega328p/gcc/libgui.a(control_sevenseg.cpp.o)
                0x0000000000800296                _ZTV15SevenSegControl
 *(.gnu.linkonce.d*)
                0x00000000008002a2                . = ALIGN (0x2)
                0x00000000008002a2                _edata = .
                0x00000000008002a2                PROVIDE (__data_end, .)

.bss            0x00000000008002a2      0x51f
                0x00000000008002a2                PROVIDE (__bss_start, .)
 *(.bss)
 .bss           0x00000000008002a2      0x327 ./obj/avr/atmega328p/gcc/main.cpp.o
                0x00000000008002a2                awAppStack
                0x00000000008003e2                clAppThread
 .bss           0x00000000008005c9       0x46 /home/vm/mark3/trunk/embedded/stage/lib/avr/atmega328p/gcc/libmark3.a(message.cpp.o)
                0x00000000008005c9                _ZN17GlobalMessagePool8m_clListE
                0x00000000008005cf                _ZN17GlobalMessagePool16m_aclMessagePoolE
 .bss           0x000000000080060f        0x1 /home/vm/mark3/trunk/embedded/stage/lib/avr/atmega328p/gcc/libmark3.a(thread.cpp.o)
 .bss           0x0000000000800610       0x12 /home/vm/mark3/trunk/embedded/stage/lib/avr/atmega328p/gcc/libmark3.a(kernel.cpp.o)
                0x0000000000800610                _ZN6Kernel8m_clIdleE
                0x000000000080061c                _ZN6Kernel8m_pfIdleE
                0x000000000080061e                _ZN6Kernel9m_pfPanicE
                0x0000000000800620                _ZN6Kernel10m_bIsPanicE
                0x0000000000800621                _ZN6Kernel12m_bIsStartedE
 .bss           0x0000000000800622        0xb /home/vm/mark3/trunk/embedded/stage/lib/avr/atmega328p/gcc/libmark3.a(timerlist.cpp.o)
                0x0000000000800622                _ZN14TimerScheduler13m_clTimerListE
 .bss           0x000000000080062d        0xc /home/vm/mark3/trunk/embedded/stage/lib/avr/atmega328p/gcc/libmark3.a(kernelaware.cpp.o)
                0x000000000080062d                g_stKAData
                0x0000000000800637                g_u8KACommand
                0x0000000000800638                g_bIsKernelAware
 .bss           0x0000000000800639        0x4 /home/vm/mark3/trunk/embedded/stage/lib/avr/atmega328p/gcc/libmark3.a(kernelprofile.cpp.o)
                0x0000000000800639                _ZN8Profiler10m_u32EpochE
 .bss           0x000000000080063d        0xe /home/vm/mark3/trunk/embedded/stage/lib/avr/atmega328p/gcc/libmark3.a(driver.cpp.o)
                0x000000000080063d                _ZN10DriverList14m_clDriverListE
 .bss           0x000000000080064b       0x1a /home/vm/mark3/trunk/embedded/stage/lib/avr/atmega328p/gcc/libmark3.a(quantum.cpp.o)
                0x000000000080064b                _ZN7Quantum10m_bInTimerE
                0x000000000080064c                _ZN7Quantum9m_bActiveE
                0x000000000080064d                _ZN7Quantum16m_clQuantumTimerE
 .bss           0x0000000000800665       0x58 /home/vm/mark3/trunk/embedded/stage/lib/avr/atmega328p/gcc/libmark3.a(scheduler.cpp.o)
                0x0000000000800665                _ZN9Scheduler11m_u8PriFlagE
                0x0000000000800666                _ZN9Scheduler15m_aclPrioritiesE
                0x00000000008006ae                _ZN9Scheduler12m_clStopListE
                0x00000000008006b7                _ZN9Scheduler17m_bQueuedScheduleE
                0x00000000008006b8                _ZN9Scheduler10m_bEnabledE
                0x00000000008006b9                g_pclCurrent
                0x00000000008006bb                g_pclNext
 .bss           0x00000000008006bd       0xff /home/vm/mark3/trunk/embedded/stage/lib/avr/atmega328p/gcc/libheap.a(system_heap.cpp.o)
                0x00000000008006bd                _ZN10SystemHeap7m_bInitE
                0x00000000008006be                _ZN10SystemHeap14m_clSystemHeapE
                0x00000000008006c0                _ZN10SystemHeap21m_pclSystemHeapConfigE
                0x00000000008006f0                _ZN10SystemHeap12m_pu8RawHeapE
 .bss           0x00000000008007bc        0x3 /home/vm/mark3/trunk/embedded/stage/lib/avr/atmega328p/gcc/libdrvGraphicsFlavr.a(graphics_flavr.cpp.o)
                0x00000000008007bc                g_pclPoint
                0x00000000008007be                g_u8GfxCommand
 .bss           0x00000000008007bf        0x2 /home/vm/mark3/trunk/embedded/stage/lib/avr/atmega328p/gcc/libdrvFlavrJoy.a(drvFlavrJoy.cpp.o)
                0x00000000008007bf                g_u8FlavrJoyUp
                0x00000000008007c0                g_u8FlavrJoy
 *(.bss*)
 *(COMMON)
                0x00000000008007c1                PROVIDE (__bss_end, .)
                0x00000000000061f8                __data_load_start = LOADADDR (.data)
                0x000000000000639a                __data_load_end = (__data_load_start + SIZEOF (.data))

.noinit         0x00000000008007c1        0x0
                0x00000000008007c1                PROVIDE (__noinit_start, .)
 *(.noinit*)
                0x00000000008007c1                PROVIDE (__noinit_end, .)
                0x00000000008007c1                _end = .
                0x00000000008007c1                PROVIDE (__heap_start, .)

.eeprom         0x0000000000810000        0x0
 *(.eeprom*)
                0x0000000000810000                __eeprom_end = .

.fuse
 *(.fuse)
 *(.lfuse)
 *(.hfuse)
 *(.efuse)

.lock
 *(.lock*)

.signature
 *(.signature*)

.user_signatures
 *(.user_signatures*)

.stab           0x0000000000000000      0x6cc
 *(.stab)
 .stab          0x0000000000000000      0x6cc /usr/lib/gcc/avr/4.8.2/../../../avr/lib/avr5/crtm328p.o

.stabstr        0x0000000000000000       0x54
 *(.stabstr)
 .stabstr       0x0000000000000000       0x54 /usr/lib/gcc/avr/4.8.2/../../../avr/lib/avr5/crtm328p.o

.stab.excl
 *(.stab.excl)

.stab.exclstr
 *(.stab.exclstr)

.stab.index
 *(.stab.index)

.stab.indexstr
 *(.stab.indexstr)

.comment        0x0000000000000000       0x11
 *(.comment)
 .comment       0x0000000000000000       0x11 ./obj/avr/atmega328p/gcc/main.cpp.o
                                         0x12 (size before relaxing)
 .comment       0x0000000000000000       0x12 /home/vm/mark3/trunk/embedded/stage/lib/avr/atmega328p/gcc/libmark3.a(ll.cpp.o)
 .comment       0x0000000000000000       0x12 /home/vm/mark3/trunk/embedded/stage/lib/avr/atmega328p/gcc/libmark3.a(message.cpp.o)
 .comment       0x0000000000000000       0x12 /home/vm/mark3/trunk/embedded/stage/lib/avr/atmega328p/gcc/libmark3.a(ksemaphore.cpp.o)
 .comment       0x0000000000000000       0x12 /home/vm/mark3/trunk/embedded/stage/lib/avr/atmega328p/gcc/libmark3.a(thread.cpp.o)
 .comment       0x0000000000000000       0x12 /home/vm/mark3/trunk/embedded/stage/lib/avr/atmega328p/gcc/libmark3.a(threadlist.cpp.o)
 .comment       0x0000000000000000       0x12 /home/vm/mark3/trunk/embedded/stage/lib/avr/atmega328p/gcc/libmark3.a(kernel.cpp.o)
 .comment       0x0000000000000000       0x12 /home/vm/mark3/trunk/embedded/stage/lib/avr/atmega328p/gcc/libmark3.a(timer.cpp.o)
 .comment       0x0000000000000000       0x12 /home/vm/mark3/trunk/embedded/stage/lib/avr/atmega328p/gcc/libmark3.a(timerlist.cpp.o)
 .comment       0x0000000000000000       0x12 /home/vm/mark3/trunk/embedded/stage/lib/avr/atmega328p/gcc/libmark3.a(kernelaware.cpp.o)
 .comment       0x0000000000000000       0x12 /home/vm/mark3/trunk/embedded/stage/lib/avr/atmega328p/gcc/libmark3.a(threadport.cpp.o)
 .comment       0x0000000000000000       0x12 /home/vm/mark3/trunk/embedded/stage/lib/avr/atmega328p/gcc/libmark3.a(kernelswi.cpp.o)
 .comment       0x0000000000000000       0x12 /home/vm/mark3/trunk/embedded/stage/lib/avr/atmega328p/gcc/libmark3.a(kerneltimer.cpp.o)
 .comment       0x0000000000000000       0x12 /home/vm/mark3/trunk/embedded/stage/lib/avr/atmega328p/gcc/libmark3.a(kernelprofile.cpp.o)
 .comment       0x0000000000000000       0x12 /home/vm/mark3/trunk/embedded/stage/lib/avr/atmega328p/gcc/libmark3.a(blocking.cpp.o)
 .comment       0x0000000000000000       0x12 /home/vm/mark3/trunk/embedded/stage/lib/avr/atmega328p/gcc/libmark3.a(driver.cpp.o)
 .comment       0x0000000000000000       0x12 /home/vm/mark3/trunk/embedded/stage/lib/avr/atmega328p/gcc/libmark3.a(quantum.cpp.o)
 .comment       0x0000000000000000       0x12 /home/vm/mark3/trunk/embedded/stage/lib/avr/atmega328p/gcc/libmark3.a(scheduler.cpp.o)
 .comment       0x0000000000000000       0x12 /home/vm/mark3/trunk/embedded/stage/lib/avr/atmega328p/gcc/libheap.a(system_heap.cpp.o)
 .comment       0x0000000000000000       0x12 /home/vm/mark3/trunk/embedded/stage/lib/avr/atmega328p/gcc/libheap.a(fixed_heap.cpp.o)
 .comment       0x0000000000000000       0x12 /home/vm/mark3/trunk/embedded/stage/lib/avr/atmega328p/gcc/librandom.a(rand_lfsr.cpp.o)
 .comment       0x0000000000000000       0x12 /home/vm/mark3/trunk/embedded/stage/lib/avr/atmega328p/gcc/libgraphics.a(graphics.cpp.o)
 .comment       0x0000000000000000       0x12 /home/vm/mark3/trunk/embedded/stage/lib/avr/atmega328p/gcc/libarial_10.a(arial_10.cpp.o)
 .comment       0x0000000000000000       0x12 /home/vm/mark3/trunk/embedded/stage/lib/avr/atmega328p/gcc/libdrvGraphicsFlavr.a(graphics_flavr.cpp.o)
 .comment       0x0000000000000000       0x12 /home/vm/mark3/trunk/embedded/stage/lib/avr/atmega328p/gcc/libjoystick.a(joystick.cpp.o)
 .comment       0x0000000000000000       0x12 /home/vm/mark3/trunk/embedded/stage/lib/avr/atmega328p/gcc/libdrvFlavrJoy.a(drvFlavrJoy.cpp.o)
 .comment       0x0000000000000000       0x12 /home/vm/mark3/trunk/embedded/stage/lib/avr/atmega328p/gcc/libgui.a(gui.cpp.o)
 .comment       0x0000000000000000       0x12 /home/vm/mark3/trunk/embedded/stage/lib/avr/atmega328p/gcc/libgui.a(control_brushpanel.cpp.o)
 .comment       0x0000000000000000       0x12 /home/vm/mark3/trunk/embedded/stage/lib/avr/atmega328p/gcc/libgui.a(control_button.cpp.o)
 .comment       0x0000000000000000       0x12 /home/vm/mark3/trunk/embedded/stage/lib/avr/atmega328p/gcc/libgui.a(control_checkbox.cpp.o)
 .comment       0x0000000000000000       0x12 /home/vm/mark3/trunk/embedded/stage/lib/avr/atmega328p/gcc/libgui.a(control_groupbox.cpp.o)
 .comment       0x0000000000000000       0x12 /home/vm/mark3/trunk/embedded/stage/lib/avr/atmega328p/gcc/libgui.a(control_label.cpp.o)
 .comment       0x0000000000000000       0x12 /home/vm/mark3/trunk/embedded/stage/lib/avr/atmega328p/gcc/libgui.a(control_progress.cpp.o)
 .comment       0x0000000000000000       0x12 /home/vm/mark3/trunk/embedded/stage/lib/avr/atmega328p/gcc/libgui.a(control_sevenseg.cpp.o)

.debug
 *(.debug)

.line
 *(.line)

.debug_srcinfo
 *(.debug_srcinfo)

.debug_sfnames
 *(.debug_sfnames)

.debug_aranges
 *(.debug_aranges)

.debug_pubnames
 *(.debug_pubnames)

.debug_info
 *(.debug_info)
 *(.gnu.linkonce.wi.*)

.debug_abbrev
 *(.debug_abbrev)

.debug_line
 *(.debug_line)

.debug_frame
 *(.debug_frame)

.debug_str
 *(.debug_str)

.debug_loc
 *(.debug_loc)

.debug_macinfo
 *(.debug_macinfo)

.debug_pubtypes
 *(.debug_pubtypes)

.debug_ranges
 *(.debug_ranges)

.debug_macro
 *(.debug_macro)
OUTPUT(./obj/avr/atmega328p/gcc/gui_test.elf elf32-avr)
LOAD linker stubs
