Archive member included because of file (symbol)

c:/Projects/Mark3_full_repo/trunk/embedded/stage/lib/avr/atmega328p/gcc/libmark3.a(ll.cpp.o)
                              ./obj/avr/atmega328p/gcc/main.cpp.o (_ZN12LinkListNode9ClearNodeEv)
c:/Projects/Mark3_full_repo/trunk/embedded/stage/lib/avr/atmega328p/gcc/libmark3.a(message.cpp.o)
                              ./obj/avr/atmega328p/gcc/main.cpp.o (_ZN12MessageQueue4InitEv)
c:/Projects/Mark3_full_repo/trunk/embedded/stage/lib/avr/atmega328p/gcc/libmark3.a(ksemaphore.cpp.o)
                              c:/Projects/Mark3_full_repo/trunk/embedded/stage/lib/avr/atmega328p/gcc/libmark3.a(message.cpp.o) (_ZN9Semaphore4InitEjj)
c:/Projects/Mark3_full_repo/trunk/embedded/stage/lib/avr/atmega328p/gcc/libmark3.a(thread.cpp.o)
                              ./obj/avr/atmega328p/gcc/main.cpp.o (_ZN6Thread4InitEPhjhPFvPvES1_)
c:/Projects/Mark3_full_repo/trunk/embedded/stage/lib/avr/atmega328p/gcc/libmark3.a(threadlist.cpp.o)
                              c:/Projects/Mark3_full_repo/trunk/embedded/stage/lib/avr/atmega328p/gcc/libmark3.a(ksemaphore.cpp.o) (_ZN10ThreadList13HighestWaiterEv)
c:/Projects/Mark3_full_repo/trunk/embedded/stage/lib/avr/atmega328p/gcc/libmark3.a(kernel.cpp.o)
                              ./obj/avr/atmega328p/gcc/main.cpp.o (_ZN6Kernel4InitEv)
c:/Projects/Mark3_full_repo/trunk/embedded/stage/lib/avr/atmega328p/gcc/libmark3.a(timer.cpp.o)
                              c:/Projects/Mark3_full_repo/trunk/embedded/stage/lib/avr/atmega328p/gcc/libmark3.a(ksemaphore.cpp.o) (_ZN5Timer4StopEv)
c:/Projects/Mark3_full_repo/trunk/embedded/stage/lib/avr/atmega328p/gcc/libmark3.a(timerlist.cpp.o)
                              c:/Projects/Mark3_full_repo/trunk/embedded/stage/lib/avr/atmega328p/gcc/libmark3.a(kernel.cpp.o) (_ZN9TimerList4InitEv)
c:/Projects/Mark3_full_repo/trunk/embedded/stage/lib/avr/atmega328p/gcc/libmark3.a(kernelaware.cpp.o)
                              c:/Projects/Mark3_full_repo/trunk/embedded/stage/lib/avr/atmega328p/gcc/libmark3.a(kernel.cpp.o) (_ZN11KernelAware13ExitSimulatorEv)
c:/Projects/Mark3_full_repo/trunk/embedded/stage/lib/avr/atmega328p/gcc/libmark3.a(threadport.cpp.o)
                              c:/Projects/Mark3_full_repo/trunk/embedded/stage/lib/avr/atmega328p/gcc/libmark3.a(thread.cpp.o) (_ZN10ThreadPort9InitStackEP6Thread)
c:/Projects/Mark3_full_repo/trunk/embedded/stage/lib/avr/atmega328p/gcc/libmark3.a(kernelswi.cpp.o)
                              c:/Projects/Mark3_full_repo/trunk/embedded/stage/lib/avr/atmega328p/gcc/libmark3.a(threadport.cpp.o) (_ZN9KernelSWI6ConfigEv)
c:/Projects/Mark3_full_repo/trunk/embedded/stage/lib/avr/atmega328p/gcc/libmark3.a(kerneltimer.cpp.o)
                              c:/Projects/Mark3_full_repo/trunk/embedded/stage/lib/avr/atmega328p/gcc/libmark3.a(threadport.cpp.o) (_ZN11KernelTimer6ConfigEv)
c:/Projects/Mark3_full_repo/trunk/embedded/stage/lib/avr/atmega328p/gcc/libmark3.a(kernelprofile.cpp.o)
                              c:/Projects/Mark3_full_repo/trunk/embedded/stage/lib/avr/atmega328p/gcc/libmark3.a(kernel.cpp.o) (_ZN8Profiler4InitEv)
c:/Projects/Mark3_full_repo/trunk/embedded/stage/lib/avr/atmega328p/gcc/libmark3.a(blocking.cpp.o)
                              c:/Projects/Mark3_full_repo/trunk/embedded/stage/lib/avr/atmega328p/gcc/libmark3.a(ksemaphore.cpp.o) (_ZN14BlockingObject7UnBlockEP6Thread)
c:/Projects/Mark3_full_repo/trunk/embedded/stage/lib/avr/atmega328p/gcc/libmark3.a(driver.cpp.o)
                              c:/Projects/Mark3_full_repo/trunk/embedded/stage/lib/avr/atmega328p/gcc/libmark3.a(kernel.cpp.o) (_ZN10DriverList4InitEv)
c:/Projects/Mark3_full_repo/trunk/embedded/stage/lib/avr/atmega328p/gcc/libmark3.a(quantum.cpp.o)
                              c:/Projects/Mark3_full_repo/trunk/embedded/stage/lib/avr/atmega328p/gcc/libmark3.a(thread.cpp.o) (_ZN7Quantum9AddThreadEP6Thread)
c:/Projects/Mark3_full_repo/trunk/embedded/stage/lib/avr/atmega328p/gcc/libmark3.a(scheduler.cpp.o)
                              c:/Projects/Mark3_full_repo/trunk/embedded/stage/lib/avr/atmega328p/gcc/libmark3.a(kernel.cpp.o) (_ZN9Scheduler4InitEv)
c:/Projects/Mark3_full_repo/trunk/embedded/stage/lib/avr/atmega328p/gcc/libheap.a(system_heap.cpp.o)
                              ./obj/avr/atmega328p/gcc/main.cpp.o (_ZN10SystemHeap4InitEv)
c:/Projects/Mark3_full_repo/trunk/embedded/stage/lib/avr/atmega328p/gcc/libheap.a(fixed_heap.cpp.o)
                              c:/Projects/Mark3_full_repo/trunk/embedded/stage/lib/avr/atmega328p/gcc/libheap.a(system_heap.cpp.o) (_ZN9FixedHeap6CreateEPvP10HeapConfig)
c:/Projects/Mark3_full_repo/trunk/embedded/stage/lib/avr/atmega328p/gcc/librandom.a(rand_lfsr.cpp.o)
                              ./obj/avr/atmega328p/gcc/main.cpp.o (_ZN12PseudoRandomC1Ev)
c:/Projects/Mark3_full_repo/trunk/embedded/stage/lib/avr/atmega328p/gcc/libgraphics.a(graphics.cpp.o)
                              ./obj/avr/atmega328p/gcc/main.cpp.o (_ZN14GraphicsDriver9SetWindowEP12DrawWindow_t)
c:/Projects/Mark3_full_repo/trunk/embedded/stage/lib/avr/atmega328p/gcc/libarial_10.a(arial_10.cpp.o)
                              ./obj/avr/atmega328p/gcc/main.cpp.o (fntArial_10_False_False_False_)
c:/Projects/Mark3_full_repo/trunk/embedded/stage/lib/avr/atmega328p/gcc/libdrvGraphicsFlavr.a(graphics_flavr.cpp.o)
                              ./obj/avr/atmega328p/gcc/main.cpp.o (_ZN13GraphicsFlavr4FlipEv)
c:/Projects/Mark3_full_repo/trunk/embedded/stage/lib/avr/atmega328p/gcc/libjoystick.a(joystick.cpp.o)
                              ./obj/avr/atmega328p/gcc/main.cpp.o (_ZN14JoystickDriver4ScanEv)
c:/Projects/Mark3_full_repo/trunk/embedded/stage/lib/avr/atmega328p/gcc/libdrvFlavrJoy.a(drvFlavrJoy.cpp.o)
                              ./obj/avr/atmega328p/gcc/main.cpp.o (_ZN13FlavrJoystick4InitEv)
c:/Projects/Mark3_full_repo/trunk/embedded/stage/lib/avr/atmega328p/gcc/libgui.a(gui.cpp.o)
                              ./obj/avr/atmega328p/gcc/main.cpp.o (_ZN9GuiWindow6RedrawEb)
c:/Projects/Mark3_full_repo/trunk/embedded/stage/lib/avr/atmega328p/gcc/libgui.a(control_brushpanel.cpp.o)
                              ./obj/avr/atmega328p/gcc/main.cpp.o (_ZTV17BrushPanelControl)
c:/Projects/Mark3_full_repo/trunk/embedded/stage/lib/avr/atmega328p/gcc/libgui.a(control_button.cpp.o)
                              ./obj/avr/atmega328p/gcc/main.cpp.o (_ZN13ButtonControl4InitEv)
c:/Projects/Mark3_full_repo/trunk/embedded/stage/lib/avr/atmega328p/gcc/libgui.a(control_checkbox.cpp.o)
                              ./obj/avr/atmega328p/gcc/main.cpp.o (_ZN15CheckBoxControl4InitEv)
c:/Projects/Mark3_full_repo/trunk/embedded/stage/lib/avr/atmega328p/gcc/libgui.a(control_groupbox.cpp.o)
                              ./obj/avr/atmega328p/gcc/main.cpp.o (_ZN15GroupBoxControl4InitEv)
c:/Projects/Mark3_full_repo/trunk/embedded/stage/lib/avr/atmega328p/gcc/libgui.a(control_label.cpp.o)
                              ./obj/avr/atmega328p/gcc/main.cpp.o (_ZN12LabelControl4InitEv)
c:/Projects/Mark3_full_repo/trunk/embedded/stage/lib/avr/atmega328p/gcc/libgui.a(control_progress.cpp.o)
                              ./obj/avr/atmega328p/gcc/main.cpp.o (_ZN15ProgressControl4InitEv)
c:/Projects/Mark3_full_repo/trunk/embedded/stage/lib/avr/atmega328p/gcc/libgui.a(control_sevenseg.cpp.o)
                              ./obj/avr/atmega328p/gcc/main.cpp.o (_ZN15SevenSegControl4InitEv)
c:/program files (x86)/atmel/atmel toolchain/avr8 gcc/native/3.4.1061/avr8-gnu-toolchain/bin/../lib/gcc/avr/4.8.1/avr5\libgcc.a(_mulsi3.o)
                              c:/Projects/Mark3_full_repo/trunk/embedded/stage/lib/avr/atmega328p/gcc/libgraphics.a(graphics.cpp.o) (__mulsi3)
c:/program files (x86)/atmel/atmel toolchain/avr8 gcc/native/3.4.1061/avr8-gnu-toolchain/bin/../lib/gcc/avr/4.8.1/avr5\libgcc.a(_udivmodhi4.o)
                              ./obj/avr/atmega328p/gcc/main.cpp.o (__udivmodhi4)
c:/program files (x86)/atmel/atmel toolchain/avr8 gcc/native/3.4.1061/avr8-gnu-toolchain/bin/../lib/gcc/avr/4.8.1/avr5\libgcc.a(_udivmodsi4.o)
                              c:/Projects/Mark3_full_repo/trunk/embedded/stage/lib/avr/atmega328p/gcc/libmark3.a(timer.cpp.o) (__udivmodsi4)
c:/program files (x86)/atmel/atmel toolchain/avr8 gcc/native/3.4.1061/avr8-gnu-toolchain/bin/../lib/gcc/avr/4.8.1/avr5\libgcc.a(_exit.o)
                              c:/program files (x86)/atmel/atmel toolchain/avr8 gcc/native/3.4.1061/avr8-gnu-toolchain/bin/../lib/gcc/avr/4.8.1/../../../../avr/lib/avr5/crtm328p.o (exit)
c:/program files (x86)/atmel/atmel toolchain/avr8 gcc/native/3.4.1061/avr8-gnu-toolchain/bin/../lib/gcc/avr/4.8.1/avr5\libgcc.a(_copy_data.o)
                              ./obj/avr/atmega328p/gcc/main.cpp.o (__do_copy_data)
c:/program files (x86)/atmel/atmel toolchain/avr8 gcc/native/3.4.1061/avr8-gnu-toolchain/bin/../lib/gcc/avr/4.8.1/avr5\libgcc.a(_clear_bss.o)
                              ./obj/avr/atmega328p/gcc/main.cpp.o (__do_clear_bss)
c:/program files (x86)/atmel/atmel toolchain/avr8 gcc/native/3.4.1061/avr8-gnu-toolchain/bin/../lib/gcc/avr/4.8.1/avr5\libgcc.a(_ctors.o)
                              ./obj/avr/atmega328p/gcc/main.cpp.o (__do_global_ctors)
c:/program files (x86)/atmel/atmel toolchain/avr8 gcc/native/3.4.1061/avr8-gnu-toolchain/bin/../lib/gcc/avr/4.8.1/avr5\libgcc.a(_umulhisi3.o)
                              c:/Projects/Mark3_full_repo/trunk/embedded/stage/lib/avr/atmega328p/gcc/libgraphics.a(graphics.cpp.o) (__umulhisi3)
c:/program files (x86)/atmel/atmel toolchain/avr8 gcc/native/3.4.1061/avr8-gnu-toolchain/bin/../lib/gcc/avr/4.8.1/avr5\libgcc.a(_muluhisi3.o)
                              c:/Projects/Mark3_full_repo/trunk/embedded/stage/lib/avr/atmega328p/gcc/libmark3.a(timer.cpp.o) (__muluhisi3)
c:/program files (x86)/atmel/atmel toolchain/avr8 gcc/native/3.4.1061/avr8-gnu-toolchain/bin/../lib/gcc/avr/4.8.1/avr5\libgcc.a(_tablejump.o)
                              c:/program files (x86)/atmel/atmel toolchain/avr8 gcc/native/3.4.1061/avr8-gnu-toolchain/bin/../lib/gcc/avr/4.8.1/avr5\libgcc.a(_ctors.o) (__tablejump__)

Discarded input sections

 .data          0x00000000        0x0 c:/program files (x86)/atmel/atmel toolchain/avr8 gcc/native/3.4.1061/avr8-gnu-toolchain/bin/../lib/gcc/avr/4.8.1/../../../../avr/lib/avr5/crtm328p.o
 .bss           0x00000000        0x0 c:/program files (x86)/atmel/atmel toolchain/avr8 gcc/native/3.4.1061/avr8-gnu-toolchain/bin/../lib/gcc/avr/4.8.1/../../../../avr/lib/avr5/crtm328p.o
 .text          0x00000000        0x0 ./obj/avr/atmega328p/gcc/main.cpp.o
 .group         0x00000000        0x8 c:/Projects/Mark3_full_repo/trunk/embedded/stage/lib/avr/atmega328p/gcc/libmark3.a(ll.cpp.o)
 .group         0x00000000        0x8 c:/Projects/Mark3_full_repo/trunk/embedded/stage/lib/avr/atmega328p/gcc/libmark3.a(ll.cpp.o)
 .text          0x00000000        0x0 c:/Projects/Mark3_full_repo/trunk/embedded/stage/lib/avr/atmega328p/gcc/libmark3.a(ll.cpp.o)
 .data          0x00000000        0x0 c:/Projects/Mark3_full_repo/trunk/embedded/stage/lib/avr/atmega328p/gcc/libmark3.a(ll.cpp.o)
 .bss           0x00000000        0x0 c:/Projects/Mark3_full_repo/trunk/embedded/stage/lib/avr/atmega328p/gcc/libmark3.a(ll.cpp.o)
 .text._ZN16CircularLinkList13PivotBackwardEv
                0x00000000       0x28 c:/Projects/Mark3_full_repo/trunk/embedded/stage/lib/avr/atmega328p/gcc/libmark3.a(ll.cpp.o)
 .rodata._ZTV16CircularLinkList
                0x00000000        0x8 c:/Projects/Mark3_full_repo/trunk/embedded/stage/lib/avr/atmega328p/gcc/libmark3.a(ll.cpp.o)
 .text          0x00000000        0x0 c:/Projects/Mark3_full_repo/trunk/embedded/stage/lib/avr/atmega328p/gcc/libmark3.a(message.cpp.o)
 .data          0x00000000        0x0 c:/Projects/Mark3_full_repo/trunk/embedded/stage/lib/avr/atmega328p/gcc/libmark3.a(message.cpp.o)
 .text._ZN12MessageQueue7ReceiveEm
                0x00000000        0x4 c:/Projects/Mark3_full_repo/trunk/embedded/stage/lib/avr/atmega328p/gcc/libmark3.a(message.cpp.o)
 .text._ZN12MessageQueue8GetCountEv
                0x00000000        0x4 c:/Projects/Mark3_full_repo/trunk/embedded/stage/lib/avr/atmega328p/gcc/libmark3.a(message.cpp.o)
 .text          0x00000000        0x0 c:/Projects/Mark3_full_repo/trunk/embedded/stage/lib/avr/atmega328p/gcc/libmark3.a(ksemaphore.cpp.o)
 .data          0x00000000        0x0 c:/Projects/Mark3_full_repo/trunk/embedded/stage/lib/avr/atmega328p/gcc/libmark3.a(ksemaphore.cpp.o)
 .bss           0x00000000        0x0 c:/Projects/Mark3_full_repo/trunk/embedded/stage/lib/avr/atmega328p/gcc/libmark3.a(ksemaphore.cpp.o)
 .text._ZN9Semaphore6WakeMeEP6Thread
                0x00000000        0x4 c:/Projects/Mark3_full_repo/trunk/embedded/stage/lib/avr/atmega328p/gcc/libmark3.a(ksemaphore.cpp.o)
 .text._ZN9Semaphore4PendEv
                0x00000000        0xa c:/Projects/Mark3_full_repo/trunk/embedded/stage/lib/avr/atmega328p/gcc/libmark3.a(ksemaphore.cpp.o)
 .text._ZN9Semaphore8GetCountEv
                0x00000000       0x22 c:/Projects/Mark3_full_repo/trunk/embedded/stage/lib/avr/atmega328p/gcc/libmark3.a(ksemaphore.cpp.o)
 .text          0x00000000        0x0 c:/Projects/Mark3_full_repo/trunk/embedded/stage/lib/avr/atmega328p/gcc/libmark3.a(thread.cpp.o)
 .data          0x00000000        0x0 c:/Projects/Mark3_full_repo/trunk/embedded/stage/lib/avr/atmega328p/gcc/libmark3.a(thread.cpp.o)
 .text._ZL19ThreadSleepCallbackP6ThreadPv
                0x00000000        0x6 c:/Projects/Mark3_full_repo/trunk/embedded/stage/lib/avr/atmega328p/gcc/libmark3.a(thread.cpp.o)
 .text._ZN6Thread5SleepEm
                0x00000000       0xda c:/Projects/Mark3_full_repo/trunk/embedded/stage/lib/avr/atmega328p/gcc/libmark3.a(thread.cpp.o)
 .text._ZN6Thread6USleepEm
                0x00000000       0xda c:/Projects/Mark3_full_repo/trunk/embedded/stage/lib/avr/atmega328p/gcc/libmark3.a(thread.cpp.o)
 .text._ZN6Thread13GetStackSlackEv
                0x00000000       0x46 c:/Projects/Mark3_full_repo/trunk/embedded/stage/lib/avr/atmega328p/gcc/libmark3.a(thread.cpp.o)
 .text._ZN6Thread15SetPriorityBaseEh
                0x00000000       0x40 c:/Projects/Mark3_full_repo/trunk/embedded/stage/lib/avr/atmega328p/gcc/libmark3.a(thread.cpp.o)
 .text._ZN6Thread15InheritPriorityEh
                0x00000000       0x16 c:/Projects/Mark3_full_repo/trunk/embedded/stage/lib/avr/atmega328p/gcc/libmark3.a(thread.cpp.o)
 .text._ZN6Thread4StopEv
                0x00000000       0xa2 c:/Projects/Mark3_full_repo/trunk/embedded/stage/lib/avr/atmega328p/gcc/libmark3.a(thread.cpp.o)
 .text._ZN6Thread4ExitEv
                0x00000000       0x8a c:/Projects/Mark3_full_repo/trunk/embedded/stage/lib/avr/atmega328p/gcc/libmark3.a(thread.cpp.o)
 .text._ZN6Thread11SetPriorityEh
                0x00000000       0xa4 c:/Projects/Mark3_full_repo/trunk/embedded/stage/lib/avr/atmega328p/gcc/libmark3.a(thread.cpp.o)
 .text._ZN6Thread8GetTimerEv
                0x00000000        0x4 c:/Projects/Mark3_full_repo/trunk/embedded/stage/lib/avr/atmega328p/gcc/libmark3.a(thread.cpp.o)
 .group         0x00000000        0x8 c:/Projects/Mark3_full_repo/trunk/embedded/stage/lib/avr/atmega328p/gcc/libmark3.a(threadlist.cpp.o)
 .text          0x00000000        0x0 c:/Projects/Mark3_full_repo/trunk/embedded/stage/lib/avr/atmega328p/gcc/libmark3.a(threadlist.cpp.o)
 .data          0x00000000        0x0 c:/Projects/Mark3_full_repo/trunk/embedded/stage/lib/avr/atmega328p/gcc/libmark3.a(threadlist.cpp.o)
 .bss           0x00000000        0x0 c:/Projects/Mark3_full_repo/trunk/embedded/stage/lib/avr/atmega328p/gcc/libmark3.a(threadlist.cpp.o)
 .text._ZN10ThreadList3AddEP12LinkListNodePhh
                0x00000000       0x1c c:/Projects/Mark3_full_repo/trunk/embedded/stage/lib/avr/atmega328p/gcc/libmark3.a(threadlist.cpp.o)
 .text          0x00000000        0x0 c:/Projects/Mark3_full_repo/trunk/embedded/stage/lib/avr/atmega328p/gcc/libmark3.a(kernel.cpp.o)
 .data          0x00000000        0x0 c:/Projects/Mark3_full_repo/trunk/embedded/stage/lib/avr/atmega328p/gcc/libmark3.a(kernel.cpp.o)
 .text._ZN6Kernel5PanicEj
                0x00000000       0x1a c:/Projects/Mark3_full_repo/trunk/embedded/stage/lib/avr/atmega328p/gcc/libmark3.a(kernel.cpp.o)
 .text          0x00000000        0x0 c:/Projects/Mark3_full_repo/trunk/embedded/stage/lib/avr/atmega328p/gcc/libmark3.a(timer.cpp.o)
 .data          0x00000000        0x0 c:/Projects/Mark3_full_repo/trunk/embedded/stage/lib/avr/atmega328p/gcc/libmark3.a(timer.cpp.o)
 .bss           0x00000000        0x0 c:/Projects/Mark3_full_repo/trunk/embedded/stage/lib/avr/atmega328p/gcc/libmark3.a(timer.cpp.o)
 .text._ZN5Timer16SetIntervalTicksEm
                0x00000000        0xc c:/Projects/Mark3_full_repo/trunk/embedded/stage/lib/avr/atmega328p/gcc/libmark3.a(timer.cpp.o)
 .text._ZN5Timer18SetIntervalSecondsEm
                0x00000000       0x18 c:/Projects/Mark3_full_repo/trunk/embedded/stage/lib/avr/atmega328p/gcc/libmark3.a(timer.cpp.o)
 .text._ZN5Timer5StartEbmmPFvP6ThreadPvES2_
                0x00000000       0x7e c:/Projects/Mark3_full_repo/trunk/embedded/stage/lib/avr/atmega328p/gcc/libmark3.a(timer.cpp.o)
 .text._ZN5Timer19SetIntervalUSecondsEm
                0x00000000       0x34 c:/Projects/Mark3_full_repo/trunk/embedded/stage/lib/avr/atmega328p/gcc/libmark3.a(timer.cpp.o)
 .text._ZN5Timer12SetToleranceEm
                0x00000000        0xc c:/Projects/Mark3_full_repo/trunk/embedded/stage/lib/avr/atmega328p/gcc/libmark3.a(timer.cpp.o)
 .group         0x00000000        0x8 c:/Projects/Mark3_full_repo/trunk/embedded/stage/lib/avr/atmega328p/gcc/libmark3.a(timerlist.cpp.o)
 .text          0x00000000        0x0 c:/Projects/Mark3_full_repo/trunk/embedded/stage/lib/avr/atmega328p/gcc/libmark3.a(timerlist.cpp.o)
 .data          0x00000000        0x0 c:/Projects/Mark3_full_repo/trunk/embedded/stage/lib/avr/atmega328p/gcc/libmark3.a(timerlist.cpp.o)
 .text          0x00000000        0x0 c:/Projects/Mark3_full_repo/trunk/embedded/stage/lib/avr/atmega328p/gcc/libmark3.a(kernelaware.cpp.o)
 .data          0x00000000        0x0 c:/Projects/Mark3_full_repo/trunk/embedded/stage/lib/avr/atmega328p/gcc/libmark3.a(kernelaware.cpp.o)
 .text._ZN11KernelAware11ProfileInitEPKc
                0x00000000       0x2a c:/Projects/Mark3_full_repo/trunk/embedded/stage/lib/avr/atmega328p/gcc/libmark3.a(kernelaware.cpp.o)
 .text._ZN11KernelAware12ProfileStartEv
                0x00000000        0x8 c:/Projects/Mark3_full_repo/trunk/embedded/stage/lib/avr/atmega328p/gcc/libmark3.a(kernelaware.cpp.o)
 .text._ZN11KernelAware11ProfileStopEv
                0x00000000        0x8 c:/Projects/Mark3_full_repo/trunk/embedded/stage/lib/avr/atmega328p/gcc/libmark3.a(kernelaware.cpp.o)
 .text._ZN11KernelAware13ProfileReportEv
                0x00000000        0x8 c:/Projects/Mark3_full_repo/trunk/embedded/stage/lib/avr/atmega328p/gcc/libmark3.a(kernelaware.cpp.o)
 .text._ZN11KernelAware13ExitSimulatorEv
                0x00000000        0x8 c:/Projects/Mark3_full_repo/trunk/embedded/stage/lib/avr/atmega328p/gcc/libmark3.a(kernelaware.cpp.o)
 .text._ZN11KernelAware7Trace_iEjjjjj20KernelAwareCommand_t
                0x00000000       0x54 c:/Projects/Mark3_full_repo/trunk/embedded/stage/lib/avr/atmega328p/gcc/libmark3.a(kernelaware.cpp.o)
 .text._ZN11KernelAware5TraceEjjj
                0x00000000       0x1e c:/Projects/Mark3_full_repo/trunk/embedded/stage/lib/avr/atmega328p/gcc/libmark3.a(kernelaware.cpp.o)
 .text._ZN11KernelAware5TraceEjjjj
                0x00000000       0x1a c:/Projects/Mark3_full_repo/trunk/embedded/stage/lib/avr/atmega328p/gcc/libmark3.a(kernelaware.cpp.o)
 .text._ZN11KernelAware5TraceEjjjjj
                0x00000000       0x16 c:/Projects/Mark3_full_repo/trunk/embedded/stage/lib/avr/atmega328p/gcc/libmark3.a(kernelaware.cpp.o)
 .text._ZN11KernelAware16IsSimulatorAwareEv
                0x00000000        0x6 c:/Projects/Mark3_full_repo/trunk/embedded/stage/lib/avr/atmega328p/gcc/libmark3.a(kernelaware.cpp.o)
 .text          0x00000000        0x0 c:/Projects/Mark3_full_repo/trunk/embedded/stage/lib/avr/atmega328p/gcc/libmark3.a(threadport.cpp.o)
 .data          0x00000000        0x0 c:/Projects/Mark3_full_repo/trunk/embedded/stage/lib/avr/atmega328p/gcc/libmark3.a(threadport.cpp.o)
 .bss           0x00000000        0x2 c:/Projects/Mark3_full_repo/trunk/embedded/stage/lib/avr/atmega328p/gcc/libmark3.a(threadport.cpp.o)
 .text          0x00000000        0x0 c:/Projects/Mark3_full_repo/trunk/embedded/stage/lib/avr/atmega328p/gcc/libmark3.a(kernelswi.cpp.o)
 .data          0x00000000        0x0 c:/Projects/Mark3_full_repo/trunk/embedded/stage/lib/avr/atmega328p/gcc/libmark3.a(kernelswi.cpp.o)
 .bss           0x00000000        0x0 c:/Projects/Mark3_full_repo/trunk/embedded/stage/lib/avr/atmega328p/gcc/libmark3.a(kernelswi.cpp.o)
 .text._ZN9KernelSWI4StopEv
                0x00000000        0x4 c:/Projects/Mark3_full_repo/trunk/embedded/stage/lib/avr/atmega328p/gcc/libmark3.a(kernelswi.cpp.o)
 .text._ZN9KernelSWI5ClearEv
                0x00000000        0x4 c:/Projects/Mark3_full_repo/trunk/embedded/stage/lib/avr/atmega328p/gcc/libmark3.a(kernelswi.cpp.o)
 .text          0x00000000        0x0 c:/Projects/Mark3_full_repo/trunk/embedded/stage/lib/avr/atmega328p/gcc/libmark3.a(kerneltimer.cpp.o)
 .data          0x00000000        0x0 c:/Projects/Mark3_full_repo/trunk/embedded/stage/lib/avr/atmega328p/gcc/libmark3.a(kerneltimer.cpp.o)
 .bss           0x00000000        0x0 c:/Projects/Mark3_full_repo/trunk/embedded/stage/lib/avr/atmega328p/gcc/libmark3.a(kerneltimer.cpp.o)
 .text._ZN11KernelTimer2DIEv
                0x00000000       0x14 c:/Projects/Mark3_full_repo/trunk/embedded/stage/lib/avr/atmega328p/gcc/libmark3.a(kerneltimer.cpp.o)
 .text._ZN11KernelTimer2RIEb
                0x00000000       0x18 c:/Projects/Mark3_full_repo/trunk/embedded/stage/lib/avr/atmega328p/gcc/libmark3.a(kerneltimer.cpp.o)
 .text._ZN11KernelTimer2EIEv
                0x00000000        0x6 c:/Projects/Mark3_full_repo/trunk/embedded/stage/lib/avr/atmega328p/gcc/libmark3.a(kerneltimer.cpp.o)
 .text          0x00000000        0x0 c:/Projects/Mark3_full_repo/trunk/embedded/stage/lib/avr/atmega328p/gcc/libmark3.a(kernelprofile.cpp.o)
 .data          0x00000000        0x0 c:/Projects/Mark3_full_repo/trunk/embedded/stage/lib/avr/atmega328p/gcc/libmark3.a(kernelprofile.cpp.o)
 .text._ZN8Profiler5StartEv
                0x00000000       0x16 c:/Projects/Mark3_full_repo/trunk/embedded/stage/lib/avr/atmega328p/gcc/libmark3.a(kernelprofile.cpp.o)
 .text._ZN8Profiler4StopEv
                0x00000000       0x14 c:/Projects/Mark3_full_repo/trunk/embedded/stage/lib/avr/atmega328p/gcc/libmark3.a(kernelprofile.cpp.o)
 .text._ZN8Profiler4ReadEv
                0x00000000       0x2c c:/Projects/Mark3_full_repo/trunk/embedded/stage/lib/avr/atmega328p/gcc/libmark3.a(kernelprofile.cpp.o)
 .text          0x00000000        0x0 c:/Projects/Mark3_full_repo/trunk/embedded/stage/lib/avr/atmega328p/gcc/libmark3.a(blocking.cpp.o)
 .data          0x00000000        0x0 c:/Projects/Mark3_full_repo/trunk/embedded/stage/lib/avr/atmega328p/gcc/libmark3.a(blocking.cpp.o)
 .bss           0x00000000        0x0 c:/Projects/Mark3_full_repo/trunk/embedded/stage/lib/avr/atmega328p/gcc/libmark3.a(blocking.cpp.o)
 .group         0x00000000        0x8 c:/Projects/Mark3_full_repo/trunk/embedded/stage/lib/avr/atmega328p/gcc/libmark3.a(driver.cpp.o)
 .group         0x00000000        0x8 c:/Projects/Mark3_full_repo/trunk/embedded/stage/lib/avr/atmega328p/gcc/libmark3.a(driver.cpp.o)
 .group         0x00000000        0x8 c:/Projects/Mark3_full_repo/trunk/embedded/stage/lib/avr/atmega328p/gcc/libmark3.a(driver.cpp.o)
 .group         0x00000000        0x8 c:/Projects/Mark3_full_repo/trunk/embedded/stage/lib/avr/atmega328p/gcc/libmark3.a(driver.cpp.o)
 .group         0x00000000        0x8 c:/Projects/Mark3_full_repo/trunk/embedded/stage/lib/avr/atmega328p/gcc/libmark3.a(driver.cpp.o)
 .group         0x00000000        0x8 c:/Projects/Mark3_full_repo/trunk/embedded/stage/lib/avr/atmega328p/gcc/libmark3.a(driver.cpp.o)
 .group         0x00000000        0x8 c:/Projects/Mark3_full_repo/trunk/embedded/stage/lib/avr/atmega328p/gcc/libmark3.a(driver.cpp.o)
 .text          0x00000000        0x0 c:/Projects/Mark3_full_repo/trunk/embedded/stage/lib/avr/atmega328p/gcc/libmark3.a(driver.cpp.o)
 .data          0x00000000        0x0 c:/Projects/Mark3_full_repo/trunk/embedded/stage/lib/avr/atmega328p/gcc/libmark3.a(driver.cpp.o)
 .text._ZN10DriverList10FindByPathEPKc
                0x00000000       0x50 c:/Projects/Mark3_full_repo/trunk/embedded/stage/lib/avr/atmega328p/gcc/libmark3.a(driver.cpp.o)
 .text          0x00000000        0x0 c:/Projects/Mark3_full_repo/trunk/embedded/stage/lib/avr/atmega328p/gcc/libmark3.a(quantum.cpp.o)
 .data          0x00000000        0x0 c:/Projects/Mark3_full_repo/trunk/embedded/stage/lib/avr/atmega328p/gcc/libmark3.a(quantum.cpp.o)
 .group         0x00000000        0x8 c:/Projects/Mark3_full_repo/trunk/embedded/stage/lib/avr/atmega328p/gcc/libmark3.a(scheduler.cpp.o)
 .text          0x00000000        0x0 c:/Projects/Mark3_full_repo/trunk/embedded/stage/lib/avr/atmega328p/gcc/libmark3.a(scheduler.cpp.o)
 .data          0x00000000        0x0 c:/Projects/Mark3_full_repo/trunk/embedded/stage/lib/avr/atmega328p/gcc/libmark3.a(scheduler.cpp.o)
 .rodata._ZTV8LinkList
                0x00000000        0x8 c:/Projects/Mark3_full_repo/trunk/embedded/stage/lib/avr/atmega328p/gcc/libmark3.a(scheduler.cpp.o)
 .group         0x00000000        0x8 c:/Projects/Mark3_full_repo/trunk/embedded/stage/lib/avr/atmega328p/gcc/libheap.a(system_heap.cpp.o)
 .text          0x00000000        0x0 c:/Projects/Mark3_full_repo/trunk/embedded/stage/lib/avr/atmega328p/gcc/libheap.a(system_heap.cpp.o)
 .data          0x00000000        0x0 c:/Projects/Mark3_full_repo/trunk/embedded/stage/lib/avr/atmega328p/gcc/libheap.a(system_heap.cpp.o)
 .rodata._ZTV8LinkList
                0x00000000        0x8 c:/Projects/Mark3_full_repo/trunk/embedded/stage/lib/avr/atmega328p/gcc/libheap.a(system_heap.cpp.o)
 .text          0x00000000        0x0 c:/Projects/Mark3_full_repo/trunk/embedded/stage/lib/avr/atmega328p/gcc/libheap.a(fixed_heap.cpp.o)
 .data          0x00000000        0x0 c:/Projects/Mark3_full_repo/trunk/embedded/stage/lib/avr/atmega328p/gcc/libheap.a(fixed_heap.cpp.o)
 .bss           0x00000000        0x0 c:/Projects/Mark3_full_repo/trunk/embedded/stage/lib/avr/atmega328p/gcc/libheap.a(fixed_heap.cpp.o)
 .text          0x00000000        0x0 c:/Projects/Mark3_full_repo/trunk/embedded/stage/lib/avr/atmega328p/gcc/librandom.a(rand_lfsr.cpp.o)
 .data          0x00000000        0x0 c:/Projects/Mark3_full_repo/trunk/embedded/stage/lib/avr/atmega328p/gcc/librandom.a(rand_lfsr.cpp.o)
 .bss           0x00000000        0x0 c:/Projects/Mark3_full_repo/trunk/embedded/stage/lib/avr/atmega328p/gcc/librandom.a(rand_lfsr.cpp.o)
 .group         0x00000000        0x8 c:/Projects/Mark3_full_repo/trunk/embedded/stage/lib/avr/atmega328p/gcc/libgraphics.a(graphics.cpp.o)
 .group         0x00000000        0x8 c:/Projects/Mark3_full_repo/trunk/embedded/stage/lib/avr/atmega328p/gcc/libgraphics.a(graphics.cpp.o)
 .group         0x00000000        0x8 c:/Projects/Mark3_full_repo/trunk/embedded/stage/lib/avr/atmega328p/gcc/libgraphics.a(graphics.cpp.o)
 .text          0x00000000        0x0 c:/Projects/Mark3_full_repo/trunk/embedded/stage/lib/avr/atmega328p/gcc/libgraphics.a(graphics.cpp.o)
 .data          0x00000000        0x0 c:/Projects/Mark3_full_repo/trunk/embedded/stage/lib/avr/atmega328p/gcc/libgraphics.a(graphics.cpp.o)
 .bss           0x00000000        0x0 c:/Projects/Mark3_full_repo/trunk/embedded/stage/lib/avr/atmega328p/gcc/libgraphics.a(graphics.cpp.o)
 .text._ZN14GraphicsDriver9DrawPixelEP11DrawPoint_t
                0x00000000        0x2 c:/Projects/Mark3_full_repo/trunk/embedded/stage/lib/avr/atmega328p/gcc/libgraphics.a(graphics.cpp.o)
 .text._ZN14GraphicsDriver5PointEP11DrawPoint_t
                0x00000000        0xe c:/Projects/Mark3_full_repo/trunk/embedded/stage/lib/avr/atmega328p/gcc/libgraphics.a(graphics.cpp.o)
 .text._ZN14GraphicsDriver6TextFXEP10DrawText_tP8TextFX_t
                0x00000000      0x332 c:/Projects/Mark3_full_repo/trunk/embedded/stage/lib/avr/atmega328p/gcc/libgraphics.a(graphics.cpp.o)
 .rodata._ZTV14GraphicsDriver
                0x00000000       0x30 c:/Projects/Mark3_full_repo/trunk/embedded/stage/lib/avr/atmega328p/gcc/libgraphics.a(graphics.cpp.o)
 .text          0x00000000        0x0 c:/Projects/Mark3_full_repo/trunk/embedded/stage/lib/avr/atmega328p/gcc/libarial_10.a(arial_10.cpp.o)
 .bss           0x00000000        0x0 c:/Projects/Mark3_full_repo/trunk/embedded/stage/lib/avr/atmega328p/gcc/libarial_10.a(arial_10.cpp.o)
 .group         0x00000000        0x8 c:/Projects/Mark3_full_repo/trunk/embedded/stage/lib/avr/atmega328p/gcc/libdrvGraphicsFlavr.a(graphics_flavr.cpp.o)
 .group         0x00000000        0x8 c:/Projects/Mark3_full_repo/trunk/embedded/stage/lib/avr/atmega328p/gcc/libdrvGraphicsFlavr.a(graphics_flavr.cpp.o)
 .group         0x00000000        0x8 c:/Projects/Mark3_full_repo/trunk/embedded/stage/lib/avr/atmega328p/gcc/libdrvGraphicsFlavr.a(graphics_flavr.cpp.o)
 .group         0x00000000        0x8 c:/Projects/Mark3_full_repo/trunk/embedded/stage/lib/avr/atmega328p/gcc/libdrvGraphicsFlavr.a(graphics_flavr.cpp.o)
 .group         0x00000000        0x8 c:/Projects/Mark3_full_repo/trunk/embedded/stage/lib/avr/atmega328p/gcc/libdrvGraphicsFlavr.a(graphics_flavr.cpp.o)
 .group         0x00000000        0x8 c:/Projects/Mark3_full_repo/trunk/embedded/stage/lib/avr/atmega328p/gcc/libdrvGraphicsFlavr.a(graphics_flavr.cpp.o)
 .group         0x00000000        0x8 c:/Projects/Mark3_full_repo/trunk/embedded/stage/lib/avr/atmega328p/gcc/libdrvGraphicsFlavr.a(graphics_flavr.cpp.o)
 .group         0x00000000        0x8 c:/Projects/Mark3_full_repo/trunk/embedded/stage/lib/avr/atmega328p/gcc/libdrvGraphicsFlavr.a(graphics_flavr.cpp.o)
 .group         0x00000000        0x8 c:/Projects/Mark3_full_repo/trunk/embedded/stage/lib/avr/atmega328p/gcc/libdrvGraphicsFlavr.a(graphics_flavr.cpp.o)
 .text          0x00000000        0x0 c:/Projects/Mark3_full_repo/trunk/embedded/stage/lib/avr/atmega328p/gcc/libdrvGraphicsFlavr.a(graphics_flavr.cpp.o)
 .data          0x00000000        0x0 c:/Projects/Mark3_full_repo/trunk/embedded/stage/lib/avr/atmega328p/gcc/libdrvGraphicsFlavr.a(graphics_flavr.cpp.o)
 .text._ZN14GraphicsDriver9ReadPixelEP11DrawPoint_t
                0x00000000        0x2 c:/Projects/Mark3_full_repo/trunk/embedded/stage/lib/avr/atmega328p/gcc/libdrvGraphicsFlavr.a(graphics_flavr.cpp.o)
 .text          0x00000000        0x0 c:/Projects/Mark3_full_repo/trunk/embedded/stage/lib/avr/atmega328p/gcc/libjoystick.a(joystick.cpp.o)
 .data          0x00000000        0x0 c:/Projects/Mark3_full_repo/trunk/embedded/stage/lib/avr/atmega328p/gcc/libjoystick.a(joystick.cpp.o)
 .bss           0x00000000        0x0 c:/Projects/Mark3_full_repo/trunk/embedded/stage/lib/avr/atmega328p/gcc/libjoystick.a(joystick.cpp.o)
 .group         0x00000000        0x8 c:/Projects/Mark3_full_repo/trunk/embedded/stage/lib/avr/atmega328p/gcc/libdrvFlavrJoy.a(drvFlavrJoy.cpp.o)
 .group         0x00000000        0x8 c:/Projects/Mark3_full_repo/trunk/embedded/stage/lib/avr/atmega328p/gcc/libdrvFlavrJoy.a(drvFlavrJoy.cpp.o)
 .group         0x00000000        0x8 c:/Projects/Mark3_full_repo/trunk/embedded/stage/lib/avr/atmega328p/gcc/libdrvFlavrJoy.a(drvFlavrJoy.cpp.o)
 .group         0x00000000        0x8 c:/Projects/Mark3_full_repo/trunk/embedded/stage/lib/avr/atmega328p/gcc/libdrvFlavrJoy.a(drvFlavrJoy.cpp.o)
 .text          0x00000000        0x0 c:/Projects/Mark3_full_repo/trunk/embedded/stage/lib/avr/atmega328p/gcc/libdrvFlavrJoy.a(drvFlavrJoy.cpp.o)
 .data          0x00000000        0x0 c:/Projects/Mark3_full_repo/trunk/embedded/stage/lib/avr/atmega328p/gcc/libdrvFlavrJoy.a(drvFlavrJoy.cpp.o)
 .text          0x00000000        0x0 c:/Projects/Mark3_full_repo/trunk/embedded/stage/lib/avr/atmega328p/gcc/libgui.a(gui.cpp.o)
 .data          0x00000000        0x0 c:/Projects/Mark3_full_repo/trunk/embedded/stage/lib/avr/atmega328p/gcc/libgui.a(gui.cpp.o)
 .bss           0x00000000        0x0 c:/Projects/Mark3_full_repo/trunk/embedded/stage/lib/avr/atmega328p/gcc/libgui.a(gui.cpp.o)
 .text._ZN15GuiEventSurface16FindWindowByNameEPKc
                0x00000000       0x3c c:/Projects/Mark3_full_repo/trunk/embedded/stage/lib/avr/atmega328p/gcc/libgui.a(gui.cpp.o)
 .text._ZN9GuiWindow16InvalidateRegionEjjjj
                0x00000000      0x218 c:/Projects/Mark3_full_repo/trunk/embedded/stage/lib/avr/atmega328p/gcc/libgui.a(gui.cpp.o)
 .text._ZN15GuiEventSurface16InvalidateRegionEjjjj
                0x00000000       0x50 c:/Projects/Mark3_full_repo/trunk/embedded/stage/lib/avr/atmega328p/gcc/libgui.a(gui.cpp.o)
 .text._ZN9GuiWindow13RemoveControlEP10GuiControl
                0x00000000       0x4a c:/Projects/Mark3_full_repo/trunk/embedded/stage/lib/avr/atmega328p/gcc/libgui.a(gui.cpp.o)
 .text._ZN15GuiEventSurface12RemoveWindowEP9GuiWindow
                0x00000000        0x4 c:/Projects/Mark3_full_repo/trunk/embedded/stage/lib/avr/atmega328p/gcc/libgui.a(gui.cpp.o)
 .group         0x00000000        0x8 c:/Projects/Mark3_full_repo/trunk/embedded/stage/lib/avr/atmega328p/gcc/libgui.a(control_brushpanel.cpp.o)
 .group         0x00000000        0x8 c:/Projects/Mark3_full_repo/trunk/embedded/stage/lib/avr/atmega328p/gcc/libgui.a(control_brushpanel.cpp.o)
 .group         0x00000000        0x8 c:/Projects/Mark3_full_repo/trunk/embedded/stage/lib/avr/atmega328p/gcc/libgui.a(control_brushpanel.cpp.o)
 .group         0x00000000        0x8 c:/Projects/Mark3_full_repo/trunk/embedded/stage/lib/avr/atmega328p/gcc/libgui.a(control_brushpanel.cpp.o)
 .text          0x00000000        0x0 c:/Projects/Mark3_full_repo/trunk/embedded/stage/lib/avr/atmega328p/gcc/libgui.a(control_brushpanel.cpp.o)
 .data          0x00000000        0x0 c:/Projects/Mark3_full_repo/trunk/embedded/stage/lib/avr/atmega328p/gcc/libgui.a(control_brushpanel.cpp.o)
 .bss           0x00000000        0x0 c:/Projects/Mark3_full_repo/trunk/embedded/stage/lib/avr/atmega328p/gcc/libgui.a(control_brushpanel.cpp.o)
 .group         0x00000000        0x8 c:/Projects/Mark3_full_repo/trunk/embedded/stage/lib/avr/atmega328p/gcc/libgui.a(control_button.cpp.o)
 .text          0x00000000        0x0 c:/Projects/Mark3_full_repo/trunk/embedded/stage/lib/avr/atmega328p/gcc/libgui.a(control_button.cpp.o)
 .data          0x00000000        0x0 c:/Projects/Mark3_full_repo/trunk/embedded/stage/lib/avr/atmega328p/gcc/libgui.a(control_button.cpp.o)
 .bss           0x00000000        0x0 c:/Projects/Mark3_full_repo/trunk/embedded/stage/lib/avr/atmega328p/gcc/libgui.a(control_button.cpp.o)
 .group         0x00000000        0x8 c:/Projects/Mark3_full_repo/trunk/embedded/stage/lib/avr/atmega328p/gcc/libgui.a(control_checkbox.cpp.o)
 .group         0x00000000        0x8 c:/Projects/Mark3_full_repo/trunk/embedded/stage/lib/avr/atmega328p/gcc/libgui.a(control_checkbox.cpp.o)
 .text          0x00000000        0x0 c:/Projects/Mark3_full_repo/trunk/embedded/stage/lib/avr/atmega328p/gcc/libgui.a(control_checkbox.cpp.o)
 .data          0x00000000        0x0 c:/Projects/Mark3_full_repo/trunk/embedded/stage/lib/avr/atmega328p/gcc/libgui.a(control_checkbox.cpp.o)
 .bss           0x00000000        0x0 c:/Projects/Mark3_full_repo/trunk/embedded/stage/lib/avr/atmega328p/gcc/libgui.a(control_checkbox.cpp.o)
 .group         0x00000000        0x8 c:/Projects/Mark3_full_repo/trunk/embedded/stage/lib/avr/atmega328p/gcc/libgui.a(control_groupbox.cpp.o)
 .group         0x00000000        0x8 c:/Projects/Mark3_full_repo/trunk/embedded/stage/lib/avr/atmega328p/gcc/libgui.a(control_groupbox.cpp.o)
 .group         0x00000000        0x8 c:/Projects/Mark3_full_repo/trunk/embedded/stage/lib/avr/atmega328p/gcc/libgui.a(control_groupbox.cpp.o)
 .text          0x00000000        0x0 c:/Projects/Mark3_full_repo/trunk/embedded/stage/lib/avr/atmega328p/gcc/libgui.a(control_groupbox.cpp.o)
 .data          0x00000000        0x0 c:/Projects/Mark3_full_repo/trunk/embedded/stage/lib/avr/atmega328p/gcc/libgui.a(control_groupbox.cpp.o)
 .bss           0x00000000        0x0 c:/Projects/Mark3_full_repo/trunk/embedded/stage/lib/avr/atmega328p/gcc/libgui.a(control_groupbox.cpp.o)
 .group         0x00000000        0x8 c:/Projects/Mark3_full_repo/trunk/embedded/stage/lib/avr/atmega328p/gcc/libgui.a(control_label.cpp.o)
 .group         0x00000000        0x8 c:/Projects/Mark3_full_repo/trunk/embedded/stage/lib/avr/atmega328p/gcc/libgui.a(control_label.cpp.o)
 .group         0x00000000        0x8 c:/Projects/Mark3_full_repo/trunk/embedded/stage/lib/avr/atmega328p/gcc/libgui.a(control_label.cpp.o)
 .text          0x00000000        0x0 c:/Projects/Mark3_full_repo/trunk/embedded/stage/lib/avr/atmega328p/gcc/libgui.a(control_label.cpp.o)
 .data          0x00000000        0x0 c:/Projects/Mark3_full_repo/trunk/embedded/stage/lib/avr/atmega328p/gcc/libgui.a(control_label.cpp.o)
 .bss           0x00000000        0x0 c:/Projects/Mark3_full_repo/trunk/embedded/stage/lib/avr/atmega328p/gcc/libgui.a(control_label.cpp.o)
 .group         0x00000000        0x8 c:/Projects/Mark3_full_repo/trunk/embedded/stage/lib/avr/atmega328p/gcc/libgui.a(control_progress.cpp.o)
 .group         0x00000000        0x8 c:/Projects/Mark3_full_repo/trunk/embedded/stage/lib/avr/atmega328p/gcc/libgui.a(control_progress.cpp.o)
 .text          0x00000000        0x0 c:/Projects/Mark3_full_repo/trunk/embedded/stage/lib/avr/atmega328p/gcc/libgui.a(control_progress.cpp.o)
 .data          0x00000000        0x0 c:/Projects/Mark3_full_repo/trunk/embedded/stage/lib/avr/atmega328p/gcc/libgui.a(control_progress.cpp.o)
 .bss           0x00000000        0x0 c:/Projects/Mark3_full_repo/trunk/embedded/stage/lib/avr/atmega328p/gcc/libgui.a(control_progress.cpp.o)
 .group         0x00000000        0x8 c:/Projects/Mark3_full_repo/trunk/embedded/stage/lib/avr/atmega328p/gcc/libgui.a(control_sevenseg.cpp.o)
 .group         0x00000000        0x8 c:/Projects/Mark3_full_repo/trunk/embedded/stage/lib/avr/atmega328p/gcc/libgui.a(control_sevenseg.cpp.o)
 .text          0x00000000        0x0 c:/Projects/Mark3_full_repo/trunk/embedded/stage/lib/avr/atmega328p/gcc/libgui.a(control_sevenseg.cpp.o)
 .data          0x00000000        0x0 c:/Projects/Mark3_full_repo/trunk/embedded/stage/lib/avr/atmega328p/gcc/libgui.a(control_sevenseg.cpp.o)
 .bss           0x00000000        0x0 c:/Projects/Mark3_full_repo/trunk/embedded/stage/lib/avr/atmega328p/gcc/libgui.a(control_sevenseg.cpp.o)
 .text          0x00000000        0x0 c:/program files (x86)/atmel/atmel toolchain/avr8 gcc/native/3.4.1061/avr8-gnu-toolchain/bin/../lib/gcc/avr/4.8.1/avr5\libgcc.a(_mulsi3.o)
 .data          0x00000000        0x0 c:/program files (x86)/atmel/atmel toolchain/avr8 gcc/native/3.4.1061/avr8-gnu-toolchain/bin/../lib/gcc/avr/4.8.1/avr5\libgcc.a(_mulsi3.o)
 .bss           0x00000000        0x0 c:/program files (x86)/atmel/atmel toolchain/avr8 gcc/native/3.4.1061/avr8-gnu-toolchain/bin/../lib/gcc/avr/4.8.1/avr5\libgcc.a(_mulsi3.o)
 .text.libgcc.div
                0x00000000        0x0 c:/program files (x86)/atmel/atmel toolchain/avr8 gcc/native/3.4.1061/avr8-gnu-toolchain/bin/../lib/gcc/avr/4.8.1/avr5\libgcc.a(_mulsi3.o)
 .text.libgcc   0x00000000        0x0 c:/program files (x86)/atmel/atmel toolchain/avr8 gcc/native/3.4.1061/avr8-gnu-toolchain/bin/../lib/gcc/avr/4.8.1/avr5\libgcc.a(_mulsi3.o)
 .text.libgcc.prologue
                0x00000000        0x0 c:/program files (x86)/atmel/atmel toolchain/avr8 gcc/native/3.4.1061/avr8-gnu-toolchain/bin/../lib/gcc/avr/4.8.1/avr5\libgcc.a(_mulsi3.o)
 .text.libgcc.builtins
                0x00000000        0x0 c:/program files (x86)/atmel/atmel toolchain/avr8 gcc/native/3.4.1061/avr8-gnu-toolchain/bin/../lib/gcc/avr/4.8.1/avr5\libgcc.a(_mulsi3.o)
 .text.libgcc.fmul
                0x00000000        0x0 c:/program files (x86)/atmel/atmel toolchain/avr8 gcc/native/3.4.1061/avr8-gnu-toolchain/bin/../lib/gcc/avr/4.8.1/avr5\libgcc.a(_mulsi3.o)
 .text.libgcc.fixed
                0x00000000        0x0 c:/program files (x86)/atmel/atmel toolchain/avr8 gcc/native/3.4.1061/avr8-gnu-toolchain/bin/../lib/gcc/avr/4.8.1/avr5\libgcc.a(_mulsi3.o)
 .text          0x00000000        0x0 c:/program files (x86)/atmel/atmel toolchain/avr8 gcc/native/3.4.1061/avr8-gnu-toolchain/bin/../lib/gcc/avr/4.8.1/avr5\libgcc.a(_udivmodhi4.o)
 .data          0x00000000        0x0 c:/program files (x86)/atmel/atmel toolchain/avr8 gcc/native/3.4.1061/avr8-gnu-toolchain/bin/../lib/gcc/avr/4.8.1/avr5\libgcc.a(_udivmodhi4.o)
 .bss           0x00000000        0x0 c:/program files (x86)/atmel/atmel toolchain/avr8 gcc/native/3.4.1061/avr8-gnu-toolchain/bin/../lib/gcc/avr/4.8.1/avr5\libgcc.a(_udivmodhi4.o)
 .text.libgcc.mul
                0x00000000        0x0 c:/program files (x86)/atmel/atmel toolchain/avr8 gcc/native/3.4.1061/avr8-gnu-toolchain/bin/../lib/gcc/avr/4.8.1/avr5\libgcc.a(_udivmodhi4.o)
 .text.libgcc   0x00000000        0x0 c:/program files (x86)/atmel/atmel toolchain/avr8 gcc/native/3.4.1061/avr8-gnu-toolchain/bin/../lib/gcc/avr/4.8.1/avr5\libgcc.a(_udivmodhi4.o)
 .text.libgcc.prologue
                0x00000000        0x0 c:/program files (x86)/atmel/atmel toolchain/avr8 gcc/native/3.4.1061/avr8-gnu-toolchain/bin/../lib/gcc/avr/4.8.1/avr5\libgcc.a(_udivmodhi4.o)
 .text.libgcc.builtins
                0x00000000        0x0 c:/program files (x86)/atmel/atmel toolchain/avr8 gcc/native/3.4.1061/avr8-gnu-toolchain/bin/../lib/gcc/avr/4.8.1/avr5\libgcc.a(_udivmodhi4.o)
 .text.libgcc.fmul
                0x00000000        0x0 c:/program files (x86)/atmel/atmel toolchain/avr8 gcc/native/3.4.1061/avr8-gnu-toolchain/bin/../lib/gcc/avr/4.8.1/avr5\libgcc.a(_udivmodhi4.o)
 .text.libgcc.fixed
                0x00000000        0x0 c:/program files (x86)/atmel/atmel toolchain/avr8 gcc/native/3.4.1061/avr8-gnu-toolchain/bin/../lib/gcc/avr/4.8.1/avr5\libgcc.a(_udivmodhi4.o)
 .text          0x00000000        0x0 c:/program files (x86)/atmel/atmel toolchain/avr8 gcc/native/3.4.1061/avr8-gnu-toolchain/bin/../lib/gcc/avr/4.8.1/avr5\libgcc.a(_udivmodsi4.o)
 .data          0x00000000        0x0 c:/program files (x86)/atmel/atmel toolchain/avr8 gcc/native/3.4.1061/avr8-gnu-toolchain/bin/../lib/gcc/avr/4.8.1/avr5\libgcc.a(_udivmodsi4.o)
 .bss           0x00000000        0x0 c:/program files (x86)/atmel/atmel toolchain/avr8 gcc/native/3.4.1061/avr8-gnu-toolchain/bin/../lib/gcc/avr/4.8.1/avr5\libgcc.a(_udivmodsi4.o)
 .text.libgcc.mul
                0x00000000        0x0 c:/program files (x86)/atmel/atmel toolchain/avr8 gcc/native/3.4.1061/avr8-gnu-toolchain/bin/../lib/gcc/avr/4.8.1/avr5\libgcc.a(_udivmodsi4.o)
 .text.libgcc   0x00000000        0x0 c:/program files (x86)/atmel/atmel toolchain/avr8 gcc/native/3.4.1061/avr8-gnu-toolchain/bin/../lib/gcc/avr/4.8.1/avr5\libgcc.a(_udivmodsi4.o)
 .text.libgcc.prologue
                0x00000000        0x0 c:/program files (x86)/atmel/atmel toolchain/avr8 gcc/native/3.4.1061/avr8-gnu-toolchain/bin/../lib/gcc/avr/4.8.1/avr5\libgcc.a(_udivmodsi4.o)
 .text.libgcc.builtins
                0x00000000        0x0 c:/program files (x86)/atmel/atmel toolchain/avr8 gcc/native/3.4.1061/avr8-gnu-toolchain/bin/../lib/gcc/avr/4.8.1/avr5\libgcc.a(_udivmodsi4.o)
 .text.libgcc.fmul
                0x00000000        0x0 c:/program files (x86)/atmel/atmel toolchain/avr8 gcc/native/3.4.1061/avr8-gnu-toolchain/bin/../lib/gcc/avr/4.8.1/avr5\libgcc.a(_udivmodsi4.o)
 .text.libgcc.fixed
                0x00000000        0x0 c:/program files (x86)/atmel/atmel toolchain/avr8 gcc/native/3.4.1061/avr8-gnu-toolchain/bin/../lib/gcc/avr/4.8.1/avr5\libgcc.a(_udivmodsi4.o)
 .text          0x00000000        0x0 c:/program files (x86)/atmel/atmel toolchain/avr8 gcc/native/3.4.1061/avr8-gnu-toolchain/bin/../lib/gcc/avr/4.8.1/avr5\libgcc.a(_exit.o)
 .data          0x00000000        0x0 c:/program files (x86)/atmel/atmel toolchain/avr8 gcc/native/3.4.1061/avr8-gnu-toolchain/bin/../lib/gcc/avr/4.8.1/avr5\libgcc.a(_exit.o)
 .bss           0x00000000        0x0 c:/program files (x86)/atmel/atmel toolchain/avr8 gcc/native/3.4.1061/avr8-gnu-toolchain/bin/../lib/gcc/avr/4.8.1/avr5\libgcc.a(_exit.o)
 .text.libgcc.mul
                0x00000000        0x0 c:/program files (x86)/atmel/atmel toolchain/avr8 gcc/native/3.4.1061/avr8-gnu-toolchain/bin/../lib/gcc/avr/4.8.1/avr5\libgcc.a(_exit.o)
 .text.libgcc.div
                0x00000000        0x0 c:/program files (x86)/atmel/atmel toolchain/avr8 gcc/native/3.4.1061/avr8-gnu-toolchain/bin/../lib/gcc/avr/4.8.1/avr5\libgcc.a(_exit.o)
 .text.libgcc   0x00000000        0x0 c:/program files (x86)/atmel/atmel toolchain/avr8 gcc/native/3.4.1061/avr8-gnu-toolchain/bin/../lib/gcc/avr/4.8.1/avr5\libgcc.a(_exit.o)
 .text.libgcc.prologue
                0x00000000        0x0 c:/program files (x86)/atmel/atmel toolchain/avr8 gcc/native/3.4.1061/avr8-gnu-toolchain/bin/../lib/gcc/avr/4.8.1/avr5\libgcc.a(_exit.o)
 .text.libgcc.builtins
                0x00000000        0x0 c:/program files (x86)/atmel/atmel toolchain/avr8 gcc/native/3.4.1061/avr8-gnu-toolchain/bin/../lib/gcc/avr/4.8.1/avr5\libgcc.a(_exit.o)
 .text.libgcc.fmul
                0x00000000        0x0 c:/program files (x86)/atmel/atmel toolchain/avr8 gcc/native/3.4.1061/avr8-gnu-toolchain/bin/../lib/gcc/avr/4.8.1/avr5\libgcc.a(_exit.o)
 .text.libgcc.fixed
                0x00000000        0x0 c:/program files (x86)/atmel/atmel toolchain/avr8 gcc/native/3.4.1061/avr8-gnu-toolchain/bin/../lib/gcc/avr/4.8.1/avr5\libgcc.a(_exit.o)
 .text          0x00000000        0x0 c:/program files (x86)/atmel/atmel toolchain/avr8 gcc/native/3.4.1061/avr8-gnu-toolchain/bin/../lib/gcc/avr/4.8.1/avr5\libgcc.a(_copy_data.o)
 .data          0x00000000        0x0 c:/program files (x86)/atmel/atmel toolchain/avr8 gcc/native/3.4.1061/avr8-gnu-toolchain/bin/../lib/gcc/avr/4.8.1/avr5\libgcc.a(_copy_data.o)
 .bss           0x00000000        0x0 c:/program files (x86)/atmel/atmel toolchain/avr8 gcc/native/3.4.1061/avr8-gnu-toolchain/bin/../lib/gcc/avr/4.8.1/avr5\libgcc.a(_copy_data.o)
 .text.libgcc.mul
                0x00000000        0x0 c:/program files (x86)/atmel/atmel toolchain/avr8 gcc/native/3.4.1061/avr8-gnu-toolchain/bin/../lib/gcc/avr/4.8.1/avr5\libgcc.a(_copy_data.o)
 .text.libgcc.div
                0x00000000        0x0 c:/program files (x86)/atmel/atmel toolchain/avr8 gcc/native/3.4.1061/avr8-gnu-toolchain/bin/../lib/gcc/avr/4.8.1/avr5\libgcc.a(_copy_data.o)
 .text.libgcc   0x00000000        0x0 c:/program files (x86)/atmel/atmel toolchain/avr8 gcc/native/3.4.1061/avr8-gnu-toolchain/bin/../lib/gcc/avr/4.8.1/avr5\libgcc.a(_copy_data.o)
 .text.libgcc.prologue
                0x00000000        0x0 c:/program files (x86)/atmel/atmel toolchain/avr8 gcc/native/3.4.1061/avr8-gnu-toolchain/bin/../lib/gcc/avr/4.8.1/avr5\libgcc.a(_copy_data.o)
 .text.libgcc.builtins
                0x00000000        0x0 c:/program files (x86)/atmel/atmel toolchain/avr8 gcc/native/3.4.1061/avr8-gnu-toolchain/bin/../lib/gcc/avr/4.8.1/avr5\libgcc.a(_copy_data.o)
 .text.libgcc.fmul
                0x00000000        0x0 c:/program files (x86)/atmel/atmel toolchain/avr8 gcc/native/3.4.1061/avr8-gnu-toolchain/bin/../lib/gcc/avr/4.8.1/avr5\libgcc.a(_copy_data.o)
 .text.libgcc.fixed
                0x00000000        0x0 c:/program files (x86)/atmel/atmel toolchain/avr8 gcc/native/3.4.1061/avr8-gnu-toolchain/bin/../lib/gcc/avr/4.8.1/avr5\libgcc.a(_copy_data.o)
 .text          0x00000000        0x0 c:/program files (x86)/atmel/atmel toolchain/avr8 gcc/native/3.4.1061/avr8-gnu-toolchain/bin/../lib/gcc/avr/4.8.1/avr5\libgcc.a(_clear_bss.o)
 .data          0x00000000        0x0 c:/program files (x86)/atmel/atmel toolchain/avr8 gcc/native/3.4.1061/avr8-gnu-toolchain/bin/../lib/gcc/avr/4.8.1/avr5\libgcc.a(_clear_bss.o)
 .bss           0x00000000        0x0 c:/program files (x86)/atmel/atmel toolchain/avr8 gcc/native/3.4.1061/avr8-gnu-toolchain/bin/../lib/gcc/avr/4.8.1/avr5\libgcc.a(_clear_bss.o)
 .text.libgcc.mul
                0x00000000        0x0 c:/program files (x86)/atmel/atmel toolchain/avr8 gcc/native/3.4.1061/avr8-gnu-toolchain/bin/../lib/gcc/avr/4.8.1/avr5\libgcc.a(_clear_bss.o)
 .text.libgcc.div
                0x00000000        0x0 c:/program files (x86)/atmel/atmel toolchain/avr8 gcc/native/3.4.1061/avr8-gnu-toolchain/bin/../lib/gcc/avr/4.8.1/avr5\libgcc.a(_clear_bss.o)
 .text.libgcc   0x00000000        0x0 c:/program files (x86)/atmel/atmel toolchain/avr8 gcc/native/3.4.1061/avr8-gnu-toolchain/bin/../lib/gcc/avr/4.8.1/avr5\libgcc.a(_clear_bss.o)
 .text.libgcc.prologue
                0x00000000        0x0 c:/program files (x86)/atmel/atmel toolchain/avr8 gcc/native/3.4.1061/avr8-gnu-toolchain/bin/../lib/gcc/avr/4.8.1/avr5\libgcc.a(_clear_bss.o)
 .text.libgcc.builtins
                0x00000000        0x0 c:/program files (x86)/atmel/atmel toolchain/avr8 gcc/native/3.4.1061/avr8-gnu-toolchain/bin/../lib/gcc/avr/4.8.1/avr5\libgcc.a(_clear_bss.o)
 .text.libgcc.fmul
                0x00000000        0x0 c:/program files (x86)/atmel/atmel toolchain/avr8 gcc/native/3.4.1061/avr8-gnu-toolchain/bin/../lib/gcc/avr/4.8.1/avr5\libgcc.a(_clear_bss.o)
 .text.libgcc.fixed
                0x00000000        0x0 c:/program files (x86)/atmel/atmel toolchain/avr8 gcc/native/3.4.1061/avr8-gnu-toolchain/bin/../lib/gcc/avr/4.8.1/avr5\libgcc.a(_clear_bss.o)
 .text          0x00000000        0x0 c:/program files (x86)/atmel/atmel toolchain/avr8 gcc/native/3.4.1061/avr8-gnu-toolchain/bin/../lib/gcc/avr/4.8.1/avr5\libgcc.a(_ctors.o)
 .data          0x00000000        0x0 c:/program files (x86)/atmel/atmel toolchain/avr8 gcc/native/3.4.1061/avr8-gnu-toolchain/bin/../lib/gcc/avr/4.8.1/avr5\libgcc.a(_ctors.o)
 .bss           0x00000000        0x0 c:/program files (x86)/atmel/atmel toolchain/avr8 gcc/native/3.4.1061/avr8-gnu-toolchain/bin/../lib/gcc/avr/4.8.1/avr5\libgcc.a(_ctors.o)
 .text.libgcc.mul
                0x00000000        0x0 c:/program files (x86)/atmel/atmel toolchain/avr8 gcc/native/3.4.1061/avr8-gnu-toolchain/bin/../lib/gcc/avr/4.8.1/avr5\libgcc.a(_ctors.o)
 .text.libgcc.div
                0x00000000        0x0 c:/program files (x86)/atmel/atmel toolchain/avr8 gcc/native/3.4.1061/avr8-gnu-toolchain/bin/../lib/gcc/avr/4.8.1/avr5\libgcc.a(_ctors.o)
 .text.libgcc   0x00000000        0x0 c:/program files (x86)/atmel/atmel toolchain/avr8 gcc/native/3.4.1061/avr8-gnu-toolchain/bin/../lib/gcc/avr/4.8.1/avr5\libgcc.a(_ctors.o)
 .text.libgcc.prologue
                0x00000000        0x0 c:/program files (x86)/atmel/atmel toolchain/avr8 gcc/native/3.4.1061/avr8-gnu-toolchain/bin/../lib/gcc/avr/4.8.1/avr5\libgcc.a(_ctors.o)
 .text.libgcc.builtins
                0x00000000        0x0 c:/program files (x86)/atmel/atmel toolchain/avr8 gcc/native/3.4.1061/avr8-gnu-toolchain/bin/../lib/gcc/avr/4.8.1/avr5\libgcc.a(_ctors.o)
 .text.libgcc.fmul
                0x00000000        0x0 c:/program files (x86)/atmel/atmel toolchain/avr8 gcc/native/3.4.1061/avr8-gnu-toolchain/bin/../lib/gcc/avr/4.8.1/avr5\libgcc.a(_ctors.o)
 .text.libgcc.fixed
                0x00000000        0x0 c:/program files (x86)/atmel/atmel toolchain/avr8 gcc/native/3.4.1061/avr8-gnu-toolchain/bin/../lib/gcc/avr/4.8.1/avr5\libgcc.a(_ctors.o)
 .text          0x00000000        0x0 c:/program files (x86)/atmel/atmel toolchain/avr8 gcc/native/3.4.1061/avr8-gnu-toolchain/bin/../lib/gcc/avr/4.8.1/avr5\libgcc.a(_umulhisi3.o)
 .data          0x00000000        0x0 c:/program files (x86)/atmel/atmel toolchain/avr8 gcc/native/3.4.1061/avr8-gnu-toolchain/bin/../lib/gcc/avr/4.8.1/avr5\libgcc.a(_umulhisi3.o)
 .bss           0x00000000        0x0 c:/program files (x86)/atmel/atmel toolchain/avr8 gcc/native/3.4.1061/avr8-gnu-toolchain/bin/../lib/gcc/avr/4.8.1/avr5\libgcc.a(_umulhisi3.o)
 .text.libgcc.div
                0x00000000        0x0 c:/program files (x86)/atmel/atmel toolchain/avr8 gcc/native/3.4.1061/avr8-gnu-toolchain/bin/../lib/gcc/avr/4.8.1/avr5\libgcc.a(_umulhisi3.o)
 .text.libgcc   0x00000000        0x0 c:/program files (x86)/atmel/atmel toolchain/avr8 gcc/native/3.4.1061/avr8-gnu-toolchain/bin/../lib/gcc/avr/4.8.1/avr5\libgcc.a(_umulhisi3.o)
 .text.libgcc.prologue
                0x00000000        0x0 c:/program files (x86)/atmel/atmel toolchain/avr8 gcc/native/3.4.1061/avr8-gnu-toolchain/bin/../lib/gcc/avr/4.8.1/avr5\libgcc.a(_umulhisi3.o)
 .text.libgcc.builtins
                0x00000000        0x0 c:/program files (x86)/atmel/atmel toolchain/avr8 gcc/native/3.4.1061/avr8-gnu-toolchain/bin/../lib/gcc/avr/4.8.1/avr5\libgcc.a(_umulhisi3.o)
 .text.libgcc.fmul
                0x00000000        0x0 c:/program files (x86)/atmel/atmel toolchain/avr8 gcc/native/3.4.1061/avr8-gnu-toolchain/bin/../lib/gcc/avr/4.8.1/avr5\libgcc.a(_umulhisi3.o)
 .text.libgcc.fixed
                0x00000000        0x0 c:/program files (x86)/atmel/atmel toolchain/avr8 gcc/native/3.4.1061/avr8-gnu-toolchain/bin/../lib/gcc/avr/4.8.1/avr5\libgcc.a(_umulhisi3.o)
 .text          0x00000000        0x0 c:/program files (x86)/atmel/atmel toolchain/avr8 gcc/native/3.4.1061/avr8-gnu-toolchain/bin/../lib/gcc/avr/4.8.1/avr5\libgcc.a(_muluhisi3.o)
 .data          0x00000000        0x0 c:/program files (x86)/atmel/atmel toolchain/avr8 gcc/native/3.4.1061/avr8-gnu-toolchain/bin/../lib/gcc/avr/4.8.1/avr5\libgcc.a(_muluhisi3.o)
 .bss           0x00000000        0x0 c:/program files (x86)/atmel/atmel toolchain/avr8 gcc/native/3.4.1061/avr8-gnu-toolchain/bin/../lib/gcc/avr/4.8.1/avr5\libgcc.a(_muluhisi3.o)
 .text.libgcc.div
                0x00000000        0x0 c:/program files (x86)/atmel/atmel toolchain/avr8 gcc/native/3.4.1061/avr8-gnu-toolchain/bin/../lib/gcc/avr/4.8.1/avr5\libgcc.a(_muluhisi3.o)
 .text.libgcc   0x00000000        0x0 c:/program files (x86)/atmel/atmel toolchain/avr8 gcc/native/3.4.1061/avr8-gnu-toolchain/bin/../lib/gcc/avr/4.8.1/avr5\libgcc.a(_muluhisi3.o)
 .text.libgcc.prologue
                0x00000000        0x0 c:/program files (x86)/atmel/atmel toolchain/avr8 gcc/native/3.4.1061/avr8-gnu-toolchain/bin/../lib/gcc/avr/4.8.1/avr5\libgcc.a(_muluhisi3.o)
 .text.libgcc.builtins
                0x00000000        0x0 c:/program files (x86)/atmel/atmel toolchain/avr8 gcc/native/3.4.1061/avr8-gnu-toolchain/bin/../lib/gcc/avr/4.8.1/avr5\libgcc.a(_muluhisi3.o)
 .text.libgcc.fmul
                0x00000000        0x0 c:/program files (x86)/atmel/atmel toolchain/avr8 gcc/native/3.4.1061/avr8-gnu-toolchain/bin/../lib/gcc/avr/4.8.1/avr5\libgcc.a(_muluhisi3.o)
 .text.libgcc.fixed
                0x00000000        0x0 c:/program files (x86)/atmel/atmel toolchain/avr8 gcc/native/3.4.1061/avr8-gnu-toolchain/bin/../lib/gcc/avr/4.8.1/avr5\libgcc.a(_muluhisi3.o)
 .text          0x00000000        0x0 c:/program files (x86)/atmel/atmel toolchain/avr8 gcc/native/3.4.1061/avr8-gnu-toolchain/bin/../lib/gcc/avr/4.8.1/avr5\libgcc.a(_tablejump.o)
 .data          0x00000000        0x0 c:/program files (x86)/atmel/atmel toolchain/avr8 gcc/native/3.4.1061/avr8-gnu-toolchain/bin/../lib/gcc/avr/4.8.1/avr5\libgcc.a(_tablejump.o)
 .bss           0x00000000        0x0 c:/program files (x86)/atmel/atmel toolchain/avr8 gcc/native/3.4.1061/avr8-gnu-toolchain/bin/../lib/gcc/avr/4.8.1/avr5\libgcc.a(_tablejump.o)
 .text.libgcc.mul
                0x00000000        0x0 c:/program files (x86)/atmel/atmel toolchain/avr8 gcc/native/3.4.1061/avr8-gnu-toolchain/bin/../lib/gcc/avr/4.8.1/avr5\libgcc.a(_tablejump.o)
 .text.libgcc.div
                0x00000000        0x0 c:/program files (x86)/atmel/atmel toolchain/avr8 gcc/native/3.4.1061/avr8-gnu-toolchain/bin/../lib/gcc/avr/4.8.1/avr5\libgcc.a(_tablejump.o)
 .text.libgcc.prologue
                0x00000000        0x0 c:/program files (x86)/atmel/atmel toolchain/avr8 gcc/native/3.4.1061/avr8-gnu-toolchain/bin/../lib/gcc/avr/4.8.1/avr5\libgcc.a(_tablejump.o)
 .text.libgcc.builtins
                0x00000000        0x0 c:/program files (x86)/atmel/atmel toolchain/avr8 gcc/native/3.4.1061/avr8-gnu-toolchain/bin/../lib/gcc/avr/4.8.1/avr5\libgcc.a(_tablejump.o)
 .text.libgcc.fmul
                0x00000000        0x0 c:/program files (x86)/atmel/atmel toolchain/avr8 gcc/native/3.4.1061/avr8-gnu-toolchain/bin/../lib/gcc/avr/4.8.1/avr5\libgcc.a(_tablejump.o)
 .text.libgcc.fixed
                0x00000000        0x0 c:/program files (x86)/atmel/atmel toolchain/avr8 gcc/native/3.4.1061/avr8-gnu-toolchain/bin/../lib/gcc/avr/4.8.1/avr5\libgcc.a(_tablejump.o)

Memory Configuration

Name             Origin             Length             Attributes
text             0x00000000         0x00020000         xr
data             0x00800060         0x0000ffa0         rw !x
eeprom           0x00810000         0x00010000         rw !x
fuse             0x00820000         0x00000400         rw !x
lock             0x00830000         0x00000400         rw !x
signature        0x00840000         0x00000400         rw !x
user_signatures  0x00850000         0x00000400         rw !x
*default*        0x00000000         0xffffffff

Linker script and memory map

Address of section .data set to 0x800100
LOAD c:/program files (x86)/atmel/atmel toolchain/avr8 gcc/native/3.4.1061/avr8-gnu-toolchain/bin/../lib/gcc/avr/4.8.1/../../../../avr/lib/avr5/crtm328p.o
START GROUP
LOAD c:/program files (x86)/atmel/atmel toolchain/avr8 gcc/native/3.4.1061/avr8-gnu-toolchain/bin/../lib/gcc/avr/4.8.1/../../../../avr/lib/avr5\libm.a
END GROUP
LOAD ./obj/avr/atmega328p/gcc/main.cpp.o
LOAD c:/Projects/Mark3_full_repo/trunk/embedded/stage/lib/avr/atmega328p/gcc/libmark3.a
LOAD c:/Projects/Mark3_full_repo/trunk/embedded/stage/lib/avr/atmega328p/gcc/libheap.a
LOAD c:/Projects/Mark3_full_repo/trunk/embedded/stage/lib/avr/atmega328p/gcc/librandom.a
LOAD c:/Projects/Mark3_full_repo/trunk/embedded/stage/lib/avr/atmega328p/gcc/libgraphics.a
LOAD c:/Projects/Mark3_full_repo/trunk/embedded/stage/lib/avr/atmega328p/gcc/libarial_10.a
LOAD c:/Projects/Mark3_full_repo/trunk/embedded/stage/lib/avr/atmega328p/gcc/libdrvGraphicsFlavr.a
LOAD c:/Projects/Mark3_full_repo/trunk/embedded/stage/lib/avr/atmega328p/gcc/libjoystick.a
LOAD c:/Projects/Mark3_full_repo/trunk/embedded/stage/lib/avr/atmega328p/gcc/libdrvFlavrJoy.a
LOAD c:/Projects/Mark3_full_repo/trunk/embedded/stage/lib/avr/atmega328p/gcc/libgui.a
START GROUP
LOAD c:/program files (x86)/atmel/atmel toolchain/avr8 gcc/native/3.4.1061/avr8-gnu-toolchain/bin/../lib/gcc/avr/4.8.1/avr5\libgcc.a
LOAD c:/program files (x86)/atmel/atmel toolchain/avr8 gcc/native/3.4.1061/avr8-gnu-toolchain/bin/../lib/gcc/avr/4.8.1/../../../../avr/lib/avr5\libm.a
LOAD c:/program files (x86)/atmel/atmel toolchain/avr8 gcc/native/3.4.1061/avr8-gnu-toolchain/bin/../lib/gcc/avr/4.8.1/../../../../avr/lib/avr5\libc.a
END GROUP

.hash
 *(.hash)

.dynsym
 *(.dynsym)

.dynstr
 *(.dynstr)

.gnu.version
 *(.gnu.version)

.gnu.version_d
 *(.gnu.version_d)

.gnu.version_r
 *(.gnu.version_r)

.rel.init
 *(.rel.init)

.rela.init
 *(.rela.init)

.rel.text
 *(.rel.text)
 *(.rel.text.*)
 *(.rel.gnu.linkonce.t*)

.rela.text
 *(.rela.text)
 *(.rela.text.*)
 *(.rela.gnu.linkonce.t*)

.rel.fini
 *(.rel.fini)

.rela.fini
 *(.rela.fini)

.rel.rodata
 *(.rel.rodata)
 *(.rel.rodata.*)
 *(.rel.gnu.linkonce.r*)

.rela.rodata
 *(.rela.rodata)
 *(.rela.rodata.*)
 *(.rela.gnu.linkonce.r*)

.rel.data
 *(.rel.data)
 *(.rel.data.*)
 *(.rel.gnu.linkonce.d*)

.rela.data
 *(.rela.data)
 *(.rela.data.*)
 *(.rela.gnu.linkonce.d*)

.rel.ctors
 *(.rel.ctors)

.rela.ctors
 *(.rela.ctors)

.rel.dtors
 *(.rel.dtors)

.rela.dtors
 *(.rela.dtors)

.rel.got
 *(.rel.got)

.rela.got
 *(.rela.got)

.rel.bss
 *(.rel.bss)

.rela.bss
 *(.rela.bss)

.rel.plt
 *(.rel.plt)

.rela.plt
 *(.rela.plt)

.text           0x00000000     0x61f8
 *(.vectors)
 .vectors       0x00000000       0x68 c:/program files (x86)/atmel/atmel toolchain/avr8 gcc/native/3.4.1061/avr8-gnu-toolchain/bin/../lib/gcc/avr/4.8.1/../../../../avr/lib/avr5/crtm328p.o
                0x00000000                __vector_default
                0x00000000                __vectors
 *(.vectors)
 *(.progmem.gcc*)
                0x00000068                . = ALIGN (0x2)
                0x00000068                __trampolines_start = .
 *(.trampolines)
 .trampolines   0x00000068        0x0 linker stubs
 *(.trampolines*)
                0x00000068                __trampolines_end = .
 *(.progmem*)
 .progmem.data  0x00000068      0xb84 c:/Projects/Mark3_full_repo/trunk/embedded/stage/lib/avr/atmega328p/gcc/libarial_10.a(arial_10.cpp.o)
                0x00000bec                . = ALIGN (0x2)
 *(.jumptables)
 *(.jumptables*)
 *(.lowtext)
 *(.lowtext*)
                0x00000bec                __ctors_start = .
 *(.ctors)
 .ctors         0x00000bec        0x2 ./obj/avr/atmega328p/gcc/main.cpp.o
 .ctors         0x00000bee        0x2 c:/Projects/Mark3_full_repo/trunk/embedded/stage/lib/avr/atmega328p/gcc/libmark3.a(message.cpp.o)
 .ctors         0x00000bf0        0x2 c:/Projects/Mark3_full_repo/trunk/embedded/stage/lib/avr/atmega328p/gcc/libmark3.a(timerlist.cpp.o)
 .ctors         0x00000bf2        0x2 c:/Projects/Mark3_full_repo/trunk/embedded/stage/lib/avr/atmega328p/gcc/libmark3.a(driver.cpp.o)
 .ctors         0x00000bf4        0x2 c:/Projects/Mark3_full_repo/trunk/embedded/stage/lib/avr/atmega328p/gcc/libmark3.a(scheduler.cpp.o)
 .ctors         0x00000bf6        0x2 c:/Projects/Mark3_full_repo/trunk/embedded/stage/lib/avr/atmega328p/gcc/libheap.a(system_heap.cpp.o)
                0x00000bf8                __ctors_end = .
                0x00000bf8                __dtors_start = .
 *(.dtors)
                0x00000bf8                __dtors_end = .
 SORT(*)(.ctors)
 SORT(*)(.dtors)
 *(.init0)
 .init0         0x00000bf8        0x0 c:/program files (x86)/atmel/atmel toolchain/avr8 gcc/native/3.4.1061/avr8-gnu-toolchain/bin/../lib/gcc/avr/4.8.1/../../../../avr/lib/avr5/crtm328p.o
                0x00000bf8                __init
 *(.init0)
 *(.init1)
 *(.init1)
 *(.init2)
 .init2         0x00000bf8        0xc c:/program files (x86)/atmel/atmel toolchain/avr8 gcc/native/3.4.1061/avr8-gnu-toolchain/bin/../lib/gcc/avr/4.8.1/../../../../avr/lib/avr5/crtm328p.o
 *(.init2)
 *(.init3)
 *(.init3)
 *(.init4)
 .init4         0x00000c04       0x16 c:/program files (x86)/atmel/atmel toolchain/avr8 gcc/native/3.4.1061/avr8-gnu-toolchain/bin/../lib/gcc/avr/4.8.1/avr5\libgcc.a(_copy_data.o)
                0x00000c04                __do_copy_data
 .init4         0x00000c1a       0x10 c:/program files (x86)/atmel/atmel toolchain/avr8 gcc/native/3.4.1061/avr8-gnu-toolchain/bin/../lib/gcc/avr/4.8.1/avr5\libgcc.a(_clear_bss.o)
                0x00000c1a                __do_clear_bss
 *(.init4)
 *(.init5)
 *(.init5)
 *(.init6)
 .init6         0x00000c2a       0x16 c:/program files (x86)/atmel/atmel toolchain/avr8 gcc/native/3.4.1061/avr8-gnu-toolchain/bin/../lib/gcc/avr/4.8.1/avr5\libgcc.a(_ctors.o)
                0x00000c2a                __do_global_ctors
 *(.init6)
 *(.init7)
 *(.init7)
 *(.init8)
 *(.init8)
 *(.init9)
 .init9         0x00000c40        0x8 c:/program files (x86)/atmel/atmel toolchain/avr8 gcc/native/3.4.1061/avr8-gnu-toolchain/bin/../lib/gcc/avr/4.8.1/../../../../avr/lib/avr5/crtm328p.o
 *(.init9)
 *(.text)
 .text          0x00000c48        0x4 c:/program files (x86)/atmel/atmel toolchain/avr8 gcc/native/3.4.1061/avr8-gnu-toolchain/bin/../lib/gcc/avr/4.8.1/../../../../avr/lib/avr5/crtm328p.o
                0x00000c48                __vector_22
                0x00000c48                __vector_24
                0x00000c48                __vector_12
                0x00000c48                __bad_interrupt
                0x00000c48                __vector_6
                0x00000c48                __vector_3
                0x00000c48                __vector_23
                0x00000c48                __vector_25
                0x00000c48                __vector_13
                0x00000c48                __vector_17
                0x00000c48                __vector_19
                0x00000c48                __vector_7
                0x00000c48                __vector_5
                0x00000c48                __vector_4
                0x00000c48                __vector_9
                0x00000c48                __vector_2
                0x00000c48                __vector_21
                0x00000c48                __vector_15
                0x00000c48                __vector_8
                0x00000c48                __vector_14
                0x00000c48                __vector_10
                0x00000c48                __vector_18
                0x00000c48                __vector_20
                0x00000c4c                . = ALIGN (0x2)
 *(.text.*)
 .text._ZL17CheckBox2Callbackb
                0x00000c4c       0x32 ./obj/avr/atmega328p/gcc/main.cpp.o
 .text._ZL17CheckBox1Callbackb
                0x00000c7e       0x32 ./obj/avr/atmega328p/gcc/main.cpp.o
 .text._ZL17TickTimerCallbackP6ThreadPv
                0x00000cb0       0x7e ./obj/avr/atmega328p/gcc/main.cpp.o
 .text._ZL16JoyTimerCallbackP6ThreadPv
                0x00000d2e       0x70 ./obj/avr/atmega328p/gcc/main.cpp.o
 .text._ZL16MyButtonCallbackPv
                0x00000d9e       0x26 ./obj/avr/atmega328p/gcc/main.cpp.o
 .text._ZL7AppMainPv
                0x00000dc4      0x594 ./obj/avr/atmega328p/gcc/main.cpp.o
 .text.startup.main
                0x00001358       0x40 ./obj/avr/atmega328p/gcc/main.cpp.o
                0x00001358                main
 .text.startup._GLOBAL__sub_I_clAppThread
                0x00001398       0xea ./obj/avr/atmega328p/gcc/main.cpp.o
 .text._ZN14DoubleLinkList3AddEP12LinkListNode
                0x00001482       0x50 c:/Projects/Mark3_full_repo/trunk/embedded/stage/lib/avr/atmega328p/gcc/libmark3.a(ll.cpp.o)
                0x00001482                _ZN14DoubleLinkList3AddEP12LinkListNode
 .text._ZN14DoubleLinkList6RemoveEP12LinkListNode
                0x000014d2       0x64 c:/Projects/Mark3_full_repo/trunk/embedded/stage/lib/avr/atmega328p/gcc/libmark3.a(ll.cpp.o)
                0x000014d2                _ZN14DoubleLinkList6RemoveEP12LinkListNode
 .text._ZN16CircularLinkList3AddEP12LinkListNode
                0x00001536       0x5e c:/Projects/Mark3_full_repo/trunk/embedded/stage/lib/avr/atmega328p/gcc/libmark3.a(ll.cpp.o)
                0x00001536                _ZN16CircularLinkList3AddEP12LinkListNode
 .text._ZN16CircularLinkList6RemoveEP12LinkListNode
                0x00001594       0x7a c:/Projects/Mark3_full_repo/trunk/embedded/stage/lib/avr/atmega328p/gcc/libmark3.a(ll.cpp.o)
                0x00001594                _ZN16CircularLinkList6RemoveEP12LinkListNode
 .text._ZN12LinkListNode9ClearNodeEv
                0x0000160e        0xc c:/Projects/Mark3_full_repo/trunk/embedded/stage/lib/avr/atmega328p/gcc/libmark3.a(ll.cpp.o)
                0x0000160e                _ZN12LinkListNode9ClearNodeEv
 .text._ZN16CircularLinkList12PivotForwardEv
                0x0000161a       0x20 c:/Projects/Mark3_full_repo/trunk/embedded/stage/lib/avr/atmega328p/gcc/libmark3.a(ll.cpp.o)
                0x0000161a                _ZN16CircularLinkList12PivotForwardEv
 .text._ZN17GlobalMessagePool4InitEv
                0x0000163a       0x40 c:/Projects/Mark3_full_repo/trunk/embedded/stage/lib/avr/atmega328p/gcc/libmark3.a(message.cpp.o)
                0x0000163a                _ZN17GlobalMessagePool4InitEv
 .text._ZN17GlobalMessagePool4PushEP7Message
                0x0000167a       0x26 c:/Projects/Mark3_full_repo/trunk/embedded/stage/lib/avr/atmega328p/gcc/libmark3.a(message.cpp.o)
                0x0000167a                _ZN17GlobalMessagePool4PushEP7Message
 .text._ZN17GlobalMessagePool3PopEv
                0x000016a0       0x3e c:/Projects/Mark3_full_repo/trunk/embedded/stage/lib/avr/atmega328p/gcc/libmark3.a(message.cpp.o)
                0x000016a0                _ZN17GlobalMessagePool3PopEv
 .text._ZN12MessageQueue4InitEv
                0x000016de        0xc c:/Projects/Mark3_full_repo/trunk/embedded/stage/lib/avr/atmega328p/gcc/libmark3.a(message.cpp.o)
                0x000016de                _ZN12MessageQueue4InitEv
 .text._ZN12MessageQueue9Receive_iEm
                0x000016ea       0x4e c:/Projects/Mark3_full_repo/trunk/embedded/stage/lib/avr/atmega328p/gcc/libmark3.a(message.cpp.o)
                0x000016ea                _ZN12MessageQueue9Receive_iEm
 .text._ZN12MessageQueue7ReceiveEv
                0x00001738        0xa c:/Projects/Mark3_full_repo/trunk/embedded/stage/lib/avr/atmega328p/gcc/libmark3.a(message.cpp.o)
                0x00001738                _ZN12MessageQueue7ReceiveEv
 .text._ZN12MessageQueue4SendEP7Message
                0x00001742       0x34 c:/Projects/Mark3_full_repo/trunk/embedded/stage/lib/avr/atmega328p/gcc/libmark3.a(message.cpp.o)
                0x00001742                _ZN12MessageQueue4SendEP7Message
 .text.startup._GLOBAL__sub_I__ZN17GlobalMessagePool16m_aclMessagePoolE
                0x00001776       0x1e c:/Projects/Mark3_full_repo/trunk/embedded/stage/lib/avr/atmega328p/gcc/libmark3.a(message.cpp.o)
 .text._Z23TimedSemaphore_CallbackP6ThreadPv
                0x00001794       0x40 c:/Projects/Mark3_full_repo/trunk/embedded/stage/lib/avr/atmega328p/gcc/libmark3.a(ksemaphore.cpp.o)
                0x00001794                _Z23TimedSemaphore_CallbackP6ThreadPv
 .text._ZN9Semaphore8WakeNextEv
                0x000017d4       0x36 c:/Projects/Mark3_full_repo/trunk/embedded/stage/lib/avr/atmega328p/gcc/libmark3.a(ksemaphore.cpp.o)
                0x000017d4                _ZN9Semaphore8WakeNextEv
 .text._ZN9Semaphore4InitEjj
                0x0000180a       0x14 c:/Projects/Mark3_full_repo/trunk/embedded/stage/lib/avr/atmega328p/gcc/libmark3.a(ksemaphore.cpp.o)
                0x0000180a                _ZN9Semaphore4InitEjj
 .text._ZN9Semaphore4PostEv
                0x0000181e       0x68 c:/Projects/Mark3_full_repo/trunk/embedded/stage/lib/avr/atmega328p/gcc/libmark3.a(ksemaphore.cpp.o)
                0x0000181e                _ZN9Semaphore4PostEv
 .text._ZN9Semaphore6Pend_iEm
                0x00001886       0xf6 c:/Projects/Mark3_full_repo/trunk/embedded/stage/lib/avr/atmega328p/gcc/libmark3.a(ksemaphore.cpp.o)
                0x00001886                _ZN9Semaphore6Pend_iEm
 .text._ZN9Semaphore4PendEm
                0x0000197c        0x4 c:/Projects/Mark3_full_repo/trunk/embedded/stage/lib/avr/atmega328p/gcc/libmark3.a(ksemaphore.cpp.o)
                0x0000197c                _ZN9Semaphore4PendEm
 .text._ZN6Thread4InitEPhjhPFvPvES1_
                0x00001980       0xea c:/Projects/Mark3_full_repo/trunk/embedded/stage/lib/avr/atmega328p/gcc/libmark3.a(thread.cpp.o)
                0x00001980                _ZN6Thread4InitEPhjhPFvPvES1_
 .text._ZN6Thread16ContextSwitchSWIEv
                0x00001a6a        0xc c:/Projects/Mark3_full_repo/trunk/embedded/stage/lib/avr/atmega328p/gcc/libmark3.a(thread.cpp.o)
                0x00001a6a                _ZN6Thread16ContextSwitchSWIEv
 .text._ZN6Thread5YieldEv
                0x00001a76       0x5a c:/Projects/Mark3_full_repo/trunk/embedded/stage/lib/avr/atmega328p/gcc/libmark3.a(thread.cpp.o)
                0x00001a76                _ZN6Thread5YieldEv
 .text._ZN6Thread5StartEv
                0x00001ad0       0xa0 c:/Projects/Mark3_full_repo/trunk/embedded/stage/lib/avr/atmega328p/gcc/libmark3.a(thread.cpp.o)
                0x00001ad0                _ZN6Thread5StartEv
 .text._ZN6Thread10SetExpiredEb
                0x00001b70        0x6 c:/Projects/Mark3_full_repo/trunk/embedded/stage/lib/avr/atmega328p/gcc/libmark3.a(thread.cpp.o)
                0x00001b70                _ZN6Thread10SetExpiredEb
 .text._ZN6Thread10GetExpiredEv
                0x00001b76        0x6 c:/Projects/Mark3_full_repo/trunk/embedded/stage/lib/avr/atmega328p/gcc/libmark3.a(thread.cpp.o)
                0x00001b76                _ZN6Thread10GetExpiredEv
 .text._ZN6Thread8InitIdleEv
                0x00001b7c       0x24 c:/Projects/Mark3_full_repo/trunk/embedded/stage/lib/avr/atmega328p/gcc/libmark3.a(thread.cpp.o)
                0x00001b7c                _ZN6Thread8InitIdleEv
 .text._ZN10ThreadList11SetPriorityEh
                0x00001ba0        0x6 c:/Projects/Mark3_full_repo/trunk/embedded/stage/lib/avr/atmega328p/gcc/libmark3.a(threadlist.cpp.o)
                0x00001ba0                _ZN10ThreadList11SetPriorityEh
 .text._ZN10ThreadList14SetFlagPointerEPh
                0x00001ba6        0x8 c:/Projects/Mark3_full_repo/trunk/embedded/stage/lib/avr/atmega328p/gcc/libmark3.a(threadlist.cpp.o)
                0x00001ba6                _ZN10ThreadList14SetFlagPointerEPh
 .text._ZN10ThreadList13HighestWaiterEv
                0x00001bae       0x34 c:/Projects/Mark3_full_repo/trunk/embedded/stage/lib/avr/atmega328p/gcc/libmark3.a(threadlist.cpp.o)
                0x00001bae                _ZN10ThreadList13HighestWaiterEv
 .text._ZN10ThreadList3AddEP12LinkListNode
                0x00001be2       0x34 c:/Projects/Mark3_full_repo/trunk/embedded/stage/lib/avr/atmega328p/gcc/libmark3.a(threadlist.cpp.o)
                0x00001be2                _ZN10ThreadList3AddEP12LinkListNode
 .text._ZN10ThreadList6RemoveEP12LinkListNode
                0x00001c16       0x38 c:/Projects/Mark3_full_repo/trunk/embedded/stage/lib/avr/atmega328p/gcc/libmark3.a(threadlist.cpp.o)
                0x00001c16                _ZN10ThreadList6RemoveEP12LinkListNode
 .text._ZN6Kernel4InitEv
                0x00001c4e       0x38 c:/Projects/Mark3_full_repo/trunk/embedded/stage/lib/avr/atmega328p/gcc/libmark3.a(kernel.cpp.o)
                0x00001c4e                _ZN6Kernel4InitEv
 .text._ZN6Kernel5StartEv
                0x00001c86        0xa c:/Projects/Mark3_full_repo/trunk/embedded/stage/lib/avr/atmega328p/gcc/libmark3.a(kernel.cpp.o)
                0x00001c86                _ZN6Kernel5StartEv
 .text._ZN5Timer4StopEv
                0x00001c90        0xa c:/Projects/Mark3_full_repo/trunk/embedded/stage/lib/avr/atmega328p/gcc/libmark3.a(timer.cpp.o)
                0x00001c90                _ZN5Timer4StopEv
 .text._ZN5Timer19SetIntervalMSecondsEm
                0x00001c9a       0x34 c:/Projects/Mark3_full_repo/trunk/embedded/stage/lib/avr/atmega328p/gcc/libmark3.a(timer.cpp.o)
                0x00001c9a                _ZN5Timer19SetIntervalMSecondsEm
 .text._ZN5Timer5StartEbmPFvP6ThreadPvES2_
                0x00001cce       0x5a c:/Projects/Mark3_full_repo/trunk/embedded/stage/lib/avr/atmega328p/gcc/libmark3.a(timer.cpp.o)
                0x00001cce                _ZN5Timer5StartEbmPFvP6ThreadPvES2_
 .text._ZN9TimerList4InitEv
                0x00001d28        0xe c:/Projects/Mark3_full_repo/trunk/embedded/stage/lib/avr/atmega328p/gcc/libmark3.a(timerlist.cpp.o)
                0x00001d28                _ZN9TimerList4InitEv
 .text._ZN9TimerList3AddEP5Timer
                0x00001d36       0xb4 c:/Projects/Mark3_full_repo/trunk/embedded/stage/lib/avr/atmega328p/gcc/libmark3.a(timerlist.cpp.o)
                0x00001d36                _ZN9TimerList3AddEP5Timer
 .text._ZN9TimerList6RemoveEP5Timer
                0x00001dea       0x3a c:/Projects/Mark3_full_repo/trunk/embedded/stage/lib/avr/atmega328p/gcc/libmark3.a(timerlist.cpp.o)
                0x00001dea                _ZN9TimerList6RemoveEP5Timer
 .text._ZN9TimerList7ProcessEv
                0x00001e24      0x156 c:/Projects/Mark3_full_repo/trunk/embedded/stage/lib/avr/atmega328p/gcc/libmark3.a(timerlist.cpp.o)
                0x00001e24                _ZN9TimerList7ProcessEv
 .text.startup._GLOBAL__sub_I__ZN14TimerScheduler13m_clTimerListE
                0x00001f7a       0x1e c:/Projects/Mark3_full_repo/trunk/embedded/stage/lib/avr/atmega328p/gcc/libmark3.a(timerlist.cpp.o)
 .text._ZN11KernelAware5PrintEPKc
                0x00001f98       0x2a c:/Projects/Mark3_full_repo/trunk/embedded/stage/lib/avr/atmega328p/gcc/libmark3.a(kernelaware.cpp.o)
                0x00001f98                _ZN11KernelAware5PrintEPKc
 .text._ZL13Thread_Switchv
                0x00001fc2       0x5e c:/Projects/Mark3_full_repo/trunk/embedded/stage/lib/avr/atmega328p/gcc/libmark3.a(threadport.cpp.o)
 .text._ZN10ThreadPort9InitStackEP6Thread
                0x00002020       0x70 c:/Projects/Mark3_full_repo/trunk/embedded/stage/lib/avr/atmega328p/gcc/libmark3.a(threadport.cpp.o)
                0x00002020                _ZN10ThreadPort9InitStackEP6Thread
 .text._ZN10ThreadPort12StartThreadsEv
                0x00002090       0x78 c:/Projects/Mark3_full_repo/trunk/embedded/stage/lib/avr/atmega328p/gcc/libmark3.a(threadport.cpp.o)
                0x00002090                _ZN10ThreadPort12StartThreadsEv
 .text.__vector_1
                0x00002108       0xb6 c:/Projects/Mark3_full_repo/trunk/embedded/stage/lib/avr/atmega328p/gcc/libmark3.a(threadport.cpp.o)
                0x00002108                __vector_1
 .text.__vector_11
                0x000021be       0x50 c:/Projects/Mark3_full_repo/trunk/embedded/stage/lib/avr/atmega328p/gcc/libmark3.a(threadport.cpp.o)
                0x000021be                __vector_11
 .text._ZN9KernelSWI6ConfigEv
                0x0000220e       0x10 c:/Projects/Mark3_full_repo/trunk/embedded/stage/lib/avr/atmega328p/gcc/libmark3.a(kernelswi.cpp.o)
                0x0000220e                _ZN9KernelSWI6ConfigEv
 .text._ZN9KernelSWI5StartEv
                0x0000221e        0x6 c:/Projects/Mark3_full_repo/trunk/embedded/stage/lib/avr/atmega328p/gcc/libmark3.a(kernelswi.cpp.o)
                0x0000221e                _ZN9KernelSWI5StartEv
 .text._ZN9KernelSWI2DIEv
                0x00002224        0x8 c:/Projects/Mark3_full_repo/trunk/embedded/stage/lib/avr/atmega328p/gcc/libmark3.a(kernelswi.cpp.o)
                0x00002224                _ZN9KernelSWI2DIEv
 .text._ZN9KernelSWI2RIEb
                0x0000222c        0xc c:/Projects/Mark3_full_repo/trunk/embedded/stage/lib/avr/atmega328p/gcc/libmark3.a(kernelswi.cpp.o)
                0x0000222c                _ZN9KernelSWI2RIEb
 .text._ZN9KernelSWI7TriggerEv
                0x00002238        0x6 c:/Projects/Mark3_full_repo/trunk/embedded/stage/lib/avr/atmega328p/gcc/libmark3.a(kernelswi.cpp.o)
                0x00002238                _ZN9KernelSWI7TriggerEv
 .text._ZN11KernelTimer6ConfigEv
                0x0000223e        0x8 c:/Projects/Mark3_full_repo/trunk/embedded/stage/lib/avr/atmega328p/gcc/libmark3.a(kerneltimer.cpp.o)
                0x0000223e                _ZN11KernelTimer6ConfigEv
 .text._ZN11KernelTimer5StartEv
                0x00002246       0x20 c:/Projects/Mark3_full_repo/trunk/embedded/stage/lib/avr/atmega328p/gcc/libmark3.a(kerneltimer.cpp.o)
                0x00002246                _ZN11KernelTimer5StartEv
 .text._ZN11KernelTimer4StopEv
                0x00002266       0x28 c:/Projects/Mark3_full_repo/trunk/embedded/stage/lib/avr/atmega328p/gcc/libmark3.a(kerneltimer.cpp.o)
                0x00002266                _ZN11KernelTimer4StopEv
 .text._ZN11KernelTimer4ReadEv
                0x0000228e       0x44 c:/Projects/Mark3_full_repo/trunk/embedded/stage/lib/avr/atmega328p/gcc/libmark3.a(kerneltimer.cpp.o)
                0x0000228e                _ZN11KernelTimer4ReadEv
 .text._ZN11KernelTimer14SubtractExpiryEm
                0x000022d2       0x1a c:/Projects/Mark3_full_repo/trunk/embedded/stage/lib/avr/atmega328p/gcc/libmark3.a(kerneltimer.cpp.o)
                0x000022d2                _ZN11KernelTimer14SubtractExpiryEm
 .text._ZN11KernelTimer12TimeToExpiryEv
                0x000022ec       0x2a c:/Projects/Mark3_full_repo/trunk/embedded/stage/lib/avr/atmega328p/gcc/libmark3.a(kerneltimer.cpp.o)
                0x000022ec                _ZN11KernelTimer12TimeToExpiryEv
 .text._ZN11KernelTimer11GetOvertimeEv
                0x00002316        0xc c:/Projects/Mark3_full_repo/trunk/embedded/stage/lib/avr/atmega328p/gcc/libmark3.a(kerneltimer.cpp.o)
                0x00002316                _ZN11KernelTimer11GetOvertimeEv
 .text._ZN11KernelTimer9SetExpiryEm
                0x00002322       0x1e c:/Projects/Mark3_full_repo/trunk/embedded/stage/lib/avr/atmega328p/gcc/libmark3.a(kerneltimer.cpp.o)
                0x00002322                _ZN11KernelTimer9SetExpiryEm
 .text._ZN11KernelTimer11ClearExpiryEv
                0x00002340        0xe c:/Projects/Mark3_full_repo/trunk/embedded/stage/lib/avr/atmega328p/gcc/libmark3.a(kerneltimer.cpp.o)
                0x00002340                _ZN11KernelTimer11ClearExpiryEv
 .text._ZN8Profiler4InitEv
                0x0000234e       0x1c c:/Projects/Mark3_full_repo/trunk/embedded/stage/lib/avr/atmega328p/gcc/libmark3.a(kernelprofile.cpp.o)
                0x0000234e                _ZN8Profiler4InitEv
 .text._ZN8Profiler7ProcessEv
                0x0000236a       0x42 c:/Projects/Mark3_full_repo/trunk/embedded/stage/lib/avr/atmega328p/gcc/libmark3.a(kernelprofile.cpp.o)
                0x0000236a                _ZN8Profiler7ProcessEv
 .text.__vector_16
                0x000023ac       0x48 c:/Projects/Mark3_full_repo/trunk/embedded/stage/lib/avr/atmega328p/gcc/libmark3.a(kernelprofile.cpp.o)
                0x000023ac                __vector_16
 .text._ZN14BlockingObject7UnBlockEP6Thread
                0x000023f4       0x30 c:/Projects/Mark3_full_repo/trunk/embedded/stage/lib/avr/atmega328p/gcc/libmark3.a(blocking.cpp.o)
                0x000023f4                _ZN14BlockingObject7UnBlockEP6Thread
 .text._ZN14BlockingObject5BlockEP6Thread
                0x00002424       0x2c c:/Projects/Mark3_full_repo/trunk/embedded/stage/lib/avr/atmega328p/gcc/libmark3.a(blocking.cpp.o)
                0x00002424                _ZN14BlockingObject5BlockEP6Thread
 .text._ZN7DevNull4InitEv
                0x00002450        0xc c:/Projects/Mark3_full_repo/trunk/embedded/stage/lib/avr/atmega328p/gcc/libmark3.a(driver.cpp.o)
                0x00002450                _ZN7DevNull4InitEv
 .text._ZN7DevNull4OpenEv
                0x0000245c        0x4 c:/Projects/Mark3_full_repo/trunk/embedded/stage/lib/avr/atmega328p/gcc/libmark3.a(driver.cpp.o)
                0x0000245c                _ZN7DevNull4OpenEv
 .text._ZN7DevNull5CloseEv
                0x00002460        0x4 c:/Projects/Mark3_full_repo/trunk/embedded/stage/lib/avr/atmega328p/gcc/libmark3.a(driver.cpp.o)
                0x00002460                _ZN7DevNull5CloseEv
 .text._ZN7DevNull4ReadEjPh
                0x00002464        0x6 c:/Projects/Mark3_full_repo/trunk/embedded/stage/lib/avr/atmega328p/gcc/libmark3.a(driver.cpp.o)
                0x00002464                _ZN7DevNull4ReadEjPh
 .text._ZN7DevNull5WriteEjPh
                0x0000246a        0x6 c:/Projects/Mark3_full_repo/trunk/embedded/stage/lib/avr/atmega328p/gcc/libmark3.a(driver.cpp.o)
                0x0000246a                _ZN7DevNull5WriteEjPh
 .text._ZN7DevNull7ControlEjPvjS0_j
                0x00002470        0x6 c:/Projects/Mark3_full_repo/trunk/embedded/stage/lib/avr/atmega328p/gcc/libmark3.a(driver.cpp.o)
                0x00002470                _ZN7DevNull7ControlEjPvjS0_j
 .text._ZN10DriverList4InitEv
                0x00002476       0x18 c:/Projects/Mark3_full_repo/trunk/embedded/stage/lib/avr/atmega328p/gcc/libmark3.a(driver.cpp.o)
                0x00002476                _ZN10DriverList4InitEv
 .text.startup._GLOBAL__sub_I__ZN10DriverList14m_clDriverListE
                0x0000248e       0x2a c:/Projects/Mark3_full_repo/trunk/embedded/stage/lib/avr/atmega328p/gcc/libmark3.a(driver.cpp.o)
 .text._ZL15QuantumCallbackP6ThreadPv
                0x000024b8       0x3a c:/Projects/Mark3_full_repo/trunk/embedded/stage/lib/avr/atmega328p/gcc/libmark3.a(quantum.cpp.o)
 .text._ZN7Quantum8SetTimerEP6Thread
                0x000024f2       0x34 c:/Projects/Mark3_full_repo/trunk/embedded/stage/lib/avr/atmega328p/gcc/libmark3.a(quantum.cpp.o)
                0x000024f2                _ZN7Quantum8SetTimerEP6Thread
 .text._ZN7Quantum9AddThreadEP6Thread
                0x00002526       0x54 c:/Projects/Mark3_full_repo/trunk/embedded/stage/lib/avr/atmega328p/gcc/libmark3.a(quantum.cpp.o)
                0x00002526                _ZN7Quantum9AddThreadEP6Thread
 .text._ZN7Quantum12RemoveThreadEv
                0x0000257a       0x1a c:/Projects/Mark3_full_repo/trunk/embedded/stage/lib/avr/atmega328p/gcc/libmark3.a(quantum.cpp.o)
                0x0000257a                _ZN7Quantum12RemoveThreadEv
 .text._ZN7Quantum11UpdateTimerEv
                0x00002594       0x12 c:/Projects/Mark3_full_repo/trunk/embedded/stage/lib/avr/atmega328p/gcc/libmark3.a(quantum.cpp.o)
                0x00002594                _ZN7Quantum11UpdateTimerEv
 .text._ZN9Scheduler4InitEv
                0x000025a6       0x36 c:/Projects/Mark3_full_repo/trunk/embedded/stage/lib/avr/atmega328p/gcc/libmark3.a(scheduler.cpp.o)
                0x000025a6                _ZN9Scheduler4InitEv
 .text._ZN9Scheduler8ScheduleEv
                0x000025dc       0x50 c:/Projects/Mark3_full_repo/trunk/embedded/stage/lib/avr/atmega328p/gcc/libmark3.a(scheduler.cpp.o)
                0x000025dc                _ZN9Scheduler8ScheduleEv
 .text._ZN9Scheduler3AddEP6Thread
                0x0000262c       0x22 c:/Projects/Mark3_full_repo/trunk/embedded/stage/lib/avr/atmega328p/gcc/libmark3.a(scheduler.cpp.o)
                0x0000262c                _ZN9Scheduler3AddEP6Thread
 .text._ZN9Scheduler6RemoveEP6Thread
                0x0000264e       0x22 c:/Projects/Mark3_full_repo/trunk/embedded/stage/lib/avr/atmega328p/gcc/libmark3.a(scheduler.cpp.o)
                0x0000264e                _ZN9Scheduler6RemoveEP6Thread
 .text._ZN9Scheduler12SetSchedulerEb
                0x00002670       0x3e c:/Projects/Mark3_full_repo/trunk/embedded/stage/lib/avr/atmega328p/gcc/libmark3.a(scheduler.cpp.o)
                0x00002670                _ZN9Scheduler12SetSchedulerEb
 .text.startup._GLOBAL__sub_I_g_pclNext
                0x000026ae       0x4a c:/Projects/Mark3_full_repo/trunk/embedded/stage/lib/avr/atmega328p/gcc/libmark3.a(scheduler.cpp.o)
 .text._ZN10SystemHeap4InitEv
                0x000026f8       0x6c c:/Projects/Mark3_full_repo/trunk/embedded/stage/lib/avr/atmega328p/gcc/libheap.a(system_heap.cpp.o)
                0x000026f8                _ZN10SystemHeap4InitEv
 .text._ZN10SystemHeap5AllocEj
                0x00002764       0x18 c:/Projects/Mark3_full_repo/trunk/embedded/stage/lib/avr/atmega328p/gcc/libheap.a(system_heap.cpp.o)
                0x00002764                _ZN10SystemHeap5AllocEj
 .text._ZN10SystemHeap4FreeEPv
                0x0000277c        0xc c:/Projects/Mark3_full_repo/trunk/embedded/stage/lib/avr/atmega328p/gcc/libheap.a(system_heap.cpp.o)
                0x0000277c                _ZN10SystemHeap4FreeEPv
 .text.startup._GLOBAL__sub_I__ZN10SystemHeap12m_pu8RawHeapE
                0x00002788       0x24 c:/Projects/Mark3_full_repo/trunk/embedded/stage/lib/avr/atmega328p/gcc/libheap.a(system_heap.cpp.o)
 .text._ZN9BlockHeap6CreateEPvjj
                0x000027ac       0x9e c:/Projects/Mark3_full_repo/trunk/embedded/stage/lib/avr/atmega328p/gcc/libheap.a(fixed_heap.cpp.o)
                0x000027ac                _ZN9BlockHeap6CreateEPvjj
 .text._ZN9FixedHeap6CreateEPvP10HeapConfig
                0x0000284a       0x56 c:/Projects/Mark3_full_repo/trunk/embedded/stage/lib/avr/atmega328p/gcc/libheap.a(fixed_heap.cpp.o)
                0x0000284a                _ZN9FixedHeap6CreateEPvP10HeapConfig
 .text._ZN9BlockHeap4FreeEPv
                0x000028a0       0x20 c:/Projects/Mark3_full_repo/trunk/embedded/stage/lib/avr/atmega328p/gcc/libheap.a(fixed_heap.cpp.o)
                0x000028a0                _ZN9BlockHeap4FreeEPv
 .text._ZN9FixedHeap4FreeEPv
                0x000028c0       0x2a c:/Projects/Mark3_full_repo/trunk/embedded/stage/lib/avr/atmega328p/gcc/libheap.a(fixed_heap.cpp.o)
                0x000028c0                _ZN9FixedHeap4FreeEPv
 .text._ZN9BlockHeap5AllocEv
                0x000028ea       0x3a c:/Projects/Mark3_full_repo/trunk/embedded/stage/lib/avr/atmega328p/gcc/libheap.a(fixed_heap.cpp.o)
                0x000028ea                _ZN9BlockHeap5AllocEv
 .text._ZN9FixedHeap5AllocEj
                0x00002924       0x7c c:/Projects/Mark3_full_repo/trunk/embedded/stage/lib/avr/atmega328p/gcc/libheap.a(fixed_heap.cpp.o)
                0x00002924                _ZN9FixedHeap5AllocEj
 .text._ZN12PseudoRandomC2Ev
                0x000029a0       0x24 c:/Projects/Mark3_full_repo/trunk/embedded/stage/lib/avr/atmega328p/gcc/librandom.a(rand_lfsr.cpp.o)
                0x000029a0                _ZN12PseudoRandomC1Ev
                0x000029a0                _ZN12PseudoRandomC2Ev
 .text._ZN12PseudoRandom4SeedEmm
                0x000029c4       0x1c c:/Projects/Mark3_full_repo/trunk/embedded/stage/lib/avr/atmega328p/gcc/librandom.a(rand_lfsr.cpp.o)
                0x000029c4                _ZN12PseudoRandom4SeedEmm
 .text._ZN12PseudoRandom5ShiftEPmm
                0x000029e0       0x44 c:/Projects/Mark3_full_repo/trunk/embedded/stage/lib/avr/atmega328p/gcc/librandom.a(rand_lfsr.cpp.o)
                0x000029e0                _ZN12PseudoRandom5ShiftEPmm
 .text._ZN12PseudoRandom9GetRandomEv
                0x00002a24       0x5e c:/Projects/Mark3_full_repo/trunk/embedded/stage/lib/avr/atmega328p/gcc/librandom.a(rand_lfsr.cpp.o)
                0x00002a24                _ZN12PseudoRandom9GetRandomEv
 .text._ZN14GraphicsDriver9ReadPixelEP11DrawPoint_t
                0x00002a82        0x2 c:/Projects/Mark3_full_repo/trunk/embedded/stage/lib/avr/atmega328p/gcc/libgraphics.a(graphics.cpp.o)
                0x00002a82                _ZN14GraphicsDriver9ReadPixelEP11DrawPoint_t
 .text._ZN14GraphicsDriver11ClearScreenEv
                0x00002a84       0x92 c:/Projects/Mark3_full_repo/trunk/embedded/stage/lib/avr/atmega328p/gcc/libgraphics.a(graphics.cpp.o)
                0x00002a84                _ZN14GraphicsDriver11ClearScreenEv
 .text._ZN14GraphicsDriver4LineEP10DrawLine_t
                0x00002b16      0x19a c:/Projects/Mark3_full_repo/trunk/embedded/stage/lib/avr/atmega328p/gcc/libgraphics.a(graphics.cpp.o)
                0x00002b16                _ZN14GraphicsDriver4LineEP10DrawLine_t
 .text._ZN14GraphicsDriver9RectangleEP15DrawRectangle_t
                0x00002cb0      0x1c2 c:/Projects/Mark3_full_repo/trunk/embedded/stage/lib/avr/atmega328p/gcc/libgraphics.a(graphics.cpp.o)
                0x00002cb0                _ZN14GraphicsDriver9RectangleEP15DrawRectangle_t
 .text._ZN14GraphicsDriver6CircleEP12DrawCircle_t
                0x00002e72      0x344 c:/Projects/Mark3_full_repo/trunk/embedded/stage/lib/avr/atmega328p/gcc/libgraphics.a(graphics.cpp.o)
                0x00002e72                _ZN14GraphicsDriver6CircleEP12DrawCircle_t
 .text._ZN14GraphicsDriver7EllipseEP13DrawEllipse_t
                0x000031b6      0x20e c:/Projects/Mark3_full_repo/trunk/embedded/stage/lib/avr/atmega328p/gcc/libgraphics.a(graphics.cpp.o)
                0x000031b6                _ZN14GraphicsDriver7EllipseEP13DrawEllipse_t
 .text._ZN14GraphicsDriver6BitmapEP12DrawBitmap_t
                0x000033c4       0xe4 c:/Projects/Mark3_full_repo/trunk/embedded/stage/lib/avr/atmega328p/gcc/libgraphics.a(graphics.cpp.o)
                0x000033c4                _ZN14GraphicsDriver6BitmapEP12DrawBitmap_t
 .text._ZN14GraphicsDriver5StampEP11DrawStamp_t
                0x000034a8      0x114 c:/Projects/Mark3_full_repo/trunk/embedded/stage/lib/avr/atmega328p/gcc/libgraphics.a(graphics.cpp.o)
                0x000034a8                _ZN14GraphicsDriver5StampEP11DrawStamp_t
 .text._ZN14GraphicsDriver4MoveEP10DrawMove_t
                0x000035bc      0x1e4 c:/Projects/Mark3_full_repo/trunk/embedded/stage/lib/avr/atmega328p/gcc/libgraphics.a(graphics.cpp.o)
                0x000035bc                _ZN14GraphicsDriver4MoveEP10DrawMove_t
 .text._ZN14GraphicsDriver4TextEP10DrawText_t
                0x000037a0      0x1ce c:/Projects/Mark3_full_repo/trunk/embedded/stage/lib/avr/atmega328p/gcc/libgraphics.a(graphics.cpp.o)
                0x000037a0                _ZN14GraphicsDriver4TextEP10DrawText_t
 .text._ZN14GraphicsDriver9TextWidthEP10DrawText_t
                0x0000396e       0x94 c:/Projects/Mark3_full_repo/trunk/embedded/stage/lib/avr/atmega328p/gcc/libgraphics.a(graphics.cpp.o)
                0x0000396e                _ZN14GraphicsDriver9TextWidthEP10DrawText_t
 .text._ZN14GraphicsDriver12TriangleWireEP10DrawPoly_t
                0x00003a02      0x10e c:/Projects/Mark3_full_repo/trunk/embedded/stage/lib/avr/atmega328p/gcc/libgraphics.a(graphics.cpp.o)
                0x00003a02                _ZN14GraphicsDriver12TriangleWireEP10DrawPoly_t
 .text._ZN14GraphicsDriver12TriangleFillEP10DrawPoly_t
                0x00003b10      0x3e6 c:/Projects/Mark3_full_repo/trunk/embedded/stage/lib/avr/atmega328p/gcc/libgraphics.a(graphics.cpp.o)
                0x00003b10                _ZN14GraphicsDriver12TriangleFillEP10DrawPoly_t
 .text._ZN14GraphicsDriver7PolygonEP10DrawPoly_t
                0x00003ef6      0x1ce c:/Projects/Mark3_full_repo/trunk/embedded/stage/lib/avr/atmega328p/gcc/libgraphics.a(graphics.cpp.o)
                0x00003ef6                _ZN14GraphicsDriver7PolygonEP10DrawPoly_t
 .text._ZN14GraphicsDriver9SetWindowEP12DrawWindow_t
                0x000040c4       0x64 c:/Projects/Mark3_full_repo/trunk/embedded/stage/lib/avr/atmega328p/gcc/libgraphics.a(graphics.cpp.o)
                0x000040c4                _ZN14GraphicsDriver9SetWindowEP12DrawWindow_t
 .text._ZN14GraphicsDriver11ClearWindowEv
                0x00004128       0x20 c:/Projects/Mark3_full_repo/trunk/embedded/stage/lib/avr/atmega328p/gcc/libgraphics.a(graphics.cpp.o)
                0x00004128                _ZN14GraphicsDriver11ClearWindowEv
 .text._ZN13GraphicsFlavr4InitEv
                0x00004148       0x14 c:/Projects/Mark3_full_repo/trunk/embedded/stage/lib/avr/atmega328p/gcc/libdrvGraphicsFlavr.a(graphics_flavr.cpp.o)
                0x00004148                _ZN13GraphicsFlavr4InitEv
 .text._ZN13GraphicsFlavr4OpenEv
                0x0000415c        0x4 c:/Projects/Mark3_full_repo/trunk/embedded/stage/lib/avr/atmega328p/gcc/libdrvGraphicsFlavr.a(graphics_flavr.cpp.o)
                0x0000415c                _ZN13GraphicsFlavr4OpenEv
 .text._ZN13GraphicsFlavr5CloseEv
                0x00004160        0x4 c:/Projects/Mark3_full_repo/trunk/embedded/stage/lib/avr/atmega328p/gcc/libdrvGraphicsFlavr.a(graphics_flavr.cpp.o)
                0x00004160                _ZN13GraphicsFlavr5CloseEv
 .text._ZN13GraphicsFlavr4ReadEjPh
                0x00004164        0x4 c:/Projects/Mark3_full_repo/trunk/embedded/stage/lib/avr/atmega328p/gcc/libdrvGraphicsFlavr.a(graphics_flavr.cpp.o)
                0x00004164                _ZN13GraphicsFlavr4ReadEjPh
 .text._ZN13GraphicsFlavr5WriteEjPh
                0x00004168        0x4 c:/Projects/Mark3_full_repo/trunk/embedded/stage/lib/avr/atmega328p/gcc/libdrvGraphicsFlavr.a(graphics_flavr.cpp.o)
                0x00004168                _ZN13GraphicsFlavr5WriteEjPh
 .text._ZN13GraphicsFlavr7ControlEjPvjS0_j
                0x0000416c        0x6 c:/Projects/Mark3_full_repo/trunk/embedded/stage/lib/avr/atmega328p/gcc/libdrvGraphicsFlavr.a(graphics_flavr.cpp.o)
                0x0000416c                _ZN13GraphicsFlavr7ControlEjPvjS0_j
 .text._ZN13GraphicsFlavr5PointEP11DrawPoint_t
                0x00004172        0xe c:/Projects/Mark3_full_repo/trunk/embedded/stage/lib/avr/atmega328p/gcc/libdrvGraphicsFlavr.a(graphics_flavr.cpp.o)
                0x00004172                _ZN13GraphicsFlavr5PointEP11DrawPoint_t
 .text._ZN13GraphicsFlavr9DrawPixelEP11DrawPoint_t
                0x00004180       0x10 c:/Projects/Mark3_full_repo/trunk/embedded/stage/lib/avr/atmega328p/gcc/libdrvGraphicsFlavr.a(graphics_flavr.cpp.o)
                0x00004180                _ZN13GraphicsFlavr9DrawPixelEP11DrawPoint_t
 .text._ZN13GraphicsFlavr4FlipEv
                0x00004190        0x8 c:/Projects/Mark3_full_repo/trunk/embedded/stage/lib/avr/atmega328p/gcc/libdrvGraphicsFlavr.a(graphics_flavr.cpp.o)
                0x00004190                _ZN13GraphicsFlavr4FlipEv
 .text._ZN14JoystickDriver4ScanEv
                0x00004198       0x8a c:/Projects/Mark3_full_repo/trunk/embedded/stage/lib/avr/atmega328p/gcc/libjoystick.a(joystick.cpp.o)
                0x00004198                _ZN14JoystickDriver4ScanEv
 .text._ZN14JoystickDriver11ReadCurrentEP14JoystickReport
                0x00004222       0x40 c:/Projects/Mark3_full_repo/trunk/embedded/stage/lib/avr/atmega328p/gcc/libjoystick.a(joystick.cpp.o)
                0x00004222                _ZN14JoystickDriver11ReadCurrentEP14JoystickReport
 .text._ZN14JoystickDriver12ReadPreviousEP14JoystickReport
                0x00004262       0x40 c:/Projects/Mark3_full_repo/trunk/embedded/stage/lib/avr/atmega328p/gcc/libjoystick.a(joystick.cpp.o)
                0x00004262                _ZN14JoystickDriver12ReadPreviousEP14JoystickReport
 .text._ZN13FlavrJoystick5CloseEv
                0x000042a2        0x4 c:/Projects/Mark3_full_repo/trunk/embedded/stage/lib/avr/atmega328p/gcc/libdrvFlavrJoy.a(drvFlavrJoy.cpp.o)
                0x000042a2                _ZN13FlavrJoystick5CloseEv
 .text._ZN13FlavrJoystick4ReadEjPh
                0x000042a6        0x4 c:/Projects/Mark3_full_repo/trunk/embedded/stage/lib/avr/atmega328p/gcc/libdrvFlavrJoy.a(drvFlavrJoy.cpp.o)
                0x000042a6                _ZN13FlavrJoystick4ReadEjPh
 .text._ZN13FlavrJoystick5WriteEjPh
                0x000042aa        0x4 c:/Projects/Mark3_full_repo/trunk/embedded/stage/lib/avr/atmega328p/gcc/libdrvFlavrJoy.a(drvFlavrJoy.cpp.o)
                0x000042aa                _ZN13FlavrJoystick5WriteEjPh
 .text._ZN13FlavrJoystick4InitEv
                0x000042ae        0x2 c:/Projects/Mark3_full_repo/trunk/embedded/stage/lib/avr/atmega328p/gcc/libdrvFlavrJoy.a(drvFlavrJoy.cpp.o)
                0x000042ae                _ZN13FlavrJoystick4InitEv
 .text._ZN13FlavrJoystick4OpenEv
                0x000042b0        0x4 c:/Projects/Mark3_full_repo/trunk/embedded/stage/lib/avr/atmega328p/gcc/libdrvFlavrJoy.a(drvFlavrJoy.cpp.o)
                0x000042b0                _ZN13FlavrJoystick4OpenEv
 .text._ZN13FlavrJoystick12ScanInternalEv
                0x000042b4       0x58 c:/Projects/Mark3_full_repo/trunk/embedded/stage/lib/avr/atmega328p/gcc/libdrvFlavrJoy.a(drvFlavrJoy.cpp.o)
                0x000042b4                _ZN13FlavrJoystick12ScanInternalEv
 .text._ZN13FlavrJoystick7ControlEjPvjS0_j
                0x0000430c       0x10 c:/Projects/Mark3_full_repo/trunk/embedded/stage/lib/avr/atmega328p/gcc/libdrvFlavrJoy.a(drvFlavrJoy.cpp.o)
                0x0000430c                _ZN13FlavrJoystick7ControlEjPvjS0_j
 .text._ZN9GuiWindow12GetMaxZOrderEv
                0x0000431c       0x22 c:/Projects/Mark3_full_repo/trunk/embedded/stage/lib/avr/atmega328p/gcc/libgui.a(gui.cpp.o)
                0x0000431c                _ZN9GuiWindow12GetMaxZOrderEv
 .text._ZN9GuiWindow6RedrawEb
                0x0000433e       0x76 c:/Projects/Mark3_full_repo/trunk/embedded/stage/lib/avr/atmega328p/gcc/libgui.a(gui.cpp.o)
                0x0000433e                _ZN9GuiWindow6RedrawEb
 .text._ZN9GuiWindow8SetFocusEP10GuiControl
                0x000043b4        0x8 c:/Projects/Mark3_full_repo/trunk/embedded/stage/lib/avr/atmega328p/gcc/libgui.a(gui.cpp.o)
                0x000043b4                _ZN9GuiWindow8SetFocusEP10GuiControl
 .text._ZN9GuiWindow10CycleFocusEb
                0x000043bc      0x186 c:/Projects/Mark3_full_repo/trunk/embedded/stage/lib/avr/atmega328p/gcc/libgui.a(gui.cpp.o)
                0x000043bc                _ZN9GuiWindow10CycleFocusEb
 .text._ZN15GuiEventSurface9CopyEventEP10GuiEvent_tS1_
                0x00004542       0x16 c:/Projects/Mark3_full_repo/trunk/embedded/stage/lib/avr/atmega328p/gcc/libgui.a(gui.cpp.o)
                0x00004542                _ZN15GuiEventSurface9CopyEventEP10GuiEvent_tS1_
 .text._ZN15GuiEventSurface9SendEventEP10GuiEvent_t
                0x00004558       0x64 c:/Projects/Mark3_full_repo/trunk/embedded/stage/lib/avr/atmega328p/gcc/libgui.a(gui.cpp.o)
                0x00004558                _ZN15GuiEventSurface9SendEventEP10GuiEvent_t
 .text._ZN10GuiControl16GetControlOffsetEPjS0_
                0x000045bc       0x7e c:/Projects/Mark3_full_repo/trunk/embedded/stage/lib/avr/atmega328p/gcc/libgui.a(gui.cpp.o)
                0x000045bc                _ZN10GuiControl16GetControlOffsetEPjS0_
 .text._ZN9GuiWindow12ProcessEventEP10GuiEvent_t
                0x0000463a      0x21c c:/Projects/Mark3_full_repo/trunk/embedded/stage/lib/avr/atmega328p/gcc/libgui.a(gui.cpp.o)
                0x0000463a                _ZN9GuiWindow12ProcessEventEP10GuiEvent_t
 .text._ZN15GuiEventSurface12ProcessEventEv
                0x00004856       0xd0 c:/Projects/Mark3_full_repo/trunk/embedded/stage/lib/avr/atmega328p/gcc/libgui.a(gui.cpp.o)
                0x00004856                _ZN15GuiEventSurface12ProcessEventEv
 .text._ZN9GuiWindow10AddControlEP10GuiControlS1_
                0x00004926       0x4a c:/Projects/Mark3_full_repo/trunk/embedded/stage/lib/avr/atmega328p/gcc/libgui.a(gui.cpp.o)
                0x00004926                _ZN9GuiWindow10AddControlEP10GuiControlS1_
 .text._ZN15GuiEventSurface9AddWindowEP9GuiWindow
                0x00004970        0x4 c:/Projects/Mark3_full_repo/trunk/embedded/stage/lib/avr/atmega328p/gcc/libgui.a(gui.cpp.o)
                0x00004970                _ZN15GuiEventSurface9AddWindowEP9GuiWindow
 .text._ZN17BrushPanelControl4InitEv
                0x00004974        0x6 c:/Projects/Mark3_full_repo/trunk/embedded/stage/lib/avr/atmega328p/gcc/libgui.a(control_brushpanel.cpp.o)
                0x00004974                _ZN17BrushPanelControl4InitEv
 .text._ZN17BrushPanelControl12ProcessEventEP10GuiEvent_t
                0x0000497a        0x4 c:/Projects/Mark3_full_repo/trunk/embedded/stage/lib/avr/atmega328p/gcc/libgui.a(control_brushpanel.cpp.o)
                0x0000497a                _ZN17BrushPanelControl12ProcessEventEP10GuiEvent_t
 .text._ZN17BrushPanelControl8ActivateEb
                0x0000497e        0x2 c:/Projects/Mark3_full_repo/trunk/embedded/stage/lib/avr/atmega328p/gcc/libgui.a(control_brushpanel.cpp.o)
                0x0000497e                _ZN17BrushPanelControl8ActivateEb
 .text._ZN17BrushPanelControl4DrawEv
                0x00004980      0x1ba c:/Projects/Mark3_full_repo/trunk/embedded/stage/lib/avr/atmega328p/gcc/libgui.a(control_brushpanel.cpp.o)
                0x00004980                _ZN17BrushPanelControl4DrawEv
 .text._ZN13ButtonControl4InitEv
                0x00004b3a       0x6e c:/Projects/Mark3_full_repo/trunk/embedded/stage/lib/avr/atmega328p/gcc/libgui.a(control_button.cpp.o)
                0x00004b3a                _ZN13ButtonControl4InitEv
 .text._ZN13ButtonControl8ActivateEb
                0x00004ba8       0x10 c:/Projects/Mark3_full_repo/trunk/embedded/stage/lib/avr/atmega328p/gcc/libgui.a(control_button.cpp.o)
                0x00004ba8                _ZN13ButtonControl8ActivateEb
 .text._ZN13ButtonControl4DrawEv
                0x00004bb8      0x2c8 c:/Projects/Mark3_full_repo/trunk/embedded/stage/lib/avr/atmega328p/gcc/libgui.a(control_button.cpp.o)
                0x00004bb8                _ZN13ButtonControl4DrawEv
 .text._ZN13ButtonControl12ProcessEventEP10GuiEvent_t
                0x00004e80      0x26a c:/Projects/Mark3_full_repo/trunk/embedded/stage/lib/avr/atmega328p/gcc/libgui.a(control_button.cpp.o)
                0x00004e80                _ZN13ButtonControl12ProcessEventEP10GuiEvent_t
 .text._ZN15CheckBoxControl8ActivateEb
                0x000050ea        0x8 c:/Projects/Mark3_full_repo/trunk/embedded/stage/lib/avr/atmega328p/gcc/libgui.a(control_checkbox.cpp.o)
                0x000050ea                _ZN15CheckBoxControl8ActivateEb
 .text._ZN15CheckBoxControl4InitEv
                0x000050f2       0x3c c:/Projects/Mark3_full_repo/trunk/embedded/stage/lib/avr/atmega328p/gcc/libgui.a(control_checkbox.cpp.o)
                0x000050f2                _ZN15CheckBoxControl4InitEv
 .text._ZN15CheckBoxControl4DrawEv
                0x0000512e      0x216 c:/Projects/Mark3_full_repo/trunk/embedded/stage/lib/avr/atmega328p/gcc/libgui.a(control_checkbox.cpp.o)
                0x0000512e                _ZN15CheckBoxControl4DrawEv
 .text._ZN15CheckBoxControl12ProcessEventEP10GuiEvent_t
                0x00005344      0x1d8 c:/Projects/Mark3_full_repo/trunk/embedded/stage/lib/avr/atmega328p/gcc/libgui.a(control_checkbox.cpp.o)
                0x00005344                _ZN15CheckBoxControl12ProcessEventEP10GuiEvent_t
 .text._ZN15GroupBoxControl12ProcessEventEP10GuiEvent_t
                0x0000551c        0x4 c:/Projects/Mark3_full_repo/trunk/embedded/stage/lib/avr/atmega328p/gcc/libgui.a(control_groupbox.cpp.o)
                0x0000551c                _ZN15GroupBoxControl12ProcessEventEP10GuiEvent_t
 .text._ZN15GroupBoxControl8ActivateEb
                0x00005520        0x2 c:/Projects/Mark3_full_repo/trunk/embedded/stage/lib/avr/atmega328p/gcc/libgui.a(control_groupbox.cpp.o)
                0x00005520                _ZN15GroupBoxControl8ActivateEb
 .text._ZN15GroupBoxControl4InitEv
                0x00005522       0x36 c:/Projects/Mark3_full_repo/trunk/embedded/stage/lib/avr/atmega328p/gcc/libgui.a(control_groupbox.cpp.o)
                0x00005522                _ZN15GroupBoxControl4InitEv
 .text._ZN15GroupBoxControl4DrawEv
                0x00005558      0x180 c:/Projects/Mark3_full_repo/trunk/embedded/stage/lib/avr/atmega328p/gcc/libgui.a(control_groupbox.cpp.o)
                0x00005558                _ZN15GroupBoxControl4DrawEv
 .text._ZN12LabelControl12ProcessEventEP10GuiEvent_t
                0x000056d8        0x4 c:/Projects/Mark3_full_repo/trunk/embedded/stage/lib/avr/atmega328p/gcc/libgui.a(control_label.cpp.o)
                0x000056d8                _ZN12LabelControl12ProcessEventEP10GuiEvent_t
 .text._ZN12LabelControl8ActivateEb
                0x000056dc        0x2 c:/Projects/Mark3_full_repo/trunk/embedded/stage/lib/avr/atmega328p/gcc/libgui.a(control_label.cpp.o)
                0x000056dc                _ZN12LabelControl8ActivateEb
 .text._ZN12LabelControl4InitEv
                0x000056de       0x2c c:/Projects/Mark3_full_repo/trunk/embedded/stage/lib/avr/atmega328p/gcc/libgui.a(control_label.cpp.o)
                0x000056de                _ZN12LabelControl4InitEv
 .text._ZN12LabelControl4DrawEv
                0x0000570a      0x182 c:/Projects/Mark3_full_repo/trunk/embedded/stage/lib/avr/atmega328p/gcc/libgui.a(control_label.cpp.o)
                0x0000570a                _ZN12LabelControl4DrawEv
 .text._ZN15ProgressControl8ActivateEb
                0x0000588c        0x2 c:/Projects/Mark3_full_repo/trunk/embedded/stage/lib/avr/atmega328p/gcc/libgui.a(control_progress.cpp.o)
                0x0000588c                _ZN15ProgressControl8ActivateEb
 .text._ZN15ProgressControl4InitEv
                0x0000588e       0x36 c:/Projects/Mark3_full_repo/trunk/embedded/stage/lib/avr/atmega328p/gcc/libgui.a(control_progress.cpp.o)
                0x0000588e                _ZN15ProgressControl4InitEv
 .text._ZN15ProgressControl12ProcessEventEP10GuiEvent_t
                0x000058c4        0x4 c:/Projects/Mark3_full_repo/trunk/embedded/stage/lib/avr/atmega328p/gcc/libgui.a(control_progress.cpp.o)
                0x000058c4                _ZN15ProgressControl12ProcessEventEP10GuiEvent_t
 .text._ZN15ProgressControl4DrawEv
                0x000058c8      0x270 c:/Projects/Mark3_full_repo/trunk/embedded/stage/lib/avr/atmega328p/gcc/libgui.a(control_progress.cpp.o)
                0x000058c8                _ZN15ProgressControl4DrawEv
 .text._ZN15ProgressControl11SetProgressEh
                0x00005b38       0x14 c:/Projects/Mark3_full_repo/trunk/embedded/stage/lib/avr/atmega328p/gcc/libgui.a(control_progress.cpp.o)
                0x00005b38                _ZN15ProgressControl11SetProgressEh
 .text._ZN15SevenSegControl8ActivateEb
                0x00005b4c        0x2 c:/Projects/Mark3_full_repo/trunk/embedded/stage/lib/avr/atmega328p/gcc/libgui.a(control_sevenseg.cpp.o)
                0x00005b4c                _ZN15SevenSegControl8ActivateEb
 .text._ZN15SevenSegControl4InitEv
                0x00005b4e        0x6 c:/Projects/Mark3_full_repo/trunk/embedded/stage/lib/avr/atmega328p/gcc/libgui.a(control_sevenseg.cpp.o)
                0x00005b4e                _ZN15SevenSegControl4InitEv
 .text._ZN15SevenSegControl12ProcessEventEP10GuiEvent_t
                0x00005b54        0x4 c:/Projects/Mark3_full_repo/trunk/embedded/stage/lib/avr/atmega328p/gcc/libgui.a(control_sevenseg.cpp.o)
                0x00005b54                _ZN15SevenSegControl12ProcessEventEP10GuiEvent_t
 .text._ZN15SevenSegControl4DrawEv
                0x00005b58      0x5d0 c:/Projects/Mark3_full_repo/trunk/embedded/stage/lib/avr/atmega328p/gcc/libgui.a(control_sevenseg.cpp.o)
                0x00005b58                _ZN15SevenSegControl4DrawEv
 .text.libgcc.mul
                0x00006128       0x20 c:/program files (x86)/atmel/atmel toolchain/avr8 gcc/native/3.4.1061/avr8-gnu-toolchain/bin/../lib/gcc/avr/4.8.1/avr5\libgcc.a(_mulsi3.o)
                0x00006128                __mulsi3
 .text.libgcc.div
                0x00006148       0x28 c:/program files (x86)/atmel/atmel toolchain/avr8 gcc/native/3.4.1061/avr8-gnu-toolchain/bin/../lib/gcc/avr/4.8.1/avr5\libgcc.a(_udivmodhi4.o)
                0x00006148                __udivmodhi4
 .text.libgcc.div
                0x00006170       0x44 c:/program files (x86)/atmel/atmel toolchain/avr8 gcc/native/3.4.1061/avr8-gnu-toolchain/bin/../lib/gcc/avr/4.8.1/avr5\libgcc.a(_udivmodsi4.o)
                0x00006170                __udivmodsi4
 .text.libgcc.mul
                0x000061b4       0x1e c:/program files (x86)/atmel/atmel toolchain/avr8 gcc/native/3.4.1061/avr8-gnu-toolchain/bin/../lib/gcc/avr/4.8.1/avr5\libgcc.a(_umulhisi3.o)
                0x000061b4                __umulhisi3
 .text.libgcc.mul
                0x000061d2       0x16 c:/program files (x86)/atmel/atmel toolchain/avr8 gcc/native/3.4.1061/avr8-gnu-toolchain/bin/../lib/gcc/avr/4.8.1/avr5\libgcc.a(_muluhisi3.o)
                0x000061d2                __muluhisi3
 .text.libgcc   0x000061e8        0xc c:/program files (x86)/atmel/atmel toolchain/avr8 gcc/native/3.4.1061/avr8-gnu-toolchain/bin/../lib/gcc/avr/4.8.1/avr5\libgcc.a(_tablejump.o)
                0x000061e8                __tablejump2__
                0x000061ec                __tablejump__
                0x000061f4                . = ALIGN (0x2)
 *(.fini9)
 .fini9         0x000061f4        0x0 c:/program files (x86)/atmel/atmel toolchain/avr8 gcc/native/3.4.1061/avr8-gnu-toolchain/bin/../lib/gcc/avr/4.8.1/avr5\libgcc.a(_exit.o)
                0x000061f4                _exit
                0x000061f4                exit
 *(.fini9)
 *(.fini8)
 *(.fini8)
 *(.fini7)
 *(.fini7)
 *(.fini6)
 *(.fini6)
 *(.fini5)
 *(.fini5)
 *(.fini4)
 *(.fini4)
 *(.fini3)
 *(.fini3)
 *(.fini2)
 *(.fini2)
 *(.fini1)
 *(.fini1)
 *(.fini0)
 .fini0         0x000061f4        0x4 c:/program files (x86)/atmel/atmel toolchain/avr8 gcc/native/3.4.1061/avr8-gnu-toolchain/bin/../lib/gcc/avr/4.8.1/avr5\libgcc.a(_exit.o)
 *(.fini0)
                0x000061f8                _etext = .

.data           0x00800100      0x1a2 load address 0x000061f8
                0x00800100                PROVIDE (__data_start, .)
 *(.data)
 .data          0x00800100        0x1 ./obj/avr/atmega328p/gcc/main.cpp.o
 .data          0x00800101        0x8 c:/Projects/Mark3_full_repo/trunk/embedded/stage/lib/avr/atmega328p/gcc/libarial_10.a(arial_10.cpp.o)
                0x00800101                fntArial_10_False_False_False_
 *(.data*)
 *(.rodata)
 .rodata        0x00800109       0x10 c:/Projects/Mark3_full_repo/trunk/embedded/stage/lib/avr/atmega328p/gcc/libmark3.a(scheduler.cpp.o)
 .rodata        0x00800119       0x10 c:/Projects/Mark3_full_repo/trunk/embedded/stage/lib/avr/atmega328p/gcc/libgui.a(control_checkbox.cpp.o)
 .rodata        0x00800129        0xa c:/Projects/Mark3_full_repo/trunk/embedded/stage/lib/avr/atmega328p/gcc/libgui.a(control_sevenseg.cpp.o)
 *(.rodata*)
 .rodata.str1.1
                0x00800133       0x9c ./obj/avr/atmega328p/gcc/main.cpp.o
                                 0x9d (size before relaxing)
 .rodata._ZTV14DoubleLinkList
                0x008001cf        0x8 c:/Projects/Mark3_full_repo/trunk/embedded/stage/lib/avr/atmega328p/gcc/libmark3.a(ll.cpp.o)
                0x008001cf                _ZTV14DoubleLinkList
 .rodata._ZTV10ThreadList
                0x008001d7        0x8 c:/Projects/Mark3_full_repo/trunk/embedded/stage/lib/avr/atmega328p/gcc/libmark3.a(threadlist.cpp.o)
                0x008001d7                _ZTV10ThreadList
 .rodata._ZTV9TimerList
                0x008001df        0x8 c:/Projects/Mark3_full_repo/trunk/embedded/stage/lib/avr/atmega328p/gcc/libmark3.a(timerlist.cpp.o)
                0x008001df                _ZTV9TimerList
 .rodata.str1.1
                0x008001e7        0xa c:/Projects/Mark3_full_repo/trunk/embedded/stage/lib/avr/atmega328p/gcc/libmark3.a(driver.cpp.o)
 .rodata._ZTV7DevNull
                0x008001f1       0x10 c:/Projects/Mark3_full_repo/trunk/embedded/stage/lib/avr/atmega328p/gcc/libmark3.a(driver.cpp.o)
                0x008001f1                _ZTV7DevNull
 .rodata.str1.1
                0x00800201        0x6 c:/Projects/Mark3_full_repo/trunk/embedded/stage/lib/avr/atmega328p/gcc/libarial_10.a(arial_10.cpp.o)
 .rodata._ZTV13GraphicsFlavr
                0x00800207       0x30 c:/Projects/Mark3_full_repo/trunk/embedded/stage/lib/avr/atmega328p/gcc/libdrvGraphicsFlavr.a(graphics_flavr.cpp.o)
                0x00800207                _ZTV13GraphicsFlavr
 .rodata._ZTV13FlavrJoystick
                0x00800237       0x10 c:/Projects/Mark3_full_repo/trunk/embedded/stage/lib/avr/atmega328p/gcc/libdrvFlavrJoy.a(drvFlavrJoy.cpp.o)
                0x00800237                _ZTV13FlavrJoystick
 .rodata._ZTV17BrushPanelControl
                0x00800247        0xc c:/Projects/Mark3_full_repo/trunk/embedded/stage/lib/avr/atmega328p/gcc/libgui.a(control_brushpanel.cpp.o)
                0x00800247                _ZTV17BrushPanelControl
 .rodata.str1.1
                0x00800253        0x7 c:/Projects/Mark3_full_repo/trunk/embedded/stage/lib/avr/atmega328p/gcc/libgui.a(control_button.cpp.o)
 .rodata._ZTV13ButtonControl
                0x0080025a        0xc c:/Projects/Mark3_full_repo/trunk/embedded/stage/lib/avr/atmega328p/gcc/libgui.a(control_button.cpp.o)
                0x0080025a                _ZTV13ButtonControl
 .rodata._ZTV15CheckBoxControl
                0x00800266        0xc c:/Projects/Mark3_full_repo/trunk/embedded/stage/lib/avr/atmega328p/gcc/libgui.a(control_checkbox.cpp.o)
                0x00800266                _ZTV15CheckBoxControl
 .rodata._ZTV15GroupBoxControl
                0x00800272        0xc c:/Projects/Mark3_full_repo/trunk/embedded/stage/lib/avr/atmega328p/gcc/libgui.a(control_groupbox.cpp.o)
                0x00800272                _ZTV15GroupBoxControl
 .rodata.str1.1
                0x00000000        0x1 c:/Projects/Mark3_full_repo/trunk/embedded/stage/lib/avr/atmega328p/gcc/libgui.a(control_label.cpp.o)
 .rodata._ZTV12LabelControl
                0x0080027e        0xc c:/Projects/Mark3_full_repo/trunk/embedded/stage/lib/avr/atmega328p/gcc/libgui.a(control_label.cpp.o)
                0x0080027e                _ZTV12LabelControl
 .rodata._ZTV15ProgressControl
                0x0080028a        0xc c:/Projects/Mark3_full_repo/trunk/embedded/stage/lib/avr/atmega328p/gcc/libgui.a(control_progress.cpp.o)
                0x0080028a                _ZTV15ProgressControl
 .rodata._ZTV15SevenSegControl
                0x00800296        0xc c:/Projects/Mark3_full_repo/trunk/embedded/stage/lib/avr/atmega328p/gcc/libgui.a(control_sevenseg.cpp.o)
                0x00800296                _ZTV15SevenSegControl
 *(.gnu.linkonce.d*)
                0x008002a2                . = ALIGN (0x2)
                0x008002a2                _edata = .
                0x008002a2                PROVIDE (__data_end, .)

.bss            0x008002a2      0x51f
                0x008002a2                PROVIDE (__bss_start, .)
 *(.bss)
 .bss           0x008002a2      0x327 ./obj/avr/atmega328p/gcc/main.cpp.o
                0x008002a2                awAppStack
                0x008003e2                clAppThread
 .bss           0x008005c9       0x46 c:/Projects/Mark3_full_repo/trunk/embedded/stage/lib/avr/atmega328p/gcc/libmark3.a(message.cpp.o)
                0x008005c9                _ZN17GlobalMessagePool8m_clListE
                0x008005cf                _ZN17GlobalMessagePool16m_aclMessagePoolE
 .bss           0x0080060f        0x1 c:/Projects/Mark3_full_repo/trunk/embedded/stage/lib/avr/atmega328p/gcc/libmark3.a(thread.cpp.o)
 .bss           0x00800610       0x12 c:/Projects/Mark3_full_repo/trunk/embedded/stage/lib/avr/atmega328p/gcc/libmark3.a(kernel.cpp.o)
                0x00800610                _ZN6Kernel8m_clIdleE
                0x0080061c                _ZN6Kernel8m_pfIdleE
                0x0080061e                _ZN6Kernel9m_pfPanicE
                0x00800620                _ZN6Kernel10m_bIsPanicE
                0x00800621                _ZN6Kernel12m_bIsStartedE
 .bss           0x00800622        0xb c:/Projects/Mark3_full_repo/trunk/embedded/stage/lib/avr/atmega328p/gcc/libmark3.a(timerlist.cpp.o)
                0x00800622                _ZN14TimerScheduler13m_clTimerListE
 .bss           0x0080062d        0xc c:/Projects/Mark3_full_repo/trunk/embedded/stage/lib/avr/atmega328p/gcc/libmark3.a(kernelaware.cpp.o)
                0x0080062d                g_stKAData
                0x00800637                g_u8KACommand
                0x00800638                g_bIsKernelAware
 .bss           0x00800639        0x4 c:/Projects/Mark3_full_repo/trunk/embedded/stage/lib/avr/atmega328p/gcc/libmark3.a(kernelprofile.cpp.o)
                0x00800639                _ZN8Profiler10m_u32EpochE
 .bss           0x0080063d        0xe c:/Projects/Mark3_full_repo/trunk/embedded/stage/lib/avr/atmega328p/gcc/libmark3.a(driver.cpp.o)
                0x0080063d                _ZN10DriverList14m_clDriverListE
 .bss           0x0080064b       0x1a c:/Projects/Mark3_full_repo/trunk/embedded/stage/lib/avr/atmega328p/gcc/libmark3.a(quantum.cpp.o)
                0x0080064b                _ZN7Quantum10m_bInTimerE
                0x0080064c                _ZN7Quantum9m_bActiveE
                0x0080064d                _ZN7Quantum16m_clQuantumTimerE
 .bss           0x00800665       0x58 c:/Projects/Mark3_full_repo/trunk/embedded/stage/lib/avr/atmega328p/gcc/libmark3.a(scheduler.cpp.o)
                0x00800665                _ZN9Scheduler11m_u8PriFlagE
                0x00800666                _ZN9Scheduler15m_aclPrioritiesE
                0x008006ae                _ZN9Scheduler12m_clStopListE
                0x008006b7                _ZN9Scheduler17m_bQueuedScheduleE
                0x008006b8                _ZN9Scheduler10m_bEnabledE
                0x008006b9                g_pclCurrent
                0x008006bb                g_pclNext
 .bss           0x008006bd       0xff c:/Projects/Mark3_full_repo/trunk/embedded/stage/lib/avr/atmega328p/gcc/libheap.a(system_heap.cpp.o)
                0x008006bd                _ZN10SystemHeap7m_bInitE
                0x008006be                _ZN10SystemHeap14m_clSystemHeapE
                0x008006c0                _ZN10SystemHeap21m_pclSystemHeapConfigE
                0x008006f0                _ZN10SystemHeap12m_pu8RawHeapE
 .bss           0x008007bc        0x3 c:/Projects/Mark3_full_repo/trunk/embedded/stage/lib/avr/atmega328p/gcc/libdrvGraphicsFlavr.a(graphics_flavr.cpp.o)
                0x008007bc                g_pclPoint
                0x008007be                g_u8GfxCommand
 .bss           0x008007bf        0x2 c:/Projects/Mark3_full_repo/trunk/embedded/stage/lib/avr/atmega328p/gcc/libdrvFlavrJoy.a(drvFlavrJoy.cpp.o)
                0x008007bf                g_u8FlavrJoyUp
                0x008007c0                g_u8FlavrJoy
 *(.bss*)
 *(COMMON)
                0x008007c1                PROVIDE (__bss_end, .)
                0x000061f8                __data_load_start = LOADADDR (.data)
                0x0000639a                __data_load_end = (__data_load_start + SIZEOF (.data))

.noinit         0x008007c1        0x0
                0x008007c1                PROVIDE (__noinit_start, .)
 *(.noinit*)
                0x008007c1                PROVIDE (__noinit_end, .)
                0x008007c1                _end = .
                0x008007c1                PROVIDE (__heap_start, .)

.eeprom         0x00810000        0x0
 *(.eeprom*)
                0x00810000                __eeprom_end = .

.fuse
 *(.fuse)
 *(.lfuse)
 *(.hfuse)
 *(.efuse)

.lock
 *(.lock*)

.signature
 *(.signature*)

.user_signatures
 *(.user_signatures*)

.stab
 *(.stab)

.stabstr
 *(.stabstr)

.stab.excl
 *(.stab.excl)

.stab.exclstr
 *(.stab.exclstr)

.stab.index
 *(.stab.index)

.stab.indexstr
 *(.stab.indexstr)

.comment        0x00000000       0x30
 *(.comment)
 .comment       0x00000000       0x30 ./obj/avr/atmega328p/gcc/main.cpp.o
                                 0x31 (size before relaxing)
 .comment       0x00000000       0x31 c:/Projects/Mark3_full_repo/trunk/embedded/stage/lib/avr/atmega328p/gcc/libmark3.a(ll.cpp.o)
 .comment       0x00000000       0x31 c:/Projects/Mark3_full_repo/trunk/embedded/stage/lib/avr/atmega328p/gcc/libmark3.a(message.cpp.o)
 .comment       0x00000000       0x31 c:/Projects/Mark3_full_repo/trunk/embedded/stage/lib/avr/atmega328p/gcc/libmark3.a(ksemaphore.cpp.o)
 .comment       0x00000000       0x31 c:/Projects/Mark3_full_repo/trunk/embedded/stage/lib/avr/atmega328p/gcc/libmark3.a(thread.cpp.o)
 .comment       0x00000000       0x31 c:/Projects/Mark3_full_repo/trunk/embedded/stage/lib/avr/atmega328p/gcc/libmark3.a(threadlist.cpp.o)
 .comment       0x00000000       0x31 c:/Projects/Mark3_full_repo/trunk/embedded/stage/lib/avr/atmega328p/gcc/libmark3.a(kernel.cpp.o)
 .comment       0x00000000       0x31 c:/Projects/Mark3_full_repo/trunk/embedded/stage/lib/avr/atmega328p/gcc/libmark3.a(timer.cpp.o)
 .comment       0x00000000       0x31 c:/Projects/Mark3_full_repo/trunk/embedded/stage/lib/avr/atmega328p/gcc/libmark3.a(timerlist.cpp.o)
 .comment       0x00000000       0x31 c:/Projects/Mark3_full_repo/trunk/embedded/stage/lib/avr/atmega328p/gcc/libmark3.a(kernelaware.cpp.o)
 .comment       0x00000000       0x31 c:/Projects/Mark3_full_repo/trunk/embedded/stage/lib/avr/atmega328p/gcc/libmark3.a(threadport.cpp.o)
 .comment       0x00000000       0x31 c:/Projects/Mark3_full_repo/trunk/embedded/stage/lib/avr/atmega328p/gcc/libmark3.a(kernelswi.cpp.o)
 .comment       0x00000000       0x31 c:/Projects/Mark3_full_repo/trunk/embedded/stage/lib/avr/atmega328p/gcc/libmark3.a(kerneltimer.cpp.o)
 .comment       0x00000000       0x31 c:/Projects/Mark3_full_repo/trunk/embedded/stage/lib/avr/atmega328p/gcc/libmark3.a(kernelprofile.cpp.o)
 .comment       0x00000000       0x31 c:/Projects/Mark3_full_repo/trunk/embedded/stage/lib/avr/atmega328p/gcc/libmark3.a(blocking.cpp.o)
 .comment       0x00000000       0x31 c:/Projects/Mark3_full_repo/trunk/embedded/stage/lib/avr/atmega328p/gcc/libmark3.a(driver.cpp.o)
 .comment       0x00000000       0x31 c:/Projects/Mark3_full_repo/trunk/embedded/stage/lib/avr/atmega328p/gcc/libmark3.a(quantum.cpp.o)
 .comment       0x00000000       0x31 c:/Projects/Mark3_full_repo/trunk/embedded/stage/lib/avr/atmega328p/gcc/libmark3.a(scheduler.cpp.o)
 .comment       0x00000000       0x31 c:/Projects/Mark3_full_repo/trunk/embedded/stage/lib/avr/atmega328p/gcc/libheap.a(system_heap.cpp.o)
 .comment       0x00000000       0x31 c:/Projects/Mark3_full_repo/trunk/embedded/stage/lib/avr/atmega328p/gcc/libheap.a(fixed_heap.cpp.o)
 .comment       0x00000000       0x31 c:/Projects/Mark3_full_repo/trunk/embedded/stage/lib/avr/atmega328p/gcc/librandom.a(rand_lfsr.cpp.o)
 .comment       0x00000000       0x31 c:/Projects/Mark3_full_repo/trunk/embedded/stage/lib/avr/atmega328p/gcc/libgraphics.a(graphics.cpp.o)
 .comment       0x00000000       0x31 c:/Projects/Mark3_full_repo/trunk/embedded/stage/lib/avr/atmega328p/gcc/libarial_10.a(arial_10.cpp.o)
 .comment       0x00000000       0x31 c:/Projects/Mark3_full_repo/trunk/embedded/stage/lib/avr/atmega328p/gcc/libdrvGraphicsFlavr.a(graphics_flavr.cpp.o)
 .comment       0x00000000       0x31 c:/Projects/Mark3_full_repo/trunk/embedded/stage/lib/avr/atmega328p/gcc/libjoystick.a(joystick.cpp.o)
 .comment       0x00000000       0x31 c:/Projects/Mark3_full_repo/trunk/embedded/stage/lib/avr/atmega328p/gcc/libdrvFlavrJoy.a(drvFlavrJoy.cpp.o)
 .comment       0x00000000       0x31 c:/Projects/Mark3_full_repo/trunk/embedded/stage/lib/avr/atmega328p/gcc/libgui.a(gui.cpp.o)
 .comment       0x00000000       0x31 c:/Projects/Mark3_full_repo/trunk/embedded/stage/lib/avr/atmega328p/gcc/libgui.a(control_brushpanel.cpp.o)
 .comment       0x00000000       0x31 c:/Projects/Mark3_full_repo/trunk/embedded/stage/lib/avr/atmega328p/gcc/libgui.a(control_button.cpp.o)
 .comment       0x00000000       0x31 c:/Projects/Mark3_full_repo/trunk/embedded/stage/lib/avr/atmega328p/gcc/libgui.a(control_checkbox.cpp.o)
 .comment       0x00000000       0x31 c:/Projects/Mark3_full_repo/trunk/embedded/stage/lib/avr/atmega328p/gcc/libgui.a(control_groupbox.cpp.o)
 .comment       0x00000000       0x31 c:/Projects/Mark3_full_repo/trunk/embedded/stage/lib/avr/atmega328p/gcc/libgui.a(control_label.cpp.o)
 .comment       0x00000000       0x31 c:/Projects/Mark3_full_repo/trunk/embedded/stage/lib/avr/atmega328p/gcc/libgui.a(control_progress.cpp.o)
 .comment       0x00000000       0x31 c:/Projects/Mark3_full_repo/trunk/embedded/stage/lib/avr/atmega328p/gcc/libgui.a(control_sevenseg.cpp.o)

.note.gnu.build-id
 *(.note.gnu.build-id)

.debug
 *(.debug)

.line
 *(.line)

.debug_srcinfo
 *(.debug_srcinfo)

.debug_sfnames
 *(.debug_sfnames)

.debug_aranges
 *(.debug_aranges)

.debug_pubnames
 *(.debug_pubnames)

.debug_info
 *(.debug_info .gnu.linkonce.wi.*)

.debug_abbrev
 *(.debug_abbrev)

.debug_line
 *(.debug_line .debug_line.* .debug_line_end)

.debug_frame
 *(.debug_frame)

.debug_str
 *(.debug_str)

.debug_loc
 *(.debug_loc)

.debug_macinfo
 *(.debug_macinfo)

.debug_weaknames
 *(.debug_weaknames)

.debug_funcnames
 *(.debug_funcnames)

.debug_typenames
 *(.debug_typenames)

.debug_varnames
 *(.debug_varnames)

.debug_pubtypes
 *(.debug_pubtypes)

.debug_ranges
 *(.debug_ranges)

.debug_macro
 *(.debug_macro)
OUTPUT(./obj/avr/atmega328p/gcc/gui_test.elf elf32-avr)
LOAD linker stubs
