Archive member included because of file (symbol)

/home/moslevin/googlecode/mark3/trunk/embedded/stage/lib/avr/atmega328p/gcc/libmark3.a(driver.cpp.o)
                              ./obj/avr/atmega328p/gcc/mark3test.cpp.o (_ZN10DriverList14m_clDriverListE)
/home/moslevin/googlecode/mark3/trunk/embedded/stage/lib/avr/atmega328p/gcc/libmark3.a(ll.cpp.o)
                              ./obj/avr/atmega328p/gcc/mark3test.cpp.o (_ZN14DoubleLinkList3AddEP12LinkListNode)
/home/moslevin/googlecode/mark3/trunk/embedded/stage/lib/avr/atmega328p/gcc/libmark3.a(mutex.cpp.o)
                              ./obj/avr/atmega328p/gcc/mark3test.cpp.o (_ZN5Mutex4InitEv)
/home/moslevin/googlecode/mark3/trunk/embedded/stage/lib/avr/atmega328p/gcc/libmark3.a(profile.cpp.o)
                              ./obj/avr/atmega328p/gcc/mark3test.cpp.o (_ZN12ProfileTimer4InitEv)
/home/moslevin/googlecode/mark3/trunk/embedded/stage/lib/avr/atmega328p/gcc/libmark3.a(scheduler.cpp.o)
                              ./obj/avr/atmega328p/gcc/mark3test.cpp.o (_ZN9Scheduler8ScheduleEv)
/home/moslevin/googlecode/mark3/trunk/embedded/stage/lib/avr/atmega328p/gcc/libmark3.a(semaphore.cpp.o)
                              ./obj/avr/atmega328p/gcc/mark3test.cpp.o (_ZN9Semaphore4InitEtt)
/home/moslevin/googlecode/mark3/trunk/embedded/stage/lib/avr/atmega328p/gcc/libmark3.a(thread.cpp.o)
                              ./obj/avr/atmega328p/gcc/mark3test.cpp.o (_ZN6Thread4InitEPhthPFvPvES1_)
/home/moslevin/googlecode/mark3/trunk/embedded/stage/lib/avr/atmega328p/gcc/libmark3.a(threadlist.cpp.o)
                              /home/moslevin/googlecode/mark3/trunk/embedded/stage/lib/avr/atmega328p/gcc/libmark3.a(scheduler.cpp.o) (_ZN10ThreadList11SetPriorityEh)
/home/moslevin/googlecode/mark3/trunk/embedded/stage/lib/avr/atmega328p/gcc/libmark3.a(kernel.cpp.o)
                              ./obj/avr/atmega328p/gcc/mark3test.cpp.o (_ZN6Kernel4InitEv)
/home/moslevin/googlecode/mark3/trunk/embedded/stage/lib/avr/atmega328p/gcc/libmark3.a(timerlist.cpp.o)
                              /home/moslevin/googlecode/mark3/trunk/embedded/stage/lib/avr/atmega328p/gcc/libmark3.a(kernel.cpp.o) (_ZN9TimerList4InitEv)
/home/moslevin/googlecode/mark3/trunk/embedded/stage/lib/avr/atmega328p/gcc/libmark3.a(threadport.cpp.o)
                              /home/moslevin/googlecode/mark3/trunk/embedded/stage/lib/avr/atmega328p/gcc/libmark3.a(thread.cpp.o) (_ZN10ThreadPort9InitStackEP6Thread)
/home/moslevin/googlecode/mark3/trunk/embedded/stage/lib/avr/atmega328p/gcc/libmark3.a(kernelswi.cpp.o)
                              /home/moslevin/googlecode/mark3/trunk/embedded/stage/lib/avr/atmega328p/gcc/libmark3.a(threadport.cpp.o) (_ZN9KernelSWI6ConfigEv)
/home/moslevin/googlecode/mark3/trunk/embedded/stage/lib/avr/atmega328p/gcc/libmark3.a(kerneltimer.cpp.o)
                              /home/moslevin/googlecode/mark3/trunk/embedded/stage/lib/avr/atmega328p/gcc/libmark3.a(threadport.cpp.o) (_ZN11KernelTimer6ConfigEv)
/home/moslevin/googlecode/mark3/trunk/embedded/stage/lib/avr/atmega328p/gcc/libmark3.a(kprofile.cpp.o)
                              /home/moslevin/googlecode/mark3/trunk/embedded/stage/lib/avr/atmega328p/gcc/libmark3.a(kernel.cpp.o) (_ZN8Profiler4InitEv)
/home/moslevin/googlecode/mark3/trunk/embedded/stage/lib/avr/atmega328p/gcc/libmark3.a(blocking.cpp.o)
                              /home/moslevin/googlecode/mark3/trunk/embedded/stage/lib/avr/atmega328p/gcc/libmark3.a(mutex.cpp.o) (_ZN14BlockingObject5BlockEP6Thread)
/home/moslevin/googlecode/mark3/trunk/embedded/stage/lib/avr/atmega328p/gcc/libmark3.a(message.cpp.o)
                              /home/moslevin/googlecode/mark3/trunk/embedded/stage/lib/avr/atmega328p/gcc/libmark3.a(kernel.cpp.o) (_ZN17GlobalMessagePool4InitEv)
/home/moslevin/googlecode/mark3/trunk/embedded/stage/lib/avr/atmega328p/gcc/libmark3.a(quantum.cpp.o)
                              /home/moslevin/googlecode/mark3/trunk/embedded/stage/lib/avr/atmega328p/gcc/libmark3.a(thread.cpp.o) (_ZN7Quantum9AddThreadEP6Thread)
/home/moslevin/googlecode/mark3/trunk/embedded/stage/lib/avr/atmega328p/gcc/libdrvUART.a(drvUART.cpp.o)
                              ./obj/avr/atmega328p/gcc/mark3test.cpp.o (_ZN10ATMegaUART4InitEv)
/opt/avr8-gnu-toolchain-linux_x86_64/bin/../lib/gcc/avr/4.6.2/avr5/libgcc.a(_mulsi3.o)
                              ./obj/avr/atmega328p/gcc/mark3test.cpp.o (__mulsi3)
/opt/avr8-gnu-toolchain-linux_x86_64/bin/../lib/gcc/avr/4.6.2/avr5/libgcc.a(_udivmodsi4.o)
                              ./obj/avr/atmega328p/gcc/mark3test.cpp.o (__udivmodsi4)
/opt/avr8-gnu-toolchain-linux_x86_64/bin/../lib/gcc/avr/4.6.2/avr5/libgcc.a(_exit.o)
                              /opt/avr8-gnu-toolchain-linux_x86_64/bin/../lib/gcc/avr/4.6.2/../../../../avr/lib/avr5/crtm328p.o (exit)
/opt/avr8-gnu-toolchain-linux_x86_64/bin/../lib/gcc/avr/4.6.2/avr5/libgcc.a(_copy_data.o)
                              ./obj/avr/atmega328p/gcc/mark3test.cpp.o (__do_copy_data)
/opt/avr8-gnu-toolchain-linux_x86_64/bin/../lib/gcc/avr/4.6.2/avr5/libgcc.a(_clear_bss.o)
                              ./obj/avr/atmega328p/gcc/mark3test.cpp.o (__do_clear_bss)
/opt/avr8-gnu-toolchain-linux_x86_64/bin/../lib/gcc/avr/4.6.2/avr5/libgcc.a(_ctors.o)
                              ./obj/avr/atmega328p/gcc/mark3test.cpp.o (__do_global_ctors)
/opt/avr8-gnu-toolchain-linux_x86_64/bin/../lib/gcc/avr/4.6.2/avr5/libgcc.a(_tablejump.o)
                              /opt/avr8-gnu-toolchain-linux_x86_64/bin/../lib/gcc/avr/4.6.2/avr5/libgcc.a(_ctors.o) (__tablejump__)

Discarded input sections

 .bss           0x0000000000000000        0x0 /opt/avr8-gnu-toolchain-linux_x86_64/bin/../lib/gcc/avr/4.6.2/../../../../avr/lib/avr5/crtm328p.o
 .text          0x0000000000000000        0x0 ./obj/avr/atmega328p/gcc/mark3test.cpp.o
 .text          0x0000000000000000        0x0 /home/moslevin/googlecode/mark3/trunk/embedded/stage/lib/avr/atmega328p/gcc/libmark3.a(driver.cpp.o)
 .text          0x0000000000000000        0x0 /home/moslevin/googlecode/mark3/trunk/embedded/stage/lib/avr/atmega328p/gcc/libmark3.a(ll.cpp.o)
 .bss           0x0000000000000000        0x0 /home/moslevin/googlecode/mark3/trunk/embedded/stage/lib/avr/atmega328p/gcc/libmark3.a(ll.cpp.o)
 .text._ZN16CircularLinkList13PivotBackwardEv
                0x0000000000000000       0x28 /home/moslevin/googlecode/mark3/trunk/embedded/stage/lib/avr/atmega328p/gcc/libmark3.a(ll.cpp.o)
 .text          0x0000000000000000        0x0 /home/moslevin/googlecode/mark3/trunk/embedded/stage/lib/avr/atmega328p/gcc/libmark3.a(mutex.cpp.o)
 .bss           0x0000000000000000        0x0 /home/moslevin/googlecode/mark3/trunk/embedded/stage/lib/avr/atmega328p/gcc/libmark3.a(mutex.cpp.o)
 .text._ZN5Mutex6WakeMeEP6Thread
                0x0000000000000000        0x6 /home/moslevin/googlecode/mark3/trunk/embedded/stage/lib/avr/atmega328p/gcc/libmark3.a(mutex.cpp.o)
 .text          0x0000000000000000        0x0 /home/moslevin/googlecode/mark3/trunk/embedded/stage/lib/avr/atmega328p/gcc/libmark3.a(profile.cpp.o)
 .bss           0x0000000000000000        0x0 /home/moslevin/googlecode/mark3/trunk/embedded/stage/lib/avr/atmega328p/gcc/libmark3.a(profile.cpp.o)
 .text._ZN12ProfileTimer10GetCurrentEv
                0x0000000000000000       0x56 /home/moslevin/googlecode/mark3/trunk/embedded/stage/lib/avr/atmega328p/gcc/libmark3.a(profile.cpp.o)
 .text          0x0000000000000000        0x0 /home/moslevin/googlecode/mark3/trunk/embedded/stage/lib/avr/atmega328p/gcc/libmark3.a(scheduler.cpp.o)
 .text          0x0000000000000000        0x0 /home/moslevin/googlecode/mark3/trunk/embedded/stage/lib/avr/atmega328p/gcc/libmark3.a(semaphore.cpp.o)
 .bss           0x0000000000000000        0x0 /home/moslevin/googlecode/mark3/trunk/embedded/stage/lib/avr/atmega328p/gcc/libmark3.a(semaphore.cpp.o)
 .text._ZN9Semaphore6WakeMeEP6Thread
                0x0000000000000000        0x6 /home/moslevin/googlecode/mark3/trunk/embedded/stage/lib/avr/atmega328p/gcc/libmark3.a(semaphore.cpp.o)
 .text._ZN9Semaphore8GetCountEv
                0x0000000000000000       0x22 /home/moslevin/googlecode/mark3/trunk/embedded/stage/lib/avr/atmega328p/gcc/libmark3.a(semaphore.cpp.o)
 .text          0x0000000000000000        0x0 /home/moslevin/googlecode/mark3/trunk/embedded/stage/lib/avr/atmega328p/gcc/libmark3.a(thread.cpp.o)
 .text._ZN6Thread13GetStackSlackEv
                0x0000000000000000       0x46 /home/moslevin/googlecode/mark3/trunk/embedded/stage/lib/avr/atmega328p/gcc/libmark3.a(thread.cpp.o)
 .text._ZN6Thread15SetPriorityBaseEh
                0x0000000000000000       0x4c /home/moslevin/googlecode/mark3/trunk/embedded/stage/lib/avr/atmega328p/gcc/libmark3.a(thread.cpp.o)
 .text          0x0000000000000000        0x0 /home/moslevin/googlecode/mark3/trunk/embedded/stage/lib/avr/atmega328p/gcc/libmark3.a(threadlist.cpp.o)
 .bss           0x0000000000000000        0x0 /home/moslevin/googlecode/mark3/trunk/embedded/stage/lib/avr/atmega328p/gcc/libmark3.a(threadlist.cpp.o)
 .text._ZN10ThreadList3AddEP12LinkListNodePhh
                0x0000000000000000       0x1e /home/moslevin/googlecode/mark3/trunk/embedded/stage/lib/avr/atmega328p/gcc/libmark3.a(threadlist.cpp.o)
 .text          0x0000000000000000        0x0 /home/moslevin/googlecode/mark3/trunk/embedded/stage/lib/avr/atmega328p/gcc/libmark3.a(kernel.cpp.o)
 .bss           0x0000000000000000        0x0 /home/moslevin/googlecode/mark3/trunk/embedded/stage/lib/avr/atmega328p/gcc/libmark3.a(kernel.cpp.o)
 .text          0x0000000000000000        0x0 /home/moslevin/googlecode/mark3/trunk/embedded/stage/lib/avr/atmega328p/gcc/libmark3.a(timerlist.cpp.o)
 .text._ZN5Timer16SetIntervalTicksEm
                0x0000000000000000        0xc /home/moslevin/googlecode/mark3/trunk/embedded/stage/lib/avr/atmega328p/gcc/libmark3.a(timerlist.cpp.o)
 .text._ZN5Timer18SetIntervalSecondsEm
                0x0000000000000000       0x2e /home/moslevin/googlecode/mark3/trunk/embedded/stage/lib/avr/atmega328p/gcc/libmark3.a(timerlist.cpp.o)
 .text._ZN5Timer19SetIntervalUSecondsEm
                0x0000000000000000       0x4c /home/moslevin/googlecode/mark3/trunk/embedded/stage/lib/avr/atmega328p/gcc/libmark3.a(timerlist.cpp.o)
 .text          0x0000000000000000        0x0 /home/moslevin/googlecode/mark3/trunk/embedded/stage/lib/avr/atmega328p/gcc/libmark3.a(threadport.cpp.o)
 .bss           0x0000000000000000        0x2 /home/moslevin/googlecode/mark3/trunk/embedded/stage/lib/avr/atmega328p/gcc/libmark3.a(threadport.cpp.o)
 .text          0x0000000000000000        0x0 /home/moslevin/googlecode/mark3/trunk/embedded/stage/lib/avr/atmega328p/gcc/libmark3.a(kernelswi.cpp.o)
 .bss           0x0000000000000000        0x0 /home/moslevin/googlecode/mark3/trunk/embedded/stage/lib/avr/atmega328p/gcc/libmark3.a(kernelswi.cpp.o)
 .text._ZN9KernelSWI4StopEv
                0x0000000000000000        0x4 /home/moslevin/googlecode/mark3/trunk/embedded/stage/lib/avr/atmega328p/gcc/libmark3.a(kernelswi.cpp.o)
 .text._ZN9KernelSWI2DIEv
                0x0000000000000000        0x8 /home/moslevin/googlecode/mark3/trunk/embedded/stage/lib/avr/atmega328p/gcc/libmark3.a(kernelswi.cpp.o)
 .text._ZN9KernelSWI2RIEh
                0x0000000000000000        0xc /home/moslevin/googlecode/mark3/trunk/embedded/stage/lib/avr/atmega328p/gcc/libmark3.a(kernelswi.cpp.o)
 .text._ZN9KernelSWI5ClearEv
                0x0000000000000000        0x4 /home/moslevin/googlecode/mark3/trunk/embedded/stage/lib/avr/atmega328p/gcc/libmark3.a(kernelswi.cpp.o)
 .text          0x0000000000000000        0x0 /home/moslevin/googlecode/mark3/trunk/embedded/stage/lib/avr/atmega328p/gcc/libmark3.a(kerneltimer.cpp.o)
 .bss           0x0000000000000000        0x0 /home/moslevin/googlecode/mark3/trunk/embedded/stage/lib/avr/atmega328p/gcc/libmark3.a(kerneltimer.cpp.o)
 .text._ZN11KernelTimer2DIEv
                0x0000000000000000       0x18 /home/moslevin/googlecode/mark3/trunk/embedded/stage/lib/avr/atmega328p/gcc/libmark3.a(kerneltimer.cpp.o)
 .text._ZN11KernelTimer2RIEh
                0x0000000000000000       0x18 /home/moslevin/googlecode/mark3/trunk/embedded/stage/lib/avr/atmega328p/gcc/libmark3.a(kerneltimer.cpp.o)
 .text._ZN11KernelTimer2EIEv
                0x0000000000000000        0x8 /home/moslevin/googlecode/mark3/trunk/embedded/stage/lib/avr/atmega328p/gcc/libmark3.a(kerneltimer.cpp.o)
 .text          0x0000000000000000        0x0 /home/moslevin/googlecode/mark3/trunk/embedded/stage/lib/avr/atmega328p/gcc/libmark3.a(kprofile.cpp.o)
 .text._ZN8Profiler4StopEv
                0x0000000000000000       0x14 /home/moslevin/googlecode/mark3/trunk/embedded/stage/lib/avr/atmega328p/gcc/libmark3.a(kprofile.cpp.o)
 .text          0x0000000000000000        0x0 /home/moslevin/googlecode/mark3/trunk/embedded/stage/lib/avr/atmega328p/gcc/libmark3.a(blocking.cpp.o)
 .bss           0x0000000000000000        0x0 /home/moslevin/googlecode/mark3/trunk/embedded/stage/lib/avr/atmega328p/gcc/libmark3.a(blocking.cpp.o)
 .text          0x0000000000000000        0x0 /home/moslevin/googlecode/mark3/trunk/embedded/stage/lib/avr/atmega328p/gcc/libmark3.a(message.cpp.o)
 .text._ZN17GlobalMessagePool4PushEP7Message
                0x0000000000000000       0x26 /home/moslevin/googlecode/mark3/trunk/embedded/stage/lib/avr/atmega328p/gcc/libmark3.a(message.cpp.o)
 .text._ZN17GlobalMessagePool3PopEv
                0x0000000000000000       0x38 /home/moslevin/googlecode/mark3/trunk/embedded/stage/lib/avr/atmega328p/gcc/libmark3.a(message.cpp.o)
 .text._ZN12MessageQueue4InitEv
                0x0000000000000000        0xe /home/moslevin/googlecode/mark3/trunk/embedded/stage/lib/avr/atmega328p/gcc/libmark3.a(message.cpp.o)
 .text._ZN12MessageQueue7ReceiveEv
                0x0000000000000000       0x44 /home/moslevin/googlecode/mark3/trunk/embedded/stage/lib/avr/atmega328p/gcc/libmark3.a(message.cpp.o)
 .text._ZN12MessageQueue7ReceiveEm
                0x0000000000000000       0x4e /home/moslevin/googlecode/mark3/trunk/embedded/stage/lib/avr/atmega328p/gcc/libmark3.a(message.cpp.o)
 .text._ZN12MessageQueue4SendEP7Message
                0x0000000000000000       0x34 /home/moslevin/googlecode/mark3/trunk/embedded/stage/lib/avr/atmega328p/gcc/libmark3.a(message.cpp.o)
 .text._ZN12MessageQueue8GetCountEv
                0x0000000000000000        0x6 /home/moslevin/googlecode/mark3/trunk/embedded/stage/lib/avr/atmega328p/gcc/libmark3.a(message.cpp.o)
 .text          0x0000000000000000        0x0 /home/moslevin/googlecode/mark3/trunk/embedded/stage/lib/avr/atmega328p/gcc/libmark3.a(quantum.cpp.o)
 .text          0x0000000000000000        0x0 /home/moslevin/googlecode/mark3/trunk/embedded/stage/lib/avr/atmega328p/gcc/libdrvUART.a(drvUART.cpp.o)
 .text          0x0000000000000000        0x0 /opt/avr8-gnu-toolchain-linux_x86_64/bin/../lib/gcc/avr/4.6.2/avr5/libgcc.a(_mulsi3.o)
 .bss           0x0000000000000000        0x0 /opt/avr8-gnu-toolchain-linux_x86_64/bin/../lib/gcc/avr/4.6.2/avr5/libgcc.a(_mulsi3.o)
 .text          0x0000000000000000        0x0 /opt/avr8-gnu-toolchain-linux_x86_64/bin/../lib/gcc/avr/4.6.2/avr5/libgcc.a(_udivmodsi4.o)
 .bss           0x0000000000000000        0x0 /opt/avr8-gnu-toolchain-linux_x86_64/bin/../lib/gcc/avr/4.6.2/avr5/libgcc.a(_udivmodsi4.o)
 .text          0x0000000000000000        0x0 /opt/avr8-gnu-toolchain-linux_x86_64/bin/../lib/gcc/avr/4.6.2/avr5/libgcc.a(_exit.o)
 .bss           0x0000000000000000        0x0 /opt/avr8-gnu-toolchain-linux_x86_64/bin/../lib/gcc/avr/4.6.2/avr5/libgcc.a(_exit.o)
 .text.libgcc   0x0000000000000000        0x0 /opt/avr8-gnu-toolchain-linux_x86_64/bin/../lib/gcc/avr/4.6.2/avr5/libgcc.a(_exit.o)
 .text          0x0000000000000000        0x0 /opt/avr8-gnu-toolchain-linux_x86_64/bin/../lib/gcc/avr/4.6.2/avr5/libgcc.a(_copy_data.o)
 .bss           0x0000000000000000        0x0 /opt/avr8-gnu-toolchain-linux_x86_64/bin/../lib/gcc/avr/4.6.2/avr5/libgcc.a(_copy_data.o)
 .text.libgcc   0x0000000000000000        0x0 /opt/avr8-gnu-toolchain-linux_x86_64/bin/../lib/gcc/avr/4.6.2/avr5/libgcc.a(_copy_data.o)
 .text          0x0000000000000000        0x0 /opt/avr8-gnu-toolchain-linux_x86_64/bin/../lib/gcc/avr/4.6.2/avr5/libgcc.a(_clear_bss.o)
 .bss           0x0000000000000000        0x0 /opt/avr8-gnu-toolchain-linux_x86_64/bin/../lib/gcc/avr/4.6.2/avr5/libgcc.a(_clear_bss.o)
 .text.libgcc   0x0000000000000000        0x0 /opt/avr8-gnu-toolchain-linux_x86_64/bin/../lib/gcc/avr/4.6.2/avr5/libgcc.a(_clear_bss.o)
 .text          0x0000000000000000        0x0 /opt/avr8-gnu-toolchain-linux_x86_64/bin/../lib/gcc/avr/4.6.2/avr5/libgcc.a(_ctors.o)
 .bss           0x0000000000000000        0x0 /opt/avr8-gnu-toolchain-linux_x86_64/bin/../lib/gcc/avr/4.6.2/avr5/libgcc.a(_ctors.o)
 .text.libgcc   0x0000000000000000        0x0 /opt/avr8-gnu-toolchain-linux_x86_64/bin/../lib/gcc/avr/4.6.2/avr5/libgcc.a(_ctors.o)
 .text          0x0000000000000000        0x0 /opt/avr8-gnu-toolchain-linux_x86_64/bin/../lib/gcc/avr/4.6.2/avr5/libgcc.a(_tablejump.o)
 .bss           0x0000000000000000        0x0 /opt/avr8-gnu-toolchain-linux_x86_64/bin/../lib/gcc/avr/4.6.2/avr5/libgcc.a(_tablejump.o)

Memory Configuration

Name             Origin             Length             Attributes
text             0x0000000000000000 0x0000000000020000 xr
data             0x0000000000800060 0x000000000000ffa0 rw !x
eeprom           0x0000000000810000 0x0000000000010000 rw !x
fuse             0x0000000000820000 0x0000000000000400 rw !x
lock             0x0000000000830000 0x0000000000000400 rw !x
signature        0x0000000000840000 0x0000000000000400 rw !x
*default*        0x0000000000000000 0xffffffffffffffff

Linker script and memory map

Address of section .data set to 0x800100
LOAD /opt/avr8-gnu-toolchain-linux_x86_64/bin/../lib/gcc/avr/4.6.2/../../../../avr/lib/avr5/crtm328p.o
START GROUP
LOAD /opt/avr8-gnu-toolchain-linux_x86_64/bin/../lib/gcc/avr/4.6.2/../../../../avr/lib/avr5/libm.a
END GROUP
LOAD ./obj/avr/atmega328p/gcc/mark3test.cpp.o
LOAD /home/moslevin/googlecode/mark3/trunk/embedded/stage/lib/avr/atmega328p/gcc/libmark3.a
LOAD /home/moslevin/googlecode/mark3/trunk/embedded/stage/lib/avr/atmega328p/gcc/libslip.a
LOAD /home/moslevin/googlecode/mark3/trunk/embedded/stage/lib/avr/atmega328p/gcc/libdrvUART.a
LOAD /opt/avr8-gnu-toolchain-linux_x86_64/bin/../lib/gcc/avr/4.6.2/avr5/libgcc.a
LOAD /opt/avr8-gnu-toolchain-linux_x86_64/bin/../lib/gcc/avr/4.6.2/../../../../avr/lib/avr5/libc.a
LOAD /opt/avr8-gnu-toolchain-linux_x86_64/bin/../lib/gcc/avr/4.6.2/avr5/libgcc.a

.hash
 *(.hash)

.dynsym
 *(.dynsym)

.dynstr
 *(.dynstr)

.gnu.version
 *(.gnu.version)

.gnu.version_d
 *(.gnu.version_d)

.gnu.version_r
 *(.gnu.version_r)

.rel.init
 *(.rel.init)

.rela.init
 *(.rela.init)

.rel.text
 *(.rel.text)
 *(.rel.text.*)
 *(.rel.gnu.linkonce.t*)

.rela.text
 *(.rela.text)
 *(.rela.text.*)
 *(.rela.gnu.linkonce.t*)

.rel.fini
 *(.rel.fini)

.rela.fini
 *(.rela.fini)

.rel.rodata
 *(.rel.rodata)
 *(.rel.rodata.*)
 *(.rel.gnu.linkonce.r*)

.rela.rodata
 *(.rela.rodata)
 *(.rela.rodata.*)
 *(.rela.gnu.linkonce.r*)

.rel.data
 *(.rel.data)
 *(.rel.data.*)
 *(.rel.gnu.linkonce.d*)

.rela.data
 *(.rela.data)
 *(.rela.data.*)
 *(.rela.gnu.linkonce.d*)

.rel.ctors
 *(.rel.ctors)

.rela.ctors
 *(.rela.ctors)

.rel.dtors
 *(.rel.dtors)

.rela.dtors
 *(.rela.dtors)

.rel.got
 *(.rel.got)

.rela.got
 *(.rela.got)

.rel.bss
 *(.rel.bss)

.rela.bss
 *(.rela.bss)

.rel.plt
 *(.rel.plt)

.rela.plt
 *(.rela.plt)

.text           0x0000000000000000     0x2404
 *(.vectors)
 .vectors       0x0000000000000000       0x68 /opt/avr8-gnu-toolchain-linux_x86_64/bin/../lib/gcc/avr/4.6.2/../../../../avr/lib/avr5/crtm328p.o
                0x0000000000000000                __vectors
                0x0000000000000000                __vector_default
 *(.vectors)
 *(.progmem.gcc*)
 *(.progmem*)
                0x0000000000000068                . = ALIGN (0x2)
                0x0000000000000068                __trampolines_start = .
 *(.trampolines)
 .trampolines   0x0000000000000068        0x0 linker stubs
 *(.trampolines*)
                0x0000000000000068                __trampolines_end = .
 *(.jumptables)
 *(.jumptables*)
 *(.lowtext)
 *(.lowtext*)
                0x0000000000000068                __ctors_start = .
 *(.ctors)
 .ctors         0x0000000000000068        0x2 ./obj/avr/atmega328p/gcc/mark3test.cpp.o
 .ctors         0x000000000000006a        0x2 /home/moslevin/googlecode/mark3/trunk/embedded/stage/lib/avr/atmega328p/gcc/libmark3.a(driver.cpp.o)
 .ctors         0x000000000000006c        0x2 /home/moslevin/googlecode/mark3/trunk/embedded/stage/lib/avr/atmega328p/gcc/libmark3.a(scheduler.cpp.o)
 .ctors         0x000000000000006e        0x2 /home/moslevin/googlecode/mark3/trunk/embedded/stage/lib/avr/atmega328p/gcc/libmark3.a(timerlist.cpp.o)
 .ctors         0x0000000000000070        0x2 /home/moslevin/googlecode/mark3/trunk/embedded/stage/lib/avr/atmega328p/gcc/libmark3.a(message.cpp.o)
 .ctors         0x0000000000000072        0x2 /home/moslevin/googlecode/mark3/trunk/embedded/stage/lib/avr/atmega328p/gcc/libmark3.a(quantum.cpp.o)
                0x0000000000000074                __ctors_end = .
                0x0000000000000074                __dtors_start = .
 *(.dtors)
                0x0000000000000074                __dtors_end = .
 SORT(*)(.ctors)
 SORT(*)(.dtors)
 *(.init0)
 .init0         0x0000000000000074        0x0 /opt/avr8-gnu-toolchain-linux_x86_64/bin/../lib/gcc/avr/4.6.2/../../../../avr/lib/avr5/crtm328p.o
                0x0000000000000074                __init
 *(.init0)
 *(.init1)
 *(.init1)
 *(.init2)
 .init2         0x0000000000000074        0xc /opt/avr8-gnu-toolchain-linux_x86_64/bin/../lib/gcc/avr/4.6.2/../../../../avr/lib/avr5/crtm328p.o
 *(.init2)
 *(.init3)
 *(.init3)
 *(.init4)
 .init4         0x0000000000000080       0x16 /opt/avr8-gnu-toolchain-linux_x86_64/bin/../lib/gcc/avr/4.6.2/avr5/libgcc.a(_copy_data.o)
                0x0000000000000080                __do_copy_data
 .init4         0x0000000000000096       0x10 /opt/avr8-gnu-toolchain-linux_x86_64/bin/../lib/gcc/avr/4.6.2/avr5/libgcc.a(_clear_bss.o)
                0x0000000000000096                __do_clear_bss
 *(.init4)
 *(.init5)
 *(.init5)
 *(.init6)
 .init6         0x00000000000000a6       0x16 /opt/avr8-gnu-toolchain-linux_x86_64/bin/../lib/gcc/avr/4.6.2/avr5/libgcc.a(_ctors.o)
                0x00000000000000a6                __do_global_ctors
 *(.init6)
 *(.init7)
 *(.init7)
 *(.init8)
 *(.init8)
 *(.init9)
 .init9         0x00000000000000bc        0x8 /opt/avr8-gnu-toolchain-linux_x86_64/bin/../lib/gcc/avr/4.6.2/../../../../avr/lib/avr5/crtm328p.o
 *(.init9)
 *(.text)
 .text          0x00000000000000c4        0x4 /opt/avr8-gnu-toolchain-linux_x86_64/bin/../lib/gcc/avr/4.6.2/../../../../avr/lib/avr5/crtm328p.o
                0x00000000000000c4                __vector_22
                0x00000000000000c4                __vector_24
                0x00000000000000c4                __vector_12
                0x00000000000000c4                __bad_interrupt
                0x00000000000000c4                __vector_6
                0x00000000000000c4                __vector_3
                0x00000000000000c4                __vector_23
                0x00000000000000c4                __vector_25
                0x00000000000000c4                __vector_13
                0x00000000000000c4                __vector_17
                0x00000000000000c4                __vector_19
                0x00000000000000c4                __vector_7
                0x00000000000000c4                __vector_5
                0x00000000000000c4                __vector_4
                0x00000000000000c4                __vector_9
                0x00000000000000c4                __vector_2
                0x00000000000000c4                __vector_21
                0x00000000000000c4                __vector_15
                0x00000000000000c4                __vector_8
                0x00000000000000c4                __vector_14
                0x00000000000000c4                __vector_10
                0x00000000000000c8                . = ALIGN (0x2)
 *(.text.*)
 .text._ZL8IdleMainPv
                0x00000000000000c8       0x1c ./obj/avr/atmega328p/gcc/mark3test.cpp.o
 .text._ZL9PrintWaitP6DrivertPc
                0x00000000000000e4       0x66 ./obj/avr/atmega328p/gcc/mark3test.cpp.o
 .text._ZL17Semaphore_FlybackP9Semaphore
                0x000000000000014a       0x36 ./obj/avr/atmega328p/gcc/mark3test.cpp.o
 .text._ZL22Thread_ProfilingThreadv
                0x0000000000000180       0x1e ./obj/avr/atmega328p/gcc/mark3test.cpp.o
 .text.__cxa_pure_virtual
                0x000000000000019e        0x2 ./obj/avr/atmega328p/gcc/mark3test.cpp.o
                0x000000000000019e                __cxa_pure_virtual
 .text.startup.main
                0x00000000000001a0       0x98 ./obj/avr/atmega328p/gcc/mark3test.cpp.o
                0x00000000000001a0                main
 .text._Z12KUtil_StrlenPKc
                0x0000000000000238       0x16 ./obj/avr/atmega328p/gcc/mark3test.cpp.o
                0x0000000000000238                _Z12KUtil_StrlenPKc
 .text._Z11KUtil_UltoamPc
                0x000000000000024e       0xdc ./obj/avr/atmega328p/gcc/mark3test.cpp.o
                0x000000000000024e                _Z11KUtil_UltoamPc
 .text._Z19Scheduler_Profilingv
                0x000000000000032a       0x26 ./obj/avr/atmega328p/gcc/mark3test.cpp.o
                0x000000000000032a                _Z19Scheduler_Profilingv
 .text._Z13Profile_PrintP12ProfileTimerPc
                0x0000000000000350       0xe6 ./obj/avr/atmega328p/gcc/mark3test.cpp.o
                0x0000000000000350                _Z13Profile_PrintP12ProfileTimerPc
 .text._Z20Profile_PrintResultsv
                0x0000000000000436       0x92 ./obj/avr/atmega328p/gcc/mark3test.cpp.o
                0x0000000000000436                _Z20Profile_PrintResultsv
 .text._ZL7AppMainPv
                0x00000000000004c8      0x3dc ./obj/avr/atmega328p/gcc/mark3test.cpp.o
 .text.startup._GLOBAL__sub_I___cxa_pure_virtual
                0x00000000000008a4       0x4e ./obj/avr/atmega328p/gcc/mark3test.cpp.o
 .text._ZN7DevNull4InitEv
                0x00000000000008f2        0xc /home/moslevin/googlecode/mark3/trunk/embedded/stage/lib/avr/atmega328p/gcc/libmark3.a(driver.cpp.o)
                0x00000000000008f2                _ZN7DevNull4InitEv
 .text._ZN7DevNull4OpenEv
                0x00000000000008fe        0x4 /home/moslevin/googlecode/mark3/trunk/embedded/stage/lib/avr/atmega328p/gcc/libmark3.a(driver.cpp.o)
                0x00000000000008fe                _ZN7DevNull4OpenEv
 .text._ZN7DevNull5CloseEv
                0x0000000000000902        0x4 /home/moslevin/googlecode/mark3/trunk/embedded/stage/lib/avr/atmega328p/gcc/libmark3.a(driver.cpp.o)
                0x0000000000000902                _ZN7DevNull5CloseEv
 .text._ZN7DevNull4ReadEtPh
                0x0000000000000906        0x6 /home/moslevin/googlecode/mark3/trunk/embedded/stage/lib/avr/atmega328p/gcc/libmark3.a(driver.cpp.o)
                0x0000000000000906                _ZN7DevNull4ReadEtPh
 .text._ZN7DevNull5WriteEtPh
                0x000000000000090c        0x6 /home/moslevin/googlecode/mark3/trunk/embedded/stage/lib/avr/atmega328p/gcc/libmark3.a(driver.cpp.o)
                0x000000000000090c                _ZN7DevNull5WriteEtPh
 .text._ZN7DevNull7ControlEtPvtS0_t
                0x0000000000000912        0x6 /home/moslevin/googlecode/mark3/trunk/embedded/stage/lib/avr/atmega328p/gcc/libmark3.a(driver.cpp.o)
                0x0000000000000912                _ZN7DevNull7ControlEtPvtS0_t
 .text._ZN10DriverList4InitEv
                0x0000000000000918       0x1a /home/moslevin/googlecode/mark3/trunk/embedded/stage/lib/avr/atmega328p/gcc/libmark3.a(driver.cpp.o)
                0x0000000000000918                _ZN10DriverList4InitEv
 .text._ZN10DriverList10FindByPathEPKc
                0x0000000000000932       0x50 /home/moslevin/googlecode/mark3/trunk/embedded/stage/lib/avr/atmega328p/gcc/libmark3.a(driver.cpp.o)
                0x0000000000000932                _ZN10DriverList10FindByPathEPKc
 .text.startup._GLOBAL__sub_I__ZN10DriverList14m_clDriverListE
                0x0000000000000982       0x2a /home/moslevin/googlecode/mark3/trunk/embedded/stage/lib/avr/atmega328p/gcc/libmark3.a(driver.cpp.o)
 .text._ZN14DoubleLinkList6RemoveEP12LinkListNode
                0x00000000000009ac       0x68 /home/moslevin/googlecode/mark3/trunk/embedded/stage/lib/avr/atmega328p/gcc/libmark3.a(ll.cpp.o)
                0x00000000000009ac                _ZN14DoubleLinkList6RemoveEP12LinkListNode
 .text._ZN16CircularLinkList6RemoveEP12LinkListNode
                0x0000000000000a14       0x84 /home/moslevin/googlecode/mark3/trunk/embedded/stage/lib/avr/atmega328p/gcc/libmark3.a(ll.cpp.o)
                0x0000000000000a14                _ZN16CircularLinkList6RemoveEP12LinkListNode
 .text._ZN14DoubleLinkList3AddEP12LinkListNode
                0x0000000000000a98       0x48 /home/moslevin/googlecode/mark3/trunk/embedded/stage/lib/avr/atmega328p/gcc/libmark3.a(ll.cpp.o)
                0x0000000000000a98                _ZN14DoubleLinkList3AddEP12LinkListNode
 .text._ZN16CircularLinkList3AddEP12LinkListNode
                0x0000000000000ae0       0x52 /home/moslevin/googlecode/mark3/trunk/embedded/stage/lib/avr/atmega328p/gcc/libmark3.a(ll.cpp.o)
                0x0000000000000ae0                _ZN16CircularLinkList3AddEP12LinkListNode
 .text._ZN12LinkListNode9ClearNodeEv
                0x0000000000000b32        0xc /home/moslevin/googlecode/mark3/trunk/embedded/stage/lib/avr/atmega328p/gcc/libmark3.a(ll.cpp.o)
                0x0000000000000b32                _ZN12LinkListNode9ClearNodeEv
 .text._ZN16CircularLinkList12PivotForwardEv
                0x0000000000000b3e       0x22 /home/moslevin/googlecode/mark3/trunk/embedded/stage/lib/avr/atmega328p/gcc/libmark3.a(ll.cpp.o)
                0x0000000000000b3e                _ZN16CircularLinkList12PivotForwardEv
 .text._Z18TimedMutex_CalbackP6ThreadPv
                0x0000000000000b60       0x2e /home/moslevin/googlecode/mark3/trunk/embedded/stage/lib/avr/atmega328p/gcc/libmark3.a(mutex.cpp.o)
                0x0000000000000b60                _Z18TimedMutex_CalbackP6ThreadPv
 .text._ZN5Mutex8WakeNextEv
                0x0000000000000b8e       0x40 /home/moslevin/googlecode/mark3/trunk/embedded/stage/lib/avr/atmega328p/gcc/libmark3.a(mutex.cpp.o)
                0x0000000000000b8e                _ZN5Mutex8WakeNextEv
 .text._ZN5Mutex4InitEv
                0x0000000000000bce        0xe /home/moslevin/googlecode/mark3/trunk/embedded/stage/lib/avr/atmega328p/gcc/libmark3.a(mutex.cpp.o)
                0x0000000000000bce                _ZN5Mutex4InitEv
 .text._ZN5Mutex5ClaimEm
                0x0000000000000bdc      0x11c /home/moslevin/googlecode/mark3/trunk/embedded/stage/lib/avr/atmega328p/gcc/libmark3.a(mutex.cpp.o)
                0x0000000000000bdc                _ZN5Mutex5ClaimEm
 .text._ZN5Mutex5ClaimEv
                0x0000000000000cf8        0xc /home/moslevin/googlecode/mark3/trunk/embedded/stage/lib/avr/atmega328p/gcc/libmark3.a(mutex.cpp.o)
                0x0000000000000cf8                _ZN5Mutex5ClaimEv
 .text._ZN5Mutex7ReleaseEv
                0x0000000000000d04       0x5c /home/moslevin/googlecode/mark3/trunk/embedded/stage/lib/avr/atmega328p/gcc/libmark3.a(mutex.cpp.o)
                0x0000000000000d04                _ZN5Mutex7ReleaseEv
 .text._ZN12ProfileTimer4InitEv
                0x0000000000000d60       0x1a /home/moslevin/googlecode/mark3/trunk/embedded/stage/lib/avr/atmega328p/gcc/libmark3.a(profile.cpp.o)
                0x0000000000000d60                _ZN12ProfileTimer4InitEv
 .text._ZN12ProfileTimer5StartEv
                0x0000000000000d7a       0x5c /home/moslevin/googlecode/mark3/trunk/embedded/stage/lib/avr/atmega328p/gcc/libmark3.a(profile.cpp.o)
                0x0000000000000d7a                _ZN12ProfileTimer5StartEv
 .text._ZN12ProfileTimer10GetAverageEv
                0x0000000000000dd6       0x36 /home/moslevin/googlecode/mark3/trunk/embedded/stage/lib/avr/atmega328p/gcc/libmark3.a(profile.cpp.o)
                0x0000000000000dd6                _ZN12ProfileTimer10GetAverageEv
 .text._ZN12ProfileTimer19ComputeCurrentTicksEtm
                0x0000000000000e0c       0x9a /home/moslevin/googlecode/mark3/trunk/embedded/stage/lib/avr/atmega328p/gcc/libmark3.a(profile.cpp.o)
                0x0000000000000e0c                _ZN12ProfileTimer19ComputeCurrentTicksEtm
 .text._ZN12ProfileTimer4StopEv
                0x0000000000000ea6       0x7c /home/moslevin/googlecode/mark3/trunk/embedded/stage/lib/avr/atmega328p/gcc/libmark3.a(profile.cpp.o)
                0x0000000000000ea6                _ZN12ProfileTimer4StopEv
 .text._ZN9Scheduler4InitEv
                0x0000000000000f22       0x52 /home/moslevin/googlecode/mark3/trunk/embedded/stage/lib/avr/atmega328p/gcc/libmark3.a(scheduler.cpp.o)
                0x0000000000000f22                _ZN9Scheduler4InitEv
 .text._ZN9Scheduler8ScheduleEv
                0x0000000000000f74       0x54 /home/moslevin/googlecode/mark3/trunk/embedded/stage/lib/avr/atmega328p/gcc/libmark3.a(scheduler.cpp.o)
                0x0000000000000f74                _ZN9Scheduler8ScheduleEv
 .text._ZN9Scheduler3AddEP6Thread
                0x0000000000000fc8       0x36 /home/moslevin/googlecode/mark3/trunk/embedded/stage/lib/avr/atmega328p/gcc/libmark3.a(scheduler.cpp.o)
                0x0000000000000fc8                _ZN9Scheduler3AddEP6Thread
 .text._ZN9Scheduler6RemoveEP6Thread
                0x0000000000000ffe       0x36 /home/moslevin/googlecode/mark3/trunk/embedded/stage/lib/avr/atmega328p/gcc/libmark3.a(scheduler.cpp.o)
                0x0000000000000ffe                _ZN9Scheduler6RemoveEP6Thread
 .text.startup._GLOBAL__sub_I_g_pstNext
                0x0000000000001034       0x4c /home/moslevin/googlecode/mark3/trunk/embedded/stage/lib/avr/atmega328p/gcc/libmark3.a(scheduler.cpp.o)
 .text._Z23TimedSemaphore_CallbackP6ThreadPv
                0x0000000000001080       0x2e /home/moslevin/googlecode/mark3/trunk/embedded/stage/lib/avr/atmega328p/gcc/libmark3.a(semaphore.cpp.o)
                0x0000000000001080                _Z23TimedSemaphore_CallbackP6ThreadPv
 .text._ZN9Semaphore8WakeNextEv
                0x00000000000010ae       0x3c /home/moslevin/googlecode/mark3/trunk/embedded/stage/lib/avr/atmega328p/gcc/libmark3.a(semaphore.cpp.o)
                0x00000000000010ae                _ZN9Semaphore8WakeNextEv
 .text._ZN9Semaphore4InitEtt
                0x00000000000010ea        0xe /home/moslevin/googlecode/mark3/trunk/embedded/stage/lib/avr/atmega328p/gcc/libmark3.a(semaphore.cpp.o)
                0x00000000000010ea                _ZN9Semaphore4InitEtt
 .text._ZN9Semaphore4PostEv
                0x00000000000010f8       0x4e /home/moslevin/googlecode/mark3/trunk/embedded/stage/lib/avr/atmega328p/gcc/libmark3.a(semaphore.cpp.o)
                0x00000000000010f8                _ZN9Semaphore4PostEv
 .text._ZN9Semaphore4PendEm
                0x0000000000001146       0xd8 /home/moslevin/googlecode/mark3/trunk/embedded/stage/lib/avr/atmega328p/gcc/libmark3.a(semaphore.cpp.o)
                0x0000000000001146                _ZN9Semaphore4PendEm
 .text._ZN9Semaphore4PendEv
                0x000000000000121e        0xc /home/moslevin/googlecode/mark3/trunk/embedded/stage/lib/avr/atmega328p/gcc/libmark3.a(semaphore.cpp.o)
                0x000000000000121e                _ZN9Semaphore4PendEv
 .text._ZL19ThreadSleepCallbackP6ThreadPv
                0x000000000000122a        0x8 /home/moslevin/googlecode/mark3/trunk/embedded/stage/lib/avr/atmega328p/gcc/libmark3.a(thread.cpp.o)
 .text._ZN6Thread4InitEPhthPFvPvES1_
                0x0000000000001232       0xae /home/moslevin/googlecode/mark3/trunk/embedded/stage/lib/avr/atmega328p/gcc/libmark3.a(thread.cpp.o)
                0x0000000000001232                _ZN6Thread4InitEPhthPFvPvES1_
 .text._ZN6Thread5SleepEm
                0x00000000000012e0       0xae /home/moslevin/googlecode/mark3/trunk/embedded/stage/lib/avr/atmega328p/gcc/libmark3.a(thread.cpp.o)
                0x00000000000012e0                _ZN6Thread5SleepEm
 .text._ZN6Thread15InheritPriorityEh
                0x000000000000138e       0x22 /home/moslevin/googlecode/mark3/trunk/embedded/stage/lib/avr/atmega328p/gcc/libmark3.a(thread.cpp.o)
                0x000000000000138e                _ZN6Thread15InheritPriorityEh
 .text._ZN6Thread16ContextSwitchSWIEv
                0x00000000000013b0        0xe /home/moslevin/googlecode/mark3/trunk/embedded/stage/lib/avr/atmega328p/gcc/libmark3.a(thread.cpp.o)
                0x00000000000013b0                _ZN6Thread16ContextSwitchSWIEv
 .text._ZN6Thread11SetPriorityEh
                0x00000000000013be       0x8e /home/moslevin/googlecode/mark3/trunk/embedded/stage/lib/avr/atmega328p/gcc/libmark3.a(thread.cpp.o)
                0x00000000000013be                _ZN6Thread11SetPriorityEh
 .text._ZN6Thread5YieldEv
                0x000000000000144c       0x4a /home/moslevin/googlecode/mark3/trunk/embedded/stage/lib/avr/atmega328p/gcc/libmark3.a(thread.cpp.o)
                0x000000000000144c                _ZN6Thread5YieldEv
 .text._ZN6Thread4ExitEv
                0x0000000000001496       0x46 /home/moslevin/googlecode/mark3/trunk/embedded/stage/lib/avr/atmega328p/gcc/libmark3.a(thread.cpp.o)
                0x0000000000001496                _ZN6Thread4ExitEv
 .text._ZN6Thread5StartEv
                0x00000000000014dc       0xa4 /home/moslevin/googlecode/mark3/trunk/embedded/stage/lib/avr/atmega328p/gcc/libmark3.a(thread.cpp.o)
                0x00000000000014dc                _ZN6Thread5StartEv
 .text._ZN10ThreadList3AddEP12LinkListNode
                0x0000000000001580       0x36 /home/moslevin/googlecode/mark3/trunk/embedded/stage/lib/avr/atmega328p/gcc/libmark3.a(threadlist.cpp.o)
                0x0000000000001580                _ZN10ThreadList3AddEP12LinkListNode
 .text._ZN10ThreadList6RemoveEP12LinkListNode
                0x00000000000015b6       0x38 /home/moslevin/googlecode/mark3/trunk/embedded/stage/lib/avr/atmega328p/gcc/libmark3.a(threadlist.cpp.o)
                0x00000000000015b6                _ZN10ThreadList6RemoveEP12LinkListNode
 .text._ZN10ThreadList11SetPriorityEh
                0x00000000000015ee        0x6 /home/moslevin/googlecode/mark3/trunk/embedded/stage/lib/avr/atmega328p/gcc/libmark3.a(threadlist.cpp.o)
                0x00000000000015ee                _ZN10ThreadList11SetPriorityEh
 .text._ZN10ThreadList14SetFlagPointerEPh
                0x00000000000015f4        0x8 /home/moslevin/googlecode/mark3/trunk/embedded/stage/lib/avr/atmega328p/gcc/libmark3.a(threadlist.cpp.o)
                0x00000000000015f4                _ZN10ThreadList14SetFlagPointerEPh
 .text._ZN10ThreadList13HighestWaiterEv
                0x00000000000015fc       0x30 /home/moslevin/googlecode/mark3/trunk/embedded/stage/lib/avr/atmega328p/gcc/libmark3.a(threadlist.cpp.o)
                0x00000000000015fc                _ZN10ThreadList13HighestWaiterEv
 .text._ZN6Kernel4InitEv
                0x000000000000162c       0x1a /home/moslevin/googlecode/mark3/trunk/embedded/stage/lib/avr/atmega328p/gcc/libmark3.a(kernel.cpp.o)
                0x000000000000162c                _ZN6Kernel4InitEv
 .text._ZN6Kernel5StartEv
                0x0000000000001646        0x6 /home/moslevin/googlecode/mark3/trunk/embedded/stage/lib/avr/atmega328p/gcc/libmark3.a(kernel.cpp.o)
                0x0000000000001646                _ZN6Kernel5StartEv
 .text._ZN9TimerList4InitEv
                0x000000000000164c        0xe /home/moslevin/googlecode/mark3/trunk/embedded/stage/lib/avr/atmega328p/gcc/libmark3.a(timerlist.cpp.o)
                0x000000000000164c                _ZN9TimerList4InitEv
 .text._ZN9TimerList3AddEP5Timer
                0x000000000000165a       0xb6 /home/moslevin/googlecode/mark3/trunk/embedded/stage/lib/avr/atmega328p/gcc/libmark3.a(timerlist.cpp.o)
                0x000000000000165a                _ZN9TimerList3AddEP5Timer
 .text._ZN9TimerList6RemoveEP5Timer
                0x0000000000001710       0x3a /home/moslevin/googlecode/mark3/trunk/embedded/stage/lib/avr/atmega328p/gcc/libmark3.a(timerlist.cpp.o)
                0x0000000000001710                _ZN9TimerList6RemoveEP5Timer
 .text._ZN9TimerList7ProcessEv
                0x000000000000174a      0x15a /home/moslevin/googlecode/mark3/trunk/embedded/stage/lib/avr/atmega328p/gcc/libmark3.a(timerlist.cpp.o)
                0x000000000000174a                _ZN9TimerList7ProcessEv
 .text._ZN5Timer4StopEv
                0x00000000000018a4        0xc /home/moslevin/googlecode/mark3/trunk/embedded/stage/lib/avr/atmega328p/gcc/libmark3.a(timerlist.cpp.o)
                0x00000000000018a4                _ZN5Timer4StopEv
 .text._ZN5Timer19SetIntervalMSecondsEm
                0x00000000000018b0       0x4c /home/moslevin/googlecode/mark3/trunk/embedded/stage/lib/avr/atmega328p/gcc/libmark3.a(timerlist.cpp.o)
                0x00000000000018b0                _ZN5Timer19SetIntervalMSecondsEm
 .text._ZN5Timer5StartEhmPFvP6ThreadPvES2_
                0x00000000000018fc       0x5a /home/moslevin/googlecode/mark3/trunk/embedded/stage/lib/avr/atmega328p/gcc/libmark3.a(timerlist.cpp.o)
                0x00000000000018fc                _ZN5Timer5StartEhmPFvP6ThreadPvES2_
 .text.startup._GLOBAL__sub_I__ZN14TimerScheduler13m_clTimerListE
                0x0000000000001956       0x1e /home/moslevin/googlecode/mark3/trunk/embedded/stage/lib/avr/atmega328p/gcc/libmark3.a(timerlist.cpp.o)
 .text._ZN10ThreadPort9InitStackEP6Thread
                0x0000000000001974       0x86 /home/moslevin/googlecode/mark3/trunk/embedded/stage/lib/avr/atmega328p/gcc/libmark3.a(threadport.cpp.o)
                0x0000000000001974                _ZN10ThreadPort9InitStackEP6Thread
 .text._ZN10ThreadPort12StartThreadsEv
                0x00000000000019fa       0x84 /home/moslevin/googlecode/mark3/trunk/embedded/stage/lib/avr/atmega328p/gcc/libmark3.a(threadport.cpp.o)
                0x00000000000019fa                _ZN10ThreadPort12StartThreadsEv
 .text.__vector_1
                0x0000000000001a7e       0xc2 /home/moslevin/googlecode/mark3/trunk/embedded/stage/lib/avr/atmega328p/gcc/libmark3.a(threadport.cpp.o)
                0x0000000000001a7e                __vector_1
 .text.__vector_11
                0x0000000000001b40       0x50 /home/moslevin/googlecode/mark3/trunk/embedded/stage/lib/avr/atmega328p/gcc/libmark3.a(threadport.cpp.o)
                0x0000000000001b40                __vector_11
 .text._ZN9KernelSWI6ConfigEv
                0x0000000000001b90       0x10 /home/moslevin/googlecode/mark3/trunk/embedded/stage/lib/avr/atmega328p/gcc/libmark3.a(kernelswi.cpp.o)
                0x0000000000001b90                _ZN9KernelSWI6ConfigEv
 .text._ZN9KernelSWI5StartEv
                0x0000000000001ba0        0x6 /home/moslevin/googlecode/mark3/trunk/embedded/stage/lib/avr/atmega328p/gcc/libmark3.a(kernelswi.cpp.o)
                0x0000000000001ba0                _ZN9KernelSWI5StartEv
 .text._ZN9KernelSWI7TriggerEv
                0x0000000000001ba6        0x6 /home/moslevin/googlecode/mark3/trunk/embedded/stage/lib/avr/atmega328p/gcc/libmark3.a(kernelswi.cpp.o)
                0x0000000000001ba6                _ZN9KernelSWI7TriggerEv
 .text._ZN11KernelTimer6ConfigEv
                0x0000000000001bac        0x8 /home/moslevin/googlecode/mark3/trunk/embedded/stage/lib/avr/atmega328p/gcc/libmark3.a(kerneltimer.cpp.o)
                0x0000000000001bac                _ZN11KernelTimer6ConfigEv
 .text._ZN11KernelTimer5StartEv
                0x0000000000001bb4       0x20 /home/moslevin/googlecode/mark3/trunk/embedded/stage/lib/avr/atmega328p/gcc/libmark3.a(kerneltimer.cpp.o)
                0x0000000000001bb4                _ZN11KernelTimer5StartEv
 .text._ZN11KernelTimer4StopEv
                0x0000000000001bd4       0x28 /home/moslevin/googlecode/mark3/trunk/embedded/stage/lib/avr/atmega328p/gcc/libmark3.a(kerneltimer.cpp.o)
                0x0000000000001bd4                _ZN11KernelTimer4StopEv
 .text._ZN11KernelTimer4ReadEv
                0x0000000000001bfc       0x44 /home/moslevin/googlecode/mark3/trunk/embedded/stage/lib/avr/atmega328p/gcc/libmark3.a(kerneltimer.cpp.o)
                0x0000000000001bfc                _ZN11KernelTimer4ReadEv
 .text._ZN11KernelTimer14SubtractExpiryEm
                0x0000000000001c40       0x20 /home/moslevin/googlecode/mark3/trunk/embedded/stage/lib/avr/atmega328p/gcc/libmark3.a(kerneltimer.cpp.o)
                0x0000000000001c40                _ZN11KernelTimer14SubtractExpiryEm
 .text._ZN11KernelTimer12TimeToExpiryEv
                0x0000000000001c60       0x30 /home/moslevin/googlecode/mark3/trunk/embedded/stage/lib/avr/atmega328p/gcc/libmark3.a(kerneltimer.cpp.o)
                0x0000000000001c60                _ZN11KernelTimer12TimeToExpiryEv
 .text._ZN11KernelTimer11GetOvertimeEv
                0x0000000000001c90        0xc /home/moslevin/googlecode/mark3/trunk/embedded/stage/lib/avr/atmega328p/gcc/libmark3.a(kerneltimer.cpp.o)
                0x0000000000001c90                _ZN11KernelTimer11GetOvertimeEv
 .text._ZN11KernelTimer9SetExpiryEm
                0x0000000000001c9c       0x28 /home/moslevin/googlecode/mark3/trunk/embedded/stage/lib/avr/atmega328p/gcc/libmark3.a(kerneltimer.cpp.o)
                0x0000000000001c9c                _ZN11KernelTimer9SetExpiryEm
 .text._ZN11KernelTimer11ClearExpiryEv
                0x0000000000001cc4        0xe /home/moslevin/googlecode/mark3/trunk/embedded/stage/lib/avr/atmega328p/gcc/libmark3.a(kerneltimer.cpp.o)
                0x0000000000001cc4                _ZN11KernelTimer11ClearExpiryEv
 .text._ZN8Profiler4InitEv
                0x0000000000001cd2       0x1c /home/moslevin/googlecode/mark3/trunk/embedded/stage/lib/avr/atmega328p/gcc/libmark3.a(kprofile.cpp.o)
                0x0000000000001cd2                _ZN8Profiler4InitEv
 .text._ZN8Profiler5StartEv
                0x0000000000001cee       0x16 /home/moslevin/googlecode/mark3/trunk/embedded/stage/lib/avr/atmega328p/gcc/libmark3.a(kprofile.cpp.o)
                0x0000000000001cee                _ZN8Profiler5StartEv
 .text._ZN8Profiler4ReadEv
                0x0000000000001d04       0x2c /home/moslevin/googlecode/mark3/trunk/embedded/stage/lib/avr/atmega328p/gcc/libmark3.a(kprofile.cpp.o)
                0x0000000000001d04                _ZN8Profiler4ReadEv
 .text._ZN8Profiler7ProcessEv
                0x0000000000001d30       0x42 /home/moslevin/googlecode/mark3/trunk/embedded/stage/lib/avr/atmega328p/gcc/libmark3.a(kprofile.cpp.o)
                0x0000000000001d30                _ZN8Profiler7ProcessEv
 .text.__vector_16
                0x0000000000001d72       0x48 /home/moslevin/googlecode/mark3/trunk/embedded/stage/lib/avr/atmega328p/gcc/libmark3.a(kprofile.cpp.o)
                0x0000000000001d72                __vector_16
 .text._ZN14BlockingObject5BlockEP6Thread
                0x0000000000001dba       0x28 /home/moslevin/googlecode/mark3/trunk/embedded/stage/lib/avr/atmega328p/gcc/libmark3.a(blocking.cpp.o)
                0x0000000000001dba                _ZN14BlockingObject5BlockEP6Thread
 .text._ZN14BlockingObject7UnBlockEP6Thread
                0x0000000000001de2       0x2c /home/moslevin/googlecode/mark3/trunk/embedded/stage/lib/avr/atmega328p/gcc/libmark3.a(blocking.cpp.o)
                0x0000000000001de2                _ZN14BlockingObject7UnBlockEP6Thread
 .text._ZN17GlobalMessagePool4InitEv
                0x0000000000001e0e       0x38 /home/moslevin/googlecode/mark3/trunk/embedded/stage/lib/avr/atmega328p/gcc/libmark3.a(message.cpp.o)
                0x0000000000001e0e                _ZN17GlobalMessagePool4InitEv
 .text.startup._GLOBAL__sub_I__ZN17GlobalMessagePool16m_aclMessagePoolE
                0x0000000000001e46       0x1e /home/moslevin/googlecode/mark3/trunk/embedded/stage/lib/avr/atmega328p/gcc/libmark3.a(message.cpp.o)
 .text._ZL15QuantumCallbackP6ThreadPv
                0x0000000000001e64       0x36 /home/moslevin/googlecode/mark3/trunk/embedded/stage/lib/avr/atmega328p/gcc/libmark3.a(quantum.cpp.o)
 .text._ZN7Quantum8SetTimerEP6Thread
                0x0000000000001e9a       0x3e /home/moslevin/googlecode/mark3/trunk/embedded/stage/lib/avr/atmega328p/gcc/libmark3.a(quantum.cpp.o)
                0x0000000000001e9a                _ZN7Quantum8SetTimerEP6Thread
 .text._ZN7Quantum9AddThreadEP6Thread
                0x0000000000001ed8       0x38 /home/moslevin/googlecode/mark3/trunk/embedded/stage/lib/avr/atmega328p/gcc/libmark3.a(quantum.cpp.o)
                0x0000000000001ed8                _ZN7Quantum9AddThreadEP6Thread
 .text._ZN7Quantum12RemoveThreadEv
                0x0000000000001f10       0x1a /home/moslevin/googlecode/mark3/trunk/embedded/stage/lib/avr/atmega328p/gcc/libmark3.a(quantum.cpp.o)
                0x0000000000001f10                _ZN7Quantum12RemoveThreadEv
 .text._ZN7Quantum11UpdateTimerEv
                0x0000000000001f2a       0x12 /home/moslevin/googlecode/mark3/trunk/embedded/stage/lib/avr/atmega328p/gcc/libmark3.a(quantum.cpp.o)
                0x0000000000001f2a                _ZN7Quantum11UpdateTimerEv
 .text.startup._GLOBAL__sub_I__ZN7Quantum16m_clQuantumTimerE
                0x0000000000001f3c       0x26 /home/moslevin/googlecode/mark3/trunk/embedded/stage/lib/avr/atmega328p/gcc/libmark3.a(quantum.cpp.o)
 .text._ZN10ATMegaUART4OpenEv
                0x0000000000001f62       0x1c /home/moslevin/googlecode/mark3/trunk/embedded/stage/lib/avr/atmega328p/gcc/libdrvUART.a(drvUART.cpp.o)
                0x0000000000001f62                _ZN10ATMegaUART4OpenEv
 .text._ZN10ATMegaUART5CloseEv
                0x0000000000001f7e       0x14 /home/moslevin/googlecode/mark3/trunk/embedded/stage/lib/avr/atmega328p/gcc/libdrvUART.a(drvUART.cpp.o)
                0x0000000000001f7e                _ZN10ATMegaUART5CloseEv
 .text._ZN10ATMegaUART4ReadEtPh
                0x0000000000001f92       0x8e /home/moslevin/googlecode/mark3/trunk/embedded/stage/lib/avr/atmega328p/gcc/libdrvUART.a(drvUART.cpp.o)
                0x0000000000001f92                _ZN10ATMegaUART4ReadEtPh
 .text._ZN10ATMegaUART7SetBaudEv
                0x0000000000002020       0x32 /home/moslevin/googlecode/mark3/trunk/embedded/stage/lib/avr/atmega328p/gcc/libdrvUART.a(drvUART.cpp.o)
                0x0000000000002020                _ZN10ATMegaUART7SetBaudEv
 .text._ZN10ATMegaUART7ControlEtPvtS0_t
                0x0000000000002052       0x86 /home/moslevin/googlecode/mark3/trunk/embedded/stage/lib/avr/atmega328p/gcc/libdrvUART.a(drvUART.cpp.o)
                0x0000000000002052                _ZN10ATMegaUART7ControlEtPvtS0_t
 .text._ZN10ATMegaUART4InitEv
                0x00000000000020d8       0x3c /home/moslevin/googlecode/mark3/trunk/embedded/stage/lib/avr/atmega328p/gcc/libdrvUART.a(drvUART.cpp.o)
                0x00000000000020d8                _ZN10ATMegaUART4InitEv
 .text._ZN10ATMegaUART7StartTxEv
                0x0000000000002114       0x3c /home/moslevin/googlecode/mark3/trunk/embedded/stage/lib/avr/atmega328p/gcc/libdrvUART.a(drvUART.cpp.o)
                0x0000000000002114                _ZN10ATMegaUART7StartTxEv
 .text._ZN10ATMegaUART5WriteEtPh
                0x0000000000002150       0xc0 /home/moslevin/googlecode/mark3/trunk/embedded/stage/lib/avr/atmega328p/gcc/libdrvUART.a(drvUART.cpp.o)
                0x0000000000002150                _ZN10ATMegaUART5WriteEtPh
 .text._ZN10ATMegaUART5RxISREv
                0x0000000000002210       0xb2 /home/moslevin/googlecode/mark3/trunk/embedded/stage/lib/avr/atmega328p/gcc/libdrvUART.a(drvUART.cpp.o)
                0x0000000000002210                _ZN10ATMegaUART5RxISREv
 .text.__vector_18
                0x00000000000022c2       0x50 /home/moslevin/googlecode/mark3/trunk/embedded/stage/lib/avr/atmega328p/gcc/libdrvUART.a(drvUART.cpp.o)
                0x00000000000022c2                __vector_18
 .text._ZN10ATMegaUART5TxISREv
                0x0000000000002312       0x10 /home/moslevin/googlecode/mark3/trunk/embedded/stage/lib/avr/atmega328p/gcc/libdrvUART.a(drvUART.cpp.o)
                0x0000000000002312                _ZN10ATMegaUART5TxISREv
 .text.__vector_20
                0x0000000000002322       0x50 /home/moslevin/googlecode/mark3/trunk/embedded/stage/lib/avr/atmega328p/gcc/libdrvUART.a(drvUART.cpp.o)
                0x0000000000002322                __vector_20
 .text.libgcc   0x0000000000002372       0x3e /opt/avr8-gnu-toolchain-linux_x86_64/bin/../lib/gcc/avr/4.6.2/avr5/libgcc.a(_mulsi3.o)
                0x0000000000002372                __mulsi3
 .text.libgcc   0x00000000000023b0       0x44 /opt/avr8-gnu-toolchain-linux_x86_64/bin/../lib/gcc/avr/4.6.2/avr5/libgcc.a(_udivmodsi4.o)
                0x00000000000023b0                __udivmodsi4
 .text.libgcc   0x00000000000023f4        0xc /opt/avr8-gnu-toolchain-linux_x86_64/bin/../lib/gcc/avr/4.6.2/avr5/libgcc.a(_tablejump.o)
                0x00000000000023f4                __tablejump2__
                0x00000000000023f8                __tablejump__
                0x0000000000002400                . = ALIGN (0x2)
 *(.fini9)
 .fini9         0x0000000000002400        0x0 /opt/avr8-gnu-toolchain-linux_x86_64/bin/../lib/gcc/avr/4.6.2/avr5/libgcc.a(_exit.o)
                0x0000000000002400                exit
                0x0000000000002400                _exit
 *(.fini9)
 *(.fini8)
 *(.fini8)
 *(.fini7)
 *(.fini7)
 *(.fini6)
 *(.fini6)
 *(.fini5)
 *(.fini5)
 *(.fini4)
 *(.fini4)
 *(.fini3)
 *(.fini3)
 *(.fini2)
 *(.fini2)
 *(.fini1)
 *(.fini1)
 *(.fini0)
 .fini0         0x0000000000002400        0x4 /opt/avr8-gnu-toolchain-linux_x86_64/bin/../lib/gcc/avr/4.6.2/avr5/libgcc.a(_exit.o)
 *(.fini0)
                0x0000000000002404                _etext = .

.data           0x0000000000800100       0x9e load address 0x0000000000002404
                0x0000000000800100                PROVIDE (__data_start, .)
 *(.data)
 .data          0x0000000000800100        0x0 /opt/avr8-gnu-toolchain-linux_x86_64/bin/../lib/gcc/avr/4.6.2/../../../../avr/lib/avr5/crtm328p.o
 .data          0x0000000000800100       0x3b ./obj/avr/atmega328p/gcc/mark3test.cpp.o
 .data          0x000000000080013b       0x1a /home/moslevin/googlecode/mark3/trunk/embedded/stage/lib/avr/atmega328p/gcc/libmark3.a(driver.cpp.o)
                0x0000000000800145                _ZTV7DevNull
 .data          0x0000000000800155       0x10 /home/moslevin/googlecode/mark3/trunk/embedded/stage/lib/avr/atmega328p/gcc/libmark3.a(ll.cpp.o)
                0x0000000000800155                _ZTV14DoubleLinkList
                0x000000000080015d                _ZTV16CircularLinkList
 .data          0x0000000000800165        0x0 /home/moslevin/googlecode/mark3/trunk/embedded/stage/lib/avr/atmega328p/gcc/libmark3.a(mutex.cpp.o)
 .data          0x0000000000800165        0x0 /home/moslevin/googlecode/mark3/trunk/embedded/stage/lib/avr/atmega328p/gcc/libmark3.a(profile.cpp.o)
 .data          0x0000000000800165       0x18 /home/moslevin/googlecode/mark3/trunk/embedded/stage/lib/avr/atmega328p/gcc/libmark3.a(scheduler.cpp.o)
                0x0000000000800175                _ZTV8LinkList
 .data          0x000000000080017d        0x0 /home/moslevin/googlecode/mark3/trunk/embedded/stage/lib/avr/atmega328p/gcc/libmark3.a(semaphore.cpp.o)
 .data          0x000000000080017d        0x0 /home/moslevin/googlecode/mark3/trunk/embedded/stage/lib/avr/atmega328p/gcc/libmark3.a(thread.cpp.o)
 .data          0x000000000080017d        0x8 /home/moslevin/googlecode/mark3/trunk/embedded/stage/lib/avr/atmega328p/gcc/libmark3.a(threadlist.cpp.o)
                0x000000000080017d                _ZTV10ThreadList
 .data          0x0000000000800185        0x0 /home/moslevin/googlecode/mark3/trunk/embedded/stage/lib/avr/atmega328p/gcc/libmark3.a(kernel.cpp.o)
 .data          0x0000000000800185        0x8 /home/moslevin/googlecode/mark3/trunk/embedded/stage/lib/avr/atmega328p/gcc/libmark3.a(timerlist.cpp.o)
                0x0000000000800185                _ZTV9TimerList
 .data          0x000000000080018d        0x0 /home/moslevin/googlecode/mark3/trunk/embedded/stage/lib/avr/atmega328p/gcc/libmark3.a(threadport.cpp.o)
 .data          0x000000000080018d        0x0 /home/moslevin/googlecode/mark3/trunk/embedded/stage/lib/avr/atmega328p/gcc/libmark3.a(kernelswi.cpp.o)
 .data          0x000000000080018d        0x0 /home/moslevin/googlecode/mark3/trunk/embedded/stage/lib/avr/atmega328p/gcc/libmark3.a(kerneltimer.cpp.o)
 .data          0x000000000080018d        0x0 /home/moslevin/googlecode/mark3/trunk/embedded/stage/lib/avr/atmega328p/gcc/libmark3.a(kprofile.cpp.o)
 .data          0x000000000080018d        0x0 /home/moslevin/googlecode/mark3/trunk/embedded/stage/lib/avr/atmega328p/gcc/libmark3.a(blocking.cpp.o)
 .data          0x000000000080018d        0x0 /home/moslevin/googlecode/mark3/trunk/embedded/stage/lib/avr/atmega328p/gcc/libmark3.a(message.cpp.o)
 .data          0x000000000080018d        0x0 /home/moslevin/googlecode/mark3/trunk/embedded/stage/lib/avr/atmega328p/gcc/libmark3.a(quantum.cpp.o)
 .data          0x000000000080018d       0x10 /home/moslevin/googlecode/mark3/trunk/embedded/stage/lib/avr/atmega328p/gcc/libdrvUART.a(drvUART.cpp.o)
                0x000000000080018d                _ZTV10ATMegaUART
 .data          0x000000000080019d        0x0 /opt/avr8-gnu-toolchain-linux_x86_64/bin/../lib/gcc/avr/4.6.2/avr5/libgcc.a(_mulsi3.o)
 .data          0x000000000080019d        0x0 /opt/avr8-gnu-toolchain-linux_x86_64/bin/../lib/gcc/avr/4.6.2/avr5/libgcc.a(_udivmodsi4.o)
 .data          0x000000000080019d        0x0 /opt/avr8-gnu-toolchain-linux_x86_64/bin/../lib/gcc/avr/4.6.2/avr5/libgcc.a(_exit.o)
 .data          0x000000000080019d        0x0 /opt/avr8-gnu-toolchain-linux_x86_64/bin/../lib/gcc/avr/4.6.2/avr5/libgcc.a(_copy_data.o)
 .data          0x000000000080019d        0x0 /opt/avr8-gnu-toolchain-linux_x86_64/bin/../lib/gcc/avr/4.6.2/avr5/libgcc.a(_clear_bss.o)
 .data          0x000000000080019d        0x0 /opt/avr8-gnu-toolchain-linux_x86_64/bin/../lib/gcc/avr/4.6.2/avr5/libgcc.a(_ctors.o)
 .data          0x000000000080019d        0x0 /opt/avr8-gnu-toolchain-linux_x86_64/bin/../lib/gcc/avr/4.6.2/avr5/libgcc.a(_tablejump.o)
 *(.data*)
 *(.rodata)
 *(.rodata*)
 *(.gnu.linkonce.d*)
                0x000000000080019e                . = ALIGN (0x2)
 *fill*         0x000000000080019d        0x1 00
                0x000000000080019e                _edata = .
                0x000000000080019e                PROVIDE (__data_end, .)

.bss            0x000000000080019e      0x6d3
                0x000000000080019e                PROVIDE (__bss_start, .)
 *(.bss)
 .bss           0x000000000080019e      0x600 ./obj/avr/atmega328p/gcc/mark3test.cpp.o
 .bss           0x000000000080079e        0xe /home/moslevin/googlecode/mark3/trunk/embedded/stage/lib/avr/atmega328p/gcc/libmark3.a(driver.cpp.o)
                0x000000000080079e                _ZN10DriverList14m_clDriverListE
 .bss           0x00000000008007ac       0x58 /home/moslevin/googlecode/mark3/trunk/embedded/stage/lib/avr/atmega328p/gcc/libmark3.a(scheduler.cpp.o)
                0x00000000008007ac                g_ucFlag
                0x00000000008007ad                _ZN9Scheduler11m_ucPriFlagE
                0x00000000008007ae                _ZN9Scheduler15m_aclPrioritiesE
                0x00000000008007f6                _ZN9Scheduler12m_clStopListE
                0x00000000008007ff                _ZN9Scheduler10m_bEnabledE
                0x0000000000800800                g_pstCurrent
                0x0000000000800802                g_pstNext
 .bss           0x0000000000800804        0x1 /home/moslevin/googlecode/mark3/trunk/embedded/stage/lib/avr/atmega328p/gcc/libmark3.a(thread.cpp.o)
 .bss           0x0000000000800805        0xb /home/moslevin/googlecode/mark3/trunk/embedded/stage/lib/avr/atmega328p/gcc/libmark3.a(timerlist.cpp.o)
                0x0000000000800805                _ZN14TimerScheduler13m_clTimerListE
 .bss           0x0000000000800810        0x4 /home/moslevin/googlecode/mark3/trunk/embedded/stage/lib/avr/atmega328p/gcc/libmark3.a(kprofile.cpp.o)
                0x0000000000800810                _ZN8Profiler9m_ulEpochE
 .bss           0x0000000000800814       0x46 /home/moslevin/googlecode/mark3/trunk/embedded/stage/lib/avr/atmega328p/gcc/libmark3.a(message.cpp.o)
                0x0000000000800814                _ZN17GlobalMessagePool8m_clListE
                0x000000000080081a                _ZN17GlobalMessagePool16m_aclMessagePoolE
 .bss           0x000000000080085a       0x15 /home/moslevin/googlecode/mark3/trunk/embedded/stage/lib/avr/atmega328p/gcc/libmark3.a(quantum.cpp.o)
                0x000000000080085a                _ZN7Quantum9m_bActiveE
                0x000000000080085b                _ZN7Quantum16m_clQuantumTimerE
 .bss           0x000000000080086f        0x2 /home/moslevin/googlecode/mark3/trunk/embedded/stage/lib/avr/atmega328p/gcc/libdrvUART.a(drvUART.cpp.o)
 *(.bss*)
 *(COMMON)
                0x0000000000800871                PROVIDE (__bss_end, .)
                0x0000000000002404                __data_load_start = LOADADDR (.data)
                0x00000000000024a2                __data_load_end = (__data_load_start + SIZEOF (.data))

.noinit         0x0000000000800871        0x0
                0x0000000000800871                PROVIDE (__noinit_start, .)
 *(.noinit*)
                0x0000000000800871                PROVIDE (__noinit_end, .)
                0x0000000000800871                _end = .
                0x0000000000800871                PROVIDE (__heap_start, .)

.eeprom         0x0000000000810000        0x0
 *(.eeprom*)
                0x0000000000810000                __eeprom_end = .

.fuse
 *(.fuse)
 *(.lfuse)
 *(.hfuse)
 *(.efuse)

.lock
 *(.lock*)

.signature
 *(.signature*)

.stab           0x0000000000000000      0x6cc
 *(.stab)
 .stab          0x0000000000000000      0x6cc /opt/avr8-gnu-toolchain-linux_x86_64/bin/../lib/gcc/avr/4.6.2/../../../../avr/lib/avr5/crtm328p.o

.stabstr        0x0000000000000000       0x85
 *(.stabstr)
 .stabstr       0x0000000000000000       0x85 /opt/avr8-gnu-toolchain-linux_x86_64/bin/../lib/gcc/avr/4.6.2/../../../../avr/lib/avr5/crtm328p.o

.stab.excl
 *(.stab.excl)

.stab.exclstr
 *(.stab.exclstr)

.stab.index
 *(.stab.index)

.stab.indexstr
 *(.stab.indexstr)

.comment
 *(.comment)

.debug
 *(.debug)

.line
 *(.line)

.debug_srcinfo
 *(.debug_srcinfo)

.debug_sfnames
 *(.debug_sfnames)

.debug_aranges  0x0000000000000000      0x640
 *(.debug_aranges)
 .debug_aranges
                0x0000000000000000       0x80 ./obj/avr/atmega328p/gcc/mark3test.cpp.o
 .debug_aranges
                0x0000000000000080       0x60 /home/moslevin/googlecode/mark3/trunk/embedded/stage/lib/avr/atmega328p/gcc/libmark3.a(driver.cpp.o)
 .debug_aranges
                0x00000000000000e0       0x50 /home/moslevin/googlecode/mark3/trunk/embedded/stage/lib/avr/atmega328p/gcc/libmark3.a(ll.cpp.o)
 .debug_aranges
                0x0000000000000130       0x50 /home/moslevin/googlecode/mark3/trunk/embedded/stage/lib/avr/atmega328p/gcc/libmark3.a(mutex.cpp.o)
 .debug_aranges
                0x0000000000000180       0x48 /home/moslevin/googlecode/mark3/trunk/embedded/stage/lib/avr/atmega328p/gcc/libmark3.a(profile.cpp.o)
 .debug_aranges
                0x00000000000001c8       0x40 /home/moslevin/googlecode/mark3/trunk/embedded/stage/lib/avr/atmega328p/gcc/libmark3.a(scheduler.cpp.o)
 .debug_aranges
                0x0000000000000208       0x58 /home/moslevin/googlecode/mark3/trunk/embedded/stage/lib/avr/atmega328p/gcc/libmark3.a(semaphore.cpp.o)
 .debug_aranges
                0x0000000000000260       0x70 /home/moslevin/googlecode/mark3/trunk/embedded/stage/lib/avr/atmega328p/gcc/libmark3.a(thread.cpp.o)
 .debug_aranges
                0x00000000000002d0       0x48 /home/moslevin/googlecode/mark3/trunk/embedded/stage/lib/avr/atmega328p/gcc/libmark3.a(threadlist.cpp.o)
 .debug_aranges
                0x0000000000000318       0x28 /home/moslevin/googlecode/mark3/trunk/embedded/stage/lib/avr/atmega328p/gcc/libmark3.a(kernel.cpp.o)
 .debug_aranges
                0x0000000000000340       0x70 /home/moslevin/googlecode/mark3/trunk/embedded/stage/lib/avr/atmega328p/gcc/libmark3.a(timerlist.cpp.o)
 .debug_aranges
                0x00000000000003b0       0x38 /home/moslevin/googlecode/mark3/trunk/embedded/stage/lib/avr/atmega328p/gcc/libmark3.a(threadport.cpp.o)
 .debug_aranges
                0x00000000000003e8       0x50 /home/moslevin/googlecode/mark3/trunk/embedded/stage/lib/avr/atmega328p/gcc/libmark3.a(kernelswi.cpp.o)
 .debug_aranges
                0x0000000000000438       0x78 /home/moslevin/googlecode/mark3/trunk/embedded/stage/lib/avr/atmega328p/gcc/libmark3.a(kerneltimer.cpp.o)
 .debug_aranges
                0x00000000000004b0       0x48 /home/moslevin/googlecode/mark3/trunk/embedded/stage/lib/avr/atmega328p/gcc/libmark3.a(kprofile.cpp.o)
 .debug_aranges
                0x00000000000004f8       0x28 /home/moslevin/googlecode/mark3/trunk/embedded/stage/lib/avr/atmega328p/gcc/libmark3.a(blocking.cpp.o)
 .debug_aranges
                0x0000000000000520       0x60 /home/moslevin/googlecode/mark3/trunk/embedded/stage/lib/avr/atmega328p/gcc/libmark3.a(message.cpp.o)
 .debug_aranges
                0x0000000000000580       0x48 /home/moslevin/googlecode/mark3/trunk/embedded/stage/lib/avr/atmega328p/gcc/libmark3.a(quantum.cpp.o)
 .debug_aranges
                0x00000000000005c8       0x78 /home/moslevin/googlecode/mark3/trunk/embedded/stage/lib/avr/atmega328p/gcc/libdrvUART.a(drvUART.cpp.o)

.debug_pubnames
 *(.debug_pubnames)

.debug_info     0x0000000000000000     0xc3fa
 *(.debug_info)
 .debug_info    0x0000000000000000     0x179f ./obj/avr/atmega328p/gcc/mark3test.cpp.o
 .debug_info    0x000000000000179f      0xad5 /home/moslevin/googlecode/mark3/trunk/embedded/stage/lib/avr/atmega328p/gcc/libmark3.a(driver.cpp.o)
 .debug_info    0x0000000000002274      0x584 /home/moslevin/googlecode/mark3/trunk/embedded/stage/lib/avr/atmega328p/gcc/libmark3.a(ll.cpp.o)
 .debug_info    0x00000000000027f8      0xde5 /home/moslevin/googlecode/mark3/trunk/embedded/stage/lib/avr/atmega328p/gcc/libmark3.a(mutex.cpp.o)
 .debug_info    0x00000000000035dd      0x7fe /home/moslevin/googlecode/mark3/trunk/embedded/stage/lib/avr/atmega328p/gcc/libmark3.a(profile.cpp.o)
 .debug_info    0x0000000000003ddb      0x95f /home/moslevin/googlecode/mark3/trunk/embedded/stage/lib/avr/atmega328p/gcc/libmark3.a(scheduler.cpp.o)
 .debug_info    0x000000000000473a      0xdc3 /home/moslevin/googlecode/mark3/trunk/embedded/stage/lib/avr/atmega328p/gcc/libmark3.a(semaphore.cpp.o)
 .debug_info    0x00000000000054fd     0x123f /home/moslevin/googlecode/mark3/trunk/embedded/stage/lib/avr/atmega328p/gcc/libmark3.a(thread.cpp.o)
 .debug_info    0x000000000000673c      0x9f0 /home/moslevin/googlecode/mark3/trunk/embedded/stage/lib/avr/atmega328p/gcc/libmark3.a(threadlist.cpp.o)
 .debug_info    0x000000000000712c      0x543 /home/moslevin/googlecode/mark3/trunk/embedded/stage/lib/avr/atmega328p/gcc/libmark3.a(kernel.cpp.o)
 .debug_info    0x000000000000766f      0xe36 /home/moslevin/googlecode/mark3/trunk/embedded/stage/lib/avr/atmega328p/gcc/libmark3.a(timerlist.cpp.o)
 .debug_info    0x00000000000084a5      0x646 /home/moslevin/googlecode/mark3/trunk/embedded/stage/lib/avr/atmega328p/gcc/libmark3.a(threadport.cpp.o)
 .debug_info    0x0000000000008aeb      0x187 /home/moslevin/googlecode/mark3/trunk/embedded/stage/lib/avr/atmega328p/gcc/libmark3.a(kernelswi.cpp.o)
 .debug_info    0x0000000000008c72      0x306 /home/moslevin/googlecode/mark3/trunk/embedded/stage/lib/avr/atmega328p/gcc/libmark3.a(kerneltimer.cpp.o)
 .debug_info    0x0000000000008f78      0x5f8 /home/moslevin/googlecode/mark3/trunk/embedded/stage/lib/avr/atmega328p/gcc/libmark3.a(kprofile.cpp.o)
 .debug_info    0x0000000000009570      0x620 /home/moslevin/googlecode/mark3/trunk/embedded/stage/lib/avr/atmega328p/gcc/libmark3.a(blocking.cpp.o)
 .debug_info    0x0000000000009b90      0xd5c /home/moslevin/googlecode/mark3/trunk/embedded/stage/lib/avr/atmega328p/gcc/libmark3.a(message.cpp.o)
 .debug_info    0x000000000000a8ec      0xc8b /home/moslevin/googlecode/mark3/trunk/embedded/stage/lib/avr/atmega328p/gcc/libmark3.a(quantum.cpp.o)
 .debug_info    0x000000000000b577      0xe83 /home/moslevin/googlecode/mark3/trunk/embedded/stage/lib/avr/atmega328p/gcc/libdrvUART.a(drvUART.cpp.o)
 *(.gnu.linkonce.wi.*)

.debug_abbrev   0x0000000000000000     0x3cb5
 *(.debug_abbrev)
 .debug_abbrev  0x0000000000000000      0x5d9 ./obj/avr/atmega328p/gcc/mark3test.cpp.o
 .debug_abbrev  0x00000000000005d9      0x39b /home/moslevin/googlecode/mark3/trunk/embedded/stage/lib/avr/atmega328p/gcc/libmark3.a(driver.cpp.o)
 .debug_abbrev  0x0000000000000974      0x272 /home/moslevin/googlecode/mark3/trunk/embedded/stage/lib/avr/atmega328p/gcc/libmark3.a(ll.cpp.o)
 .debug_abbrev  0x0000000000000be6      0x3dc /home/moslevin/googlecode/mark3/trunk/embedded/stage/lib/avr/atmega328p/gcc/libmark3.a(mutex.cpp.o)
 .debug_abbrev  0x0000000000000fc2      0x287 /home/moslevin/googlecode/mark3/trunk/embedded/stage/lib/avr/atmega328p/gcc/libmark3.a(profile.cpp.o)
 .debug_abbrev  0x0000000000001249      0x39e /home/moslevin/googlecode/mark3/trunk/embedded/stage/lib/avr/atmega328p/gcc/libmark3.a(scheduler.cpp.o)
 .debug_abbrev  0x00000000000015e7      0x3f8 /home/moslevin/googlecode/mark3/trunk/embedded/stage/lib/avr/atmega328p/gcc/libmark3.a(semaphore.cpp.o)
 .debug_abbrev  0x00000000000019df      0x472 /home/moslevin/googlecode/mark3/trunk/embedded/stage/lib/avr/atmega328p/gcc/libmark3.a(thread.cpp.o)
 .debug_abbrev  0x0000000000001e51      0x335 /home/moslevin/googlecode/mark3/trunk/embedded/stage/lib/avr/atmega328p/gcc/libmark3.a(threadlist.cpp.o)
 .debug_abbrev  0x0000000000002186      0x1f4 /home/moslevin/googlecode/mark3/trunk/embedded/stage/lib/avr/atmega328p/gcc/libmark3.a(kernel.cpp.o)
 .debug_abbrev  0x000000000000237a      0x46b /home/moslevin/googlecode/mark3/trunk/embedded/stage/lib/avr/atmega328p/gcc/libmark3.a(timerlist.cpp.o)
 .debug_abbrev  0x00000000000027e5      0x2cc /home/moslevin/googlecode/mark3/trunk/embedded/stage/lib/avr/atmega328p/gcc/libmark3.a(threadport.cpp.o)
 .debug_abbrev  0x0000000000002ab1       0xc5 /home/moslevin/googlecode/mark3/trunk/embedded/stage/lib/avr/atmega328p/gcc/libmark3.a(kernelswi.cpp.o)
 .debug_abbrev  0x0000000000002b76      0x142 /home/moslevin/googlecode/mark3/trunk/embedded/stage/lib/avr/atmega328p/gcc/libmark3.a(kerneltimer.cpp.o)
 .debug_abbrev  0x0000000000002cb8      0x242 /home/moslevin/googlecode/mark3/trunk/embedded/stage/lib/avr/atmega328p/gcc/libmark3.a(kprofile.cpp.o)
 .debug_abbrev  0x0000000000002efa      0x22a /home/moslevin/googlecode/mark3/trunk/embedded/stage/lib/avr/atmega328p/gcc/libmark3.a(blocking.cpp.o)
 .debug_abbrev  0x0000000000003124      0x3e6 /home/moslevin/googlecode/mark3/trunk/embedded/stage/lib/avr/atmega328p/gcc/libmark3.a(message.cpp.o)
 .debug_abbrev  0x000000000000350a      0x419 /home/moslevin/googlecode/mark3/trunk/embedded/stage/lib/avr/atmega328p/gcc/libmark3.a(quantum.cpp.o)
 .debug_abbrev  0x0000000000003923      0x392 /home/moslevin/googlecode/mark3/trunk/embedded/stage/lib/avr/atmega328p/gcc/libdrvUART.a(drvUART.cpp.o)

.debug_line     0x0000000000000000     0x1ca7
 *(.debug_line)
 .debug_line    0x0000000000000000      0x3aa ./obj/avr/atmega328p/gcc/mark3test.cpp.o
 .debug_line    0x00000000000003aa      0x149 /home/moslevin/googlecode/mark3/trunk/embedded/stage/lib/avr/atmega328p/gcc/libmark3.a(driver.cpp.o)
 .debug_line    0x00000000000004f3      0x11a /home/moslevin/googlecode/mark3/trunk/embedded/stage/lib/avr/atmega328p/gcc/libmark3.a(ll.cpp.o)
 .debug_line    0x000000000000060d      0x1c2 /home/moslevin/googlecode/mark3/trunk/embedded/stage/lib/avr/atmega328p/gcc/libmark3.a(mutex.cpp.o)
 .debug_line    0x00000000000007cf      0x137 /home/moslevin/googlecode/mark3/trunk/embedded/stage/lib/avr/atmega328p/gcc/libmark3.a(profile.cpp.o)
 .debug_line    0x0000000000000906      0x131 /home/moslevin/googlecode/mark3/trunk/embedded/stage/lib/avr/atmega328p/gcc/libmark3.a(scheduler.cpp.o)
 .debug_line    0x0000000000000a37      0x18f /home/moslevin/googlecode/mark3/trunk/embedded/stage/lib/avr/atmega328p/gcc/libmark3.a(semaphore.cpp.o)
 .debug_line    0x0000000000000bc6      0x251 /home/moslevin/googlecode/mark3/trunk/embedded/stage/lib/avr/atmega328p/gcc/libmark3.a(thread.cpp.o)
 .debug_line    0x0000000000000e17      0x11f /home/moslevin/googlecode/mark3/trunk/embedded/stage/lib/avr/atmega328p/gcc/libmark3.a(threadlist.cpp.o)
 .debug_line    0x0000000000000f36       0xd0 /home/moslevin/googlecode/mark3/trunk/embedded/stage/lib/avr/atmega328p/gcc/libmark3.a(kernel.cpp.o)
 .debug_line    0x0000000000001006      0x1e6 /home/moslevin/googlecode/mark3/trunk/embedded/stage/lib/avr/atmega328p/gcc/libmark3.a(timerlist.cpp.o)
 .debug_line    0x00000000000011ec      0x163 /home/moslevin/googlecode/mark3/trunk/embedded/stage/lib/avr/atmega328p/gcc/libmark3.a(threadport.cpp.o)
 .debug_line    0x000000000000134f      0x109 /home/moslevin/googlecode/mark3/trunk/embedded/stage/lib/avr/atmega328p/gcc/libmark3.a(kernelswi.cpp.o)
 .debug_line    0x0000000000001458      0x183 /home/moslevin/googlecode/mark3/trunk/embedded/stage/lib/avr/atmega328p/gcc/libmark3.a(kerneltimer.cpp.o)
 .debug_line    0x00000000000015db      0x122 /home/moslevin/googlecode/mark3/trunk/embedded/stage/lib/avr/atmega328p/gcc/libmark3.a(kprofile.cpp.o)
 .debug_line    0x00000000000016fd       0xd3 /home/moslevin/googlecode/mark3/trunk/embedded/stage/lib/avr/atmega328p/gcc/libmark3.a(blocking.cpp.o)
 .debug_line    0x00000000000017d0      0x191 /home/moslevin/googlecode/mark3/trunk/embedded/stage/lib/avr/atmega328p/gcc/libmark3.a(message.cpp.o)
 .debug_line    0x0000000000001961      0x152 /home/moslevin/googlecode/mark3/trunk/embedded/stage/lib/avr/atmega328p/gcc/libmark3.a(quantum.cpp.o)
 .debug_line    0x0000000000001ab3      0x1f4 /home/moslevin/googlecode/mark3/trunk/embedded/stage/lib/avr/atmega328p/gcc/libdrvUART.a(drvUART.cpp.o)

.debug_frame    0x0000000000000000     0x11b8
 *(.debug_frame)
 .debug_frame   0x0000000000000000      0x1ec ./obj/avr/atmega328p/gcc/mark3test.cpp.o
 .debug_frame   0x00000000000001ec       0xb0 /home/moslevin/googlecode/mark3/trunk/embedded/stage/lib/avr/atmega328p/gcc/libmark3.a(driver.cpp.o)
 .debug_frame   0x000000000000029c       0xb4 /home/moslevin/googlecode/mark3/trunk/embedded/stage/lib/avr/atmega328p/gcc/libmark3.a(ll.cpp.o)
 .debug_frame   0x0000000000000350      0x100 /home/moslevin/googlecode/mark3/trunk/embedded/stage/lib/avr/atmega328p/gcc/libmark3.a(mutex.cpp.o)
 .debug_frame   0x0000000000000450       0xe0 /home/moslevin/googlecode/mark3/trunk/embedded/stage/lib/avr/atmega328p/gcc/libmark3.a(profile.cpp.o)
 .debug_frame   0x0000000000000530       0x78 /home/moslevin/googlecode/mark3/trunk/embedded/stage/lib/avr/atmega328p/gcc/libmark3.a(scheduler.cpp.o)
 .debug_frame   0x00000000000005a8      0x120 /home/moslevin/googlecode/mark3/trunk/embedded/stage/lib/avr/atmega328p/gcc/libmark3.a(semaphore.cpp.o)
 .debug_frame   0x00000000000006c8      0x1a8 /home/moslevin/googlecode/mark3/trunk/embedded/stage/lib/avr/atmega328p/gcc/libmark3.a(thread.cpp.o)
 .debug_frame   0x0000000000000870       0x8c /home/moslevin/googlecode/mark3/trunk/embedded/stage/lib/avr/atmega328p/gcc/libmark3.a(threadlist.cpp.o)
 .debug_frame   0x00000000000008fc       0x34 /home/moslevin/googlecode/mark3/trunk/embedded/stage/lib/avr/atmega328p/gcc/libmark3.a(kernel.cpp.o)
 .debug_frame   0x0000000000000930      0x190 /home/moslevin/googlecode/mark3/trunk/embedded/stage/lib/avr/atmega328p/gcc/libmark3.a(timerlist.cpp.o)
 .debug_frame   0x0000000000000ac0       0xa8 /home/moslevin/googlecode/mark3/trunk/embedded/stage/lib/avr/atmega328p/gcc/libmark3.a(threadport.cpp.o)
 .debug_frame   0x0000000000000b68       0x84 /home/moslevin/googlecode/mark3/trunk/embedded/stage/lib/avr/atmega328p/gcc/libmark3.a(kernelswi.cpp.o)
 .debug_frame   0x0000000000000bec       0xf0 /home/moslevin/googlecode/mark3/trunk/embedded/stage/lib/avr/atmega328p/gcc/libmark3.a(kerneltimer.cpp.o)
 .debug_frame   0x0000000000000cdc       0xdc /home/moslevin/googlecode/mark3/trunk/embedded/stage/lib/avr/atmega328p/gcc/libmark3.a(kprofile.cpp.o)
 .debug_frame   0x0000000000000db8       0x54 /home/moslevin/googlecode/mark3/trunk/embedded/stage/lib/avr/atmega328p/gcc/libmark3.a(blocking.cpp.o)
 .debug_frame   0x0000000000000e0c      0x140 /home/moslevin/googlecode/mark3/trunk/embedded/stage/lib/avr/atmega328p/gcc/libmark3.a(message.cpp.o)
 .debug_frame   0x0000000000000f4c       0x80 /home/moslevin/googlecode/mark3/trunk/embedded/stage/lib/avr/atmega328p/gcc/libmark3.a(quantum.cpp.o)
 .debug_frame   0x0000000000000fcc      0x1ec /home/moslevin/googlecode/mark3/trunk/embedded/stage/lib/avr/atmega328p/gcc/libdrvUART.a(drvUART.cpp.o)

.debug_str      0x0000000000000000     0x2632
 *(.debug_str)
 .debug_str     0x0000000000000000      0xf11 ./obj/avr/atmega328p/gcc/mark3test.cpp.o
                                       0x100d (size before relaxing)
 .debug_str     0x0000000000000f11      0x1cf /home/moslevin/googlecode/mark3/trunk/embedded/stage/lib/avr/atmega328p/gcc/libmark3.a(driver.cpp.o)
                                        0x509 (size before relaxing)
 .debug_str     0x00000000000010e0      0x11f /home/moslevin/googlecode/mark3/trunk/embedded/stage/lib/avr/atmega328p/gcc/libmark3.a(ll.cpp.o)
                                        0x30f (size before relaxing)
 .debug_str     0x00000000000011ff      0x26e /home/moslevin/googlecode/mark3/trunk/embedded/stage/lib/avr/atmega328p/gcc/libmark3.a(mutex.cpp.o)
                                        0xa29 (size before relaxing)
 .debug_str     0x000000000000146d       0x64 /home/moslevin/googlecode/mark3/trunk/embedded/stage/lib/avr/atmega328p/gcc/libmark3.a(profile.cpp.o)
                                        0x6c0 (size before relaxing)
 .debug_str     0x00000000000014d1      0x157 /home/moslevin/googlecode/mark3/trunk/embedded/stage/lib/avr/atmega328p/gcc/libmark3.a(scheduler.cpp.o)
                                        0x7a0 (size before relaxing)
 .debug_str     0x0000000000001628       0xa5 /home/moslevin/googlecode/mark3/trunk/embedded/stage/lib/avr/atmega328p/gcc/libmark3.a(semaphore.cpp.o)
                                        0xa9d (size before relaxing)
 .debug_str     0x00000000000016cd      0x17a /home/moslevin/googlecode/mark3/trunk/embedded/stage/lib/avr/atmega328p/gcc/libmark3.a(thread.cpp.o)
                                        0xb8a (size before relaxing)
 .debug_str     0x0000000000001847      0x11e /home/moslevin/googlecode/mark3/trunk/embedded/stage/lib/avr/atmega328p/gcc/libmark3.a(threadlist.cpp.o)
                                        0x733 (size before relaxing)
 .debug_str     0x0000000000001965       0x52 /home/moslevin/googlecode/mark3/trunk/embedded/stage/lib/avr/atmega328p/gcc/libmark3.a(kernel.cpp.o)
                                        0x568 (size before relaxing)
 .debug_str     0x00000000000019b7      0x18f /home/moslevin/googlecode/mark3/trunk/embedded/stage/lib/avr/atmega328p/gcc/libmark3.a(timerlist.cpp.o)
                                        0xa5d (size before relaxing)
 .debug_str     0x0000000000001b46       0xf1 /home/moslevin/googlecode/mark3/trunk/embedded/stage/lib/avr/atmega328p/gcc/libmark3.a(threadport.cpp.o)
                                        0x653 (size before relaxing)
 .debug_str     0x0000000000001c37       0xda /home/moslevin/googlecode/mark3/trunk/embedded/stage/lib/avr/atmega328p/gcc/libmark3.a(kernelswi.cpp.o)
                                        0x1a2 (size before relaxing)
 .debug_str     0x0000000000001d11      0x1f0 /home/moslevin/googlecode/mark3/trunk/embedded/stage/lib/avr/atmega328p/gcc/libmark3.a(kerneltimer.cpp.o)
                                        0x2d7 (size before relaxing)
 .debug_str     0x0000000000001f01       0xba /home/moslevin/googlecode/mark3/trunk/embedded/stage/lib/avr/atmega328p/gcc/libmark3.a(kprofile.cpp.o)
                                        0x5dd (size before relaxing)
 .debug_str     0x0000000000001fbb        0xd /home/moslevin/googlecode/mark3/trunk/embedded/stage/lib/avr/atmega328p/gcc/libmark3.a(blocking.cpp.o)
                                        0x59e (size before relaxing)
 .debug_str     0x0000000000001fc8      0x272 /home/moslevin/googlecode/mark3/trunk/embedded/stage/lib/avr/atmega328p/gcc/libmark3.a(message.cpp.o)
                                        0xaa3 (size before relaxing)
 .debug_str     0x000000000000223a      0x123 /home/moslevin/googlecode/mark3/trunk/embedded/stage/lib/avr/atmega328p/gcc/libmark3.a(quantum.cpp.o)
                                        0xa26 (size before relaxing)
 .debug_str     0x000000000000235d      0x2d5 /home/moslevin/googlecode/mark3/trunk/embedded/stage/lib/avr/atmega328p/gcc/libdrvUART.a(drvUART.cpp.o)
                                        0x97f (size before relaxing)

.debug_loc      0x0000000000000000     0x3c5d
 *(.debug_loc)
 .debug_loc     0x0000000000000000      0x687 ./obj/avr/atmega328p/gcc/mark3test.cpp.o
 .debug_loc     0x0000000000000687      0x16c /home/moslevin/googlecode/mark3/trunk/embedded/stage/lib/avr/atmega328p/gcc/libmark3.a(driver.cpp.o)
 .debug_loc     0x00000000000007f3      0x24c /home/moslevin/googlecode/mark3/trunk/embedded/stage/lib/avr/atmega328p/gcc/libmark3.a(ll.cpp.o)
 .debug_loc     0x0000000000000a3f      0x421 /home/moslevin/googlecode/mark3/trunk/embedded/stage/lib/avr/atmega328p/gcc/libmark3.a(mutex.cpp.o)
 .debug_loc     0x0000000000000e60      0x425 /home/moslevin/googlecode/mark3/trunk/embedded/stage/lib/avr/atmega328p/gcc/libmark3.a(profile.cpp.o)
 .debug_loc     0x0000000000001285      0x100 /home/moslevin/googlecode/mark3/trunk/embedded/stage/lib/avr/atmega328p/gcc/libmark3.a(scheduler.cpp.o)
 .debug_loc     0x0000000000001385      0x4be /home/moslevin/googlecode/mark3/trunk/embedded/stage/lib/avr/atmega328p/gcc/libmark3.a(semaphore.cpp.o)
 .debug_loc     0x0000000000001843      0x75c /home/moslevin/googlecode/mark3/trunk/embedded/stage/lib/avr/atmega328p/gcc/libmark3.a(thread.cpp.o)
 .debug_loc     0x0000000000001f9f      0x22b /home/moslevin/googlecode/mark3/trunk/embedded/stage/lib/avr/atmega328p/gcc/libmark3.a(threadlist.cpp.o)
 .debug_loc     0x00000000000021ca      0x64b /home/moslevin/googlecode/mark3/trunk/embedded/stage/lib/avr/atmega328p/gcc/libmark3.a(timerlist.cpp.o)
 .debug_loc     0x0000000000002815      0x22f /home/moslevin/googlecode/mark3/trunk/embedded/stage/lib/avr/atmega328p/gcc/libmark3.a(threadport.cpp.o)
 .debug_loc     0x0000000000002a44       0x17 /home/moslevin/googlecode/mark3/trunk/embedded/stage/lib/avr/atmega328p/gcc/libmark3.a(kernelswi.cpp.o)
 .debug_loc     0x0000000000002a5b      0x1af /home/moslevin/googlecode/mark3/trunk/embedded/stage/lib/avr/atmega328p/gcc/libmark3.a(kerneltimer.cpp.o)
 .debug_loc     0x0000000000002c0a      0x199 /home/moslevin/googlecode/mark3/trunk/embedded/stage/lib/avr/atmega328p/gcc/libmark3.a(kprofile.cpp.o)
 .debug_loc     0x0000000000002da3      0x144 /home/moslevin/googlecode/mark3/trunk/embedded/stage/lib/avr/atmega328p/gcc/libmark3.a(blocking.cpp.o)
 .debug_loc     0x0000000000002ee7      0x40c /home/moslevin/googlecode/mark3/trunk/embedded/stage/lib/avr/atmega328p/gcc/libmark3.a(message.cpp.o)
 .debug_loc     0x00000000000032f3       0xe5 /home/moslevin/googlecode/mark3/trunk/embedded/stage/lib/avr/atmega328p/gcc/libmark3.a(quantum.cpp.o)
 .debug_loc     0x00000000000033d8      0x885 /home/moslevin/googlecode/mark3/trunk/embedded/stage/lib/avr/atmega328p/gcc/libdrvUART.a(drvUART.cpp.o)

.debug_macinfo
 *(.debug_macinfo)
OUTPUT(./obj/avr/atmega328p/gcc/kernel_profile.elf elf32-avr)
LOAD linker stubs

.debug_ranges   0x0000000000000000      0x5a0
 .debug_ranges  0x0000000000000000       0xe8 ./obj/avr/atmega328p/gcc/mark3test.cpp.o
 .debug_ranges  0x00000000000000e8       0x50 /home/moslevin/googlecode/mark3/trunk/embedded/stage/lib/avr/atmega328p/gcc/libmark3.a(driver.cpp.o)
 .debug_ranges  0x0000000000000138       0x40 /home/moslevin/googlecode/mark3/trunk/embedded/stage/lib/avr/atmega328p/gcc/libmark3.a(ll.cpp.o)
 .debug_ranges  0x0000000000000178       0x40 /home/moslevin/googlecode/mark3/trunk/embedded/stage/lib/avr/atmega328p/gcc/libmark3.a(mutex.cpp.o)
 .debug_ranges  0x00000000000001b8       0x38 /home/moslevin/googlecode/mark3/trunk/embedded/stage/lib/avr/atmega328p/gcc/libmark3.a(profile.cpp.o)
 .debug_ranges  0x00000000000001f0       0x30 /home/moslevin/googlecode/mark3/trunk/embedded/stage/lib/avr/atmega328p/gcc/libmark3.a(scheduler.cpp.o)
 .debug_ranges  0x0000000000000220       0x48 /home/moslevin/googlecode/mark3/trunk/embedded/stage/lib/avr/atmega328p/gcc/libmark3.a(semaphore.cpp.o)
 .debug_ranges  0x0000000000000268       0x60 /home/moslevin/googlecode/mark3/trunk/embedded/stage/lib/avr/atmega328p/gcc/libmark3.a(thread.cpp.o)
 .debug_ranges  0x00000000000002c8       0x50 /home/moslevin/googlecode/mark3/trunk/embedded/stage/lib/avr/atmega328p/gcc/libmark3.a(threadlist.cpp.o)
 .debug_ranges  0x0000000000000318       0x18 /home/moslevin/googlecode/mark3/trunk/embedded/stage/lib/avr/atmega328p/gcc/libmark3.a(kernel.cpp.o)
 .debug_ranges  0x0000000000000330       0x60 /home/moslevin/googlecode/mark3/trunk/embedded/stage/lib/avr/atmega328p/gcc/libmark3.a(timerlist.cpp.o)
 .debug_ranges  0x0000000000000390       0x28 /home/moslevin/googlecode/mark3/trunk/embedded/stage/lib/avr/atmega328p/gcc/libmark3.a(threadport.cpp.o)
 .debug_ranges  0x00000000000003b8       0x40 /home/moslevin/googlecode/mark3/trunk/embedded/stage/lib/avr/atmega328p/gcc/libmark3.a(kernelswi.cpp.o)
 .debug_ranges  0x00000000000003f8       0x68 /home/moslevin/googlecode/mark3/trunk/embedded/stage/lib/avr/atmega328p/gcc/libmark3.a(kerneltimer.cpp.o)
 .debug_ranges  0x0000000000000460       0x38 /home/moslevin/googlecode/mark3/trunk/embedded/stage/lib/avr/atmega328p/gcc/libmark3.a(kprofile.cpp.o)
 .debug_ranges  0x0000000000000498       0x18 /home/moslevin/googlecode/mark3/trunk/embedded/stage/lib/avr/atmega328p/gcc/libmark3.a(blocking.cpp.o)
 .debug_ranges  0x00000000000004b0       0x50 /home/moslevin/googlecode/mark3/trunk/embedded/stage/lib/avr/atmega328p/gcc/libmark3.a(message.cpp.o)
 .debug_ranges  0x0000000000000500       0x38 /home/moslevin/googlecode/mark3/trunk/embedded/stage/lib/avr/atmega328p/gcc/libmark3.a(quantum.cpp.o)
 .debug_ranges  0x0000000000000538       0x68 /home/moslevin/googlecode/mark3/trunk/embedded/stage/lib/avr/atmega328p/gcc/libdrvUART.a(drvUART.cpp.o)
