Archive member included because of file (symbol)

/home/moslevin/m3/mark3/embedded/stage/lib/avr/atmega328p/gcc/libmark3.a(driver.cpp.o)
                              ./obj/avr/atmega328p/gcc/fizzybox.cpp.o (_ZN10DriverList14m_clDriverListE)
/home/moslevin/m3/mark3/embedded/stage/lib/avr/atmega328p/gcc/libmark3.a(ll.cpp.o)
                              ./obj/avr/atmega328p/gcc/fizzybox.cpp.o (_ZN14DoubleLinkList3AddEP12LinkListNode)
/home/moslevin/m3/mark3/embedded/stage/lib/avr/atmega328p/gcc/libmark3.a(thread.cpp.o)
                              ./obj/avr/atmega328p/gcc/fizzybox.cpp.o (_ZN6Thread4InitEPhjhPFvPvES1_)
/home/moslevin/m3/mark3/embedded/stage/lib/avr/atmega328p/gcc/libmark3.a(threadlist.cpp.o)
                              /home/moslevin/m3/mark3/embedded/stage/lib/avr/atmega328p/gcc/libmark3.a(thread.cpp.o) (_ZTV10ThreadList)
/home/moslevin/m3/mark3/embedded/stage/lib/avr/atmega328p/gcc/libmark3.a(kernel.cpp.o)
                              ./obj/avr/atmega328p/gcc/fizzybox.cpp.o (_ZN6Kernel4InitEv)
/home/moslevin/m3/mark3/embedded/stage/lib/avr/atmega328p/gcc/libmark3.a(timerlist.cpp.o)
                              /home/moslevin/m3/mark3/embedded/stage/lib/avr/atmega328p/gcc/libmark3.a(kernel.cpp.o) (_ZN9TimerList4InitEv)
/home/moslevin/m3/mark3/embedded/stage/lib/avr/atmega328p/gcc/libmark3.a(threadport.cpp.o)
                              /home/moslevin/m3/mark3/embedded/stage/lib/avr/atmega328p/gcc/libmark3.a(thread.cpp.o) (_ZN10ThreadPort9InitStackEP6Thread)
/home/moslevin/m3/mark3/embedded/stage/lib/avr/atmega328p/gcc/libmark3.a(kernelswi.cpp.o)
                              /home/moslevin/m3/mark3/embedded/stage/lib/avr/atmega328p/gcc/libmark3.a(threadport.cpp.o) (_ZN9KernelSWI6ConfigEv)
/home/moslevin/m3/mark3/embedded/stage/lib/avr/atmega328p/gcc/libmark3.a(kerneltimer.cpp.o)
                              /home/moslevin/m3/mark3/embedded/stage/lib/avr/atmega328p/gcc/libmark3.a(threadport.cpp.o) (_ZN11KernelTimer6ConfigEv)
/home/moslevin/m3/mark3/embedded/stage/lib/avr/atmega328p/gcc/libmark3.a(kprofile.cpp.o)
                              /home/moslevin/m3/mark3/embedded/stage/lib/avr/atmega328p/gcc/libmark3.a(kernel.cpp.o) (_ZN8Profiler4InitEv)
/home/moslevin/m3/mark3/embedded/stage/lib/avr/atmega328p/gcc/libmark3.a(message.cpp.o)
                              /home/moslevin/m3/mark3/embedded/stage/lib/avr/atmega328p/gcc/libmark3.a(kernel.cpp.o) (_ZN17GlobalMessagePool4InitEv)
/home/moslevin/m3/mark3/embedded/stage/lib/avr/atmega328p/gcc/libmark3.a(quantum.cpp.o)
                              /home/moslevin/m3/mark3/embedded/stage/lib/avr/atmega328p/gcc/libmark3.a(thread.cpp.o) (_ZN7Quantum9AddThreadEP6Thread)
/home/moslevin/m3/mark3/embedded/stage/lib/avr/atmega328p/gcc/libmark3.a(scheduler.cpp.o)
                              /home/moslevin/m3/mark3/embedded/stage/lib/avr/atmega328p/gcc/libmark3.a(kernel.cpp.o) (_ZN9Scheduler4InitEv)
/home/moslevin/m3/mark3/embedded/stage/lib/avr/atmega328p/gcc/libmark3.a(ksemaphore.cpp.o)
                              /home/moslevin/m3/mark3/embedded/stage/lib/avr/atmega328p/gcc/libmark3.a(thread.cpp.o) (_ZN9Semaphore4InitEjj)
/home/moslevin/m3/mark3/embedded/stage/lib/avr/atmega328p/gcc/libmark3.a(blocking.cpp.o)
                              /home/moslevin/m3/mark3/embedded/stage/lib/avr/atmega328p/gcc/libmark3.a(ksemaphore.cpp.o) (_ZN14BlockingObject5BlockEP6Thread)
/home/moslevin/m3/mark3/embedded/stage/lib/avr/atmega328p/gcc/libdrvUART.a(drvUART.cpp.o)
                              ./obj/avr/atmega328p/gcc/fizzybox.cpp.o (_ZN10ATMegaUART4InitEv)
/home/moslevin/m3/mark3/embedded/stage/lib/avr/atmega328p/gcc/libnlfs.a(nlfs.cpp.o)
                              ./obj/avr/atmega328p/gcc/fizzybox.cpp.o (_ZN4NLFS6FormatEP11NLFS_Host_tmjj)
/home/moslevin/m3/mark3/embedded/stage/lib/avr/atmega328p/gcc/libnlfs.a(nlfs_file.cpp.o)
                              ./obj/avr/atmega328p/gcc/fizzybox.cpp.o (_ZN9NLFS_File4OpenEP4NLFSPKch)
/home/moslevin/m3/mark3/embedded/stage/lib/avr/atmega328p/gcc/libmemutil.a(memutil.cpp.o)
                              ./obj/avr/atmega328p/gcc/fizzybox.cpp.o (_ZN7MemUtil15DecimalToStringEhPc)
/home/moslevin/m3/mark3/embedded/stage/lib/avr/atmega328p/gcc/libshell.a(shell_support.cpp.o)
                              ./obj/avr/atmega328p/gcc/fizzybox.cpp.o (_ZN12ShellSupport10RunCommandEP13CommandLine_tPK14ShellCommand_t)
/home/moslevin/atmel/bin/../lib/gcc/avr/4.6.2/avr5/libgcc.a(_mulsi3.o)
                              /home/moslevin/m3/mark3/embedded/stage/lib/avr/atmega328p/gcc/libmark3.a(timerlist.cpp.o) (__mulsi3)
/home/moslevin/atmel/bin/../lib/gcc/avr/4.6.2/avr5/libgcc.a(_udivmodqi4.o)
                              /home/moslevin/m3/mark3/embedded/stage/lib/avr/atmega328p/gcc/libmemutil.a(memutil.cpp.o) (__udivmodqi4)
/home/moslevin/atmel/bin/../lib/gcc/avr/4.6.2/avr5/libgcc.a(_udivmodhi4.o)
                              /home/moslevin/m3/mark3/embedded/stage/lib/avr/atmega328p/gcc/libmemutil.a(memutil.cpp.o) (__udivmodhi4)
/home/moslevin/atmel/bin/../lib/gcc/avr/4.6.2/avr5/libgcc.a(_udivmodsi4.o)
                              /home/moslevin/m3/mark3/embedded/stage/lib/avr/atmega328p/gcc/libmark3.a(timerlist.cpp.o) (__udivmodsi4)
/home/moslevin/atmel/bin/../lib/gcc/avr/4.6.2/avr5/libgcc.a(_exit.o)
                              /home/moslevin/atmel/bin/../lib/gcc/avr/4.6.2/../../../../avr/lib/avr5/crtm328p.o (exit)
/home/moslevin/atmel/bin/../lib/gcc/avr/4.6.2/avr5/libgcc.a(_copy_data.o)
                              ./obj/avr/atmega328p/gcc/fizzybox.cpp.o (__do_copy_data)
/home/moslevin/atmel/bin/../lib/gcc/avr/4.6.2/avr5/libgcc.a(_clear_bss.o)
                              ./obj/avr/atmega328p/gcc/fizzybox.cpp.o (__do_clear_bss)
/home/moslevin/atmel/bin/../lib/gcc/avr/4.6.2/avr5/libgcc.a(_ctors.o)
                              ./obj/avr/atmega328p/gcc/fizzybox.cpp.o (__do_global_ctors)
/home/moslevin/atmel/bin/../lib/gcc/avr/4.6.2/avr5/libgcc.a(_tablejump.o)
                              /home/moslevin/atmel/bin/../lib/gcc/avr/4.6.2/avr5/libgcc.a(_ctors.o) (__tablejump__)
/home/moslevin/atmel/bin/../lib/gcc/avr/4.6.2/../../../../avr/lib/avr5/libc.a(eerd_block_atmega328p.o)
                              ./obj/avr/atmega328p/gcc/nlfs_eeprom.cpp.o (__eerd_block_m328p)
/home/moslevin/atmel/bin/../lib/gcc/avr/4.6.2/../../../../avr/lib/avr5/libc.a(eewr_block_atmega328p.o)
                              ./obj/avr/atmega328p/gcc/nlfs_eeprom.cpp.o (__eewr_block_m328p)
/home/moslevin/atmel/bin/../lib/gcc/avr/4.6.2/../../../../avr/lib/avr5/libc.a(eewr_byte_atmega328p.o)
                              /home/moslevin/atmel/bin/../lib/gcc/avr/4.6.2/../../../../avr/lib/avr5/libc.a(eewr_block_atmega328p.o) (__eewr_r18_m328p)

Discarded input sections

 .bss           0x0000000000000000        0x0 /home/moslevin/atmel/bin/../lib/gcc/avr/4.6.2/../../../../avr/lib/avr5/crtm328p.o
 .text          0x0000000000000000        0x0 ./obj/avr/atmega328p/gcc/fizzybox.cpp.o
 .text          0x0000000000000000        0x0 ./obj/avr/atmega328p/gcc/nlfs_eeprom.cpp.o
 .bss           0x0000000000000000        0x0 ./obj/avr/atmega328p/gcc/nlfs_eeprom.cpp.o
 .text          0x0000000000000000        0x0 /home/moslevin/m3/mark3/embedded/stage/lib/avr/atmega328p/gcc/libmark3.a(driver.cpp.o)
 .text          0x0000000000000000        0x0 /home/moslevin/m3/mark3/embedded/stage/lib/avr/atmega328p/gcc/libmark3.a(ll.cpp.o)
 .bss           0x0000000000000000        0x0 /home/moslevin/m3/mark3/embedded/stage/lib/avr/atmega328p/gcc/libmark3.a(ll.cpp.o)
 .text._ZN16CircularLinkList13PivotBackwardEv
                0x0000000000000000       0x28 /home/moslevin/m3/mark3/embedded/stage/lib/avr/atmega328p/gcc/libmark3.a(ll.cpp.o)
 .text          0x0000000000000000        0x0 /home/moslevin/m3/mark3/embedded/stage/lib/avr/atmega328p/gcc/libmark3.a(thread.cpp.o)
 .text._ZN6Thread6USleepEm
                0x0000000000000000       0xae /home/moslevin/m3/mark3/embedded/stage/lib/avr/atmega328p/gcc/libmark3.a(thread.cpp.o)
 .text._ZN6Thread13GetStackSlackEv
                0x0000000000000000       0x46 /home/moslevin/m3/mark3/embedded/stage/lib/avr/atmega328p/gcc/libmark3.a(thread.cpp.o)
 .text._ZN6Thread15SetPriorityBaseEh
                0x0000000000000000       0x4c /home/moslevin/m3/mark3/embedded/stage/lib/avr/atmega328p/gcc/libmark3.a(thread.cpp.o)
 .text._ZN6Thread15InheritPriorityEh
                0x0000000000000000       0x22 /home/moslevin/m3/mark3/embedded/stage/lib/avr/atmega328p/gcc/libmark3.a(thread.cpp.o)
 .text._ZN6Thread11SetPriorityEh
                0x0000000000000000       0x8e /home/moslevin/m3/mark3/embedded/stage/lib/avr/atmega328p/gcc/libmark3.a(thread.cpp.o)
 .text._ZN6Thread4ExitEv
                0x0000000000000000       0x46 /home/moslevin/m3/mark3/embedded/stage/lib/avr/atmega328p/gcc/libmark3.a(thread.cpp.o)
 .text          0x0000000000000000        0x0 /home/moslevin/m3/mark3/embedded/stage/lib/avr/atmega328p/gcc/libmark3.a(threadlist.cpp.o)
 .bss           0x0000000000000000        0x0 /home/moslevin/m3/mark3/embedded/stage/lib/avr/atmega328p/gcc/libmark3.a(threadlist.cpp.o)
 .text._ZN10ThreadList3AddEP12LinkListNodePhh
                0x0000000000000000       0x1e /home/moslevin/m3/mark3/embedded/stage/lib/avr/atmega328p/gcc/libmark3.a(threadlist.cpp.o)
 .text          0x0000000000000000        0x0 /home/moslevin/m3/mark3/embedded/stage/lib/avr/atmega328p/gcc/libmark3.a(kernel.cpp.o)
 .text          0x0000000000000000        0x0 /home/moslevin/m3/mark3/embedded/stage/lib/avr/atmega328p/gcc/libmark3.a(timerlist.cpp.o)
 .text._ZN5Timer16SetIntervalTicksEm
                0x0000000000000000        0xc /home/moslevin/m3/mark3/embedded/stage/lib/avr/atmega328p/gcc/libmark3.a(timerlist.cpp.o)
 .text._ZN5Timer18SetIntervalSecondsEm
                0x0000000000000000       0x28 /home/moslevin/m3/mark3/embedded/stage/lib/avr/atmega328p/gcc/libmark3.a(timerlist.cpp.o)
 .text._ZN5Timer19SetIntervalUSecondsEm
                0x0000000000000000       0x38 /home/moslevin/m3/mark3/embedded/stage/lib/avr/atmega328p/gcc/libmark3.a(timerlist.cpp.o)
 .text          0x0000000000000000        0x0 /home/moslevin/m3/mark3/embedded/stage/lib/avr/atmega328p/gcc/libmark3.a(threadport.cpp.o)
 .bss           0x0000000000000000        0x2 /home/moslevin/m3/mark3/embedded/stage/lib/avr/atmega328p/gcc/libmark3.a(threadport.cpp.o)
 .text          0x0000000000000000        0x0 /home/moslevin/m3/mark3/embedded/stage/lib/avr/atmega328p/gcc/libmark3.a(kernelswi.cpp.o)
 .bss           0x0000000000000000        0x0 /home/moslevin/m3/mark3/embedded/stage/lib/avr/atmega328p/gcc/libmark3.a(kernelswi.cpp.o)
 .text._ZN9KernelSWI4StopEv
                0x0000000000000000        0x4 /home/moslevin/m3/mark3/embedded/stage/lib/avr/atmega328p/gcc/libmark3.a(kernelswi.cpp.o)
 .text._ZN9KernelSWI2DIEv
                0x0000000000000000        0x8 /home/moslevin/m3/mark3/embedded/stage/lib/avr/atmega328p/gcc/libmark3.a(kernelswi.cpp.o)
 .text._ZN9KernelSWI2RIEh
                0x0000000000000000        0xc /home/moslevin/m3/mark3/embedded/stage/lib/avr/atmega328p/gcc/libmark3.a(kernelswi.cpp.o)
 .text._ZN9KernelSWI5ClearEv
                0x0000000000000000        0x4 /home/moslevin/m3/mark3/embedded/stage/lib/avr/atmega328p/gcc/libmark3.a(kernelswi.cpp.o)
 .text          0x0000000000000000        0x0 /home/moslevin/m3/mark3/embedded/stage/lib/avr/atmega328p/gcc/libmark3.a(kerneltimer.cpp.o)
 .bss           0x0000000000000000        0x0 /home/moslevin/m3/mark3/embedded/stage/lib/avr/atmega328p/gcc/libmark3.a(kerneltimer.cpp.o)
 .text._ZN11KernelTimer2DIEv
                0x0000000000000000       0x18 /home/moslevin/m3/mark3/embedded/stage/lib/avr/atmega328p/gcc/libmark3.a(kerneltimer.cpp.o)
 .text._ZN11KernelTimer2RIEh
                0x0000000000000000       0x18 /home/moslevin/m3/mark3/embedded/stage/lib/avr/atmega328p/gcc/libmark3.a(kerneltimer.cpp.o)
 .text._ZN11KernelTimer2EIEv
                0x0000000000000000        0x8 /home/moslevin/m3/mark3/embedded/stage/lib/avr/atmega328p/gcc/libmark3.a(kerneltimer.cpp.o)
 .text          0x0000000000000000        0x0 /home/moslevin/m3/mark3/embedded/stage/lib/avr/atmega328p/gcc/libmark3.a(kprofile.cpp.o)
 .text._ZN8Profiler5StartEv
                0x0000000000000000       0x16 /home/moslevin/m3/mark3/embedded/stage/lib/avr/atmega328p/gcc/libmark3.a(kprofile.cpp.o)
 .text._ZN8Profiler4StopEv
                0x0000000000000000       0x14 /home/moslevin/m3/mark3/embedded/stage/lib/avr/atmega328p/gcc/libmark3.a(kprofile.cpp.o)
 .text._ZN8Profiler4ReadEv
                0x0000000000000000       0x2c /home/moslevin/m3/mark3/embedded/stage/lib/avr/atmega328p/gcc/libmark3.a(kprofile.cpp.o)
 .text          0x0000000000000000        0x0 /home/moslevin/m3/mark3/embedded/stage/lib/avr/atmega328p/gcc/libmark3.a(message.cpp.o)
 .text._ZN17GlobalMessagePool4PushEP7Message
                0x0000000000000000       0x26 /home/moslevin/m3/mark3/embedded/stage/lib/avr/atmega328p/gcc/libmark3.a(message.cpp.o)
 .text._ZN17GlobalMessagePool3PopEv
                0x0000000000000000       0x38 /home/moslevin/m3/mark3/embedded/stage/lib/avr/atmega328p/gcc/libmark3.a(message.cpp.o)
 .text._ZN12MessageQueue4InitEv
                0x0000000000000000        0xe /home/moslevin/m3/mark3/embedded/stage/lib/avr/atmega328p/gcc/libmark3.a(message.cpp.o)
 .text._ZN12MessageQueue7ReceiveEv
                0x0000000000000000       0x44 /home/moslevin/m3/mark3/embedded/stage/lib/avr/atmega328p/gcc/libmark3.a(message.cpp.o)
 .text._ZN12MessageQueue7ReceiveEm
                0x0000000000000000       0x4e /home/moslevin/m3/mark3/embedded/stage/lib/avr/atmega328p/gcc/libmark3.a(message.cpp.o)
 .text._ZN12MessageQueue4SendEP7Message
                0x0000000000000000       0x34 /home/moslevin/m3/mark3/embedded/stage/lib/avr/atmega328p/gcc/libmark3.a(message.cpp.o)
 .text._ZN12MessageQueue8GetCountEv
                0x0000000000000000        0x6 /home/moslevin/m3/mark3/embedded/stage/lib/avr/atmega328p/gcc/libmark3.a(message.cpp.o)
 .text          0x0000000000000000        0x0 /home/moslevin/m3/mark3/embedded/stage/lib/avr/atmega328p/gcc/libmark3.a(quantum.cpp.o)
 .text          0x0000000000000000        0x0 /home/moslevin/m3/mark3/embedded/stage/lib/avr/atmega328p/gcc/libmark3.a(scheduler.cpp.o)
 .text          0x0000000000000000        0x0 /home/moslevin/m3/mark3/embedded/stage/lib/avr/atmega328p/gcc/libmark3.a(ksemaphore.cpp.o)
 .bss           0x0000000000000000        0x0 /home/moslevin/m3/mark3/embedded/stage/lib/avr/atmega328p/gcc/libmark3.a(ksemaphore.cpp.o)
 .text._ZN9Semaphore6WakeMeEP6Thread
                0x0000000000000000        0x6 /home/moslevin/m3/mark3/embedded/stage/lib/avr/atmega328p/gcc/libmark3.a(ksemaphore.cpp.o)
 .text._ZN9Semaphore8GetCountEv
                0x0000000000000000       0x22 /home/moslevin/m3/mark3/embedded/stage/lib/avr/atmega328p/gcc/libmark3.a(ksemaphore.cpp.o)
 .text          0x0000000000000000        0x0 /home/moslevin/m3/mark3/embedded/stage/lib/avr/atmega328p/gcc/libmark3.a(blocking.cpp.o)
 .bss           0x0000000000000000        0x0 /home/moslevin/m3/mark3/embedded/stage/lib/avr/atmega328p/gcc/libmark3.a(blocking.cpp.o)
 .text          0x0000000000000000        0x0 /home/moslevin/m3/mark3/embedded/stage/lib/avr/atmega328p/gcc/libdrvUART.a(drvUART.cpp.o)
 .text          0x0000000000000000        0x0 /home/moslevin/m3/mark3/embedded/stage/lib/avr/atmega328p/gcc/libnlfs.a(nlfs.cpp.o)
 .bss           0x0000000000000000        0x0 /home/moslevin/m3/mark3/embedded/stage/lib/avr/atmega328p/gcc/libnlfs.a(nlfs.cpp.o)
 .text._ZN4NLFS18Print_File_DetailsEj
                0x0000000000000000       0x3a /home/moslevin/m3/mark3/embedded/stage/lib/avr/atmega328p/gcc/libnlfs.a(nlfs.cpp.o)
 .text._ZN4NLFS17Print_Dir_DetailsEj
                0x0000000000000000       0x3a /home/moslevin/m3/mark3/embedded/stage/lib/avr/atmega328p/gcc/libnlfs.a(nlfs.cpp.o)
 .text._ZN4NLFS18Print_Free_DetailsEj
                0x0000000000000000       0x3a /home/moslevin/m3/mark3/embedded/stage/lib/avr/atmega328p/gcc/libnlfs.a(nlfs.cpp.o)
 .text._ZN4NLFS18Print_Node_DetailsEj
                0x0000000000000000       0x78 /home/moslevin/m3/mark3/embedded/stage/lib/avr/atmega328p/gcc/libnlfs.a(nlfs.cpp.o)
 .text._ZN4NLFS14Push_Free_NodeEj
                0x0000000000000000       0xbc /home/moslevin/m3/mark3/embedded/stage/lib/avr/atmega328p/gcc/libnlfs.a(nlfs.cpp.o)
 .text._ZN4NLFS5PrintEv
                0x0000000000000000       0x30 /home/moslevin/m3/mark3/embedded/stage/lib/avr/atmega328p/gcc/libnlfs.a(nlfs.cpp.o)
 .text._ZN4NLFS18Cleanup_Node_LinksEjP11NLFS_Node_t
                0x0000000000000000      0x180 /home/moslevin/m3/mark3/embedded/stage/lib/avr/atmega328p/gcc/libnlfs.a(nlfs.cpp.o)
 .text._ZN4NLFS5MountEP11NLFS_Host_t
                0x0000000000000000       0x62 /home/moslevin/m3/mark3/embedded/stage/lib/avr/atmega328p/gcc/libnlfs.a(nlfs.cpp.o)
 .text._ZN4NLFS11Delete_FileEPKc
                0x0000000000000000      0x120 /home/moslevin/m3/mark3/embedded/stage/lib/avr/atmega328p/gcc/libnlfs.a(nlfs.cpp.o)
 .text._ZN4NLFS13Delete_FolderEPKc
                0x0000000000000000       0xb4 /home/moslevin/m3/mark3/embedded/stage/lib/avr/atmega328p/gcc/libnlfs.a(nlfs.cpp.o)
 .text._ZN4NLFS10Create_DirEPKc
                0x0000000000000000       0x32 /home/moslevin/m3/mark3/embedded/stage/lib/avr/atmega328p/gcc/libnlfs.a(nlfs.cpp.o)
 .text          0x0000000000000000        0x0 /home/moslevin/m3/mark3/embedded/stage/lib/avr/atmega328p/gcc/libnlfs.a(nlfs_file.cpp.o)
 .bss           0x0000000000000000        0x0 /home/moslevin/m3/mark3/embedded/stage/lib/avr/atmega328p/gcc/libnlfs.a(nlfs_file.cpp.o)
 .text          0x0000000000000000        0x0 /home/moslevin/m3/mark3/embedded/stage/lib/avr/atmega328p/gcc/libmemutil.a(memutil.cpp.o)
 .bss           0x0000000000000000        0x0 /home/moslevin/m3/mark3/embedded/stage/lib/avr/atmega328p/gcc/libmemutil.a(memutil.cpp.o)
 .text._ZN7MemUtil12DecimalToHexEhPc
                0x0000000000000000       0x4a /home/moslevin/m3/mark3/embedded/stage/lib/avr/atmega328p/gcc/libmemutil.a(memutil.cpp.o)
 .text._ZN7MemUtil12DecimalToHexEjPc
                0x0000000000000000       0x6a /home/moslevin/m3/mark3/embedded/stage/lib/avr/atmega328p/gcc/libmemutil.a(memutil.cpp.o)
 .text._ZN7MemUtil12DecimalToHexEmPc
                0x0000000000000000       0xbe /home/moslevin/m3/mark3/embedded/stage/lib/avr/atmega328p/gcc/libmemutil.a(memutil.cpp.o)
 .text._ZN7MemUtil15DecimalToStringEjPc
                0x0000000000000000       0x68 /home/moslevin/m3/mark3/embedded/stage/lib/avr/atmega328p/gcc/libmemutil.a(memutil.cpp.o)
 .text._ZN7MemUtil9Checksum8EPKvj
                0x0000000000000000       0x16 /home/moslevin/m3/mark3/embedded/stage/lib/avr/atmega328p/gcc/libmemutil.a(memutil.cpp.o)
 .text._ZN7MemUtil10Checksum16EPKvj
                0x0000000000000000       0x1a /home/moslevin/m3/mark3/embedded/stage/lib/avr/atmega328p/gcc/libmemutil.a(memutil.cpp.o)
 .text._ZN7MemUtil10CopyStringEPcPKc
                0x0000000000000000       0x10 /home/moslevin/m3/mark3/embedded/stage/lib/avr/atmega328p/gcc/libmemutil.a(memutil.cpp.o)
 .text._ZN7MemUtil12StringSearchEPKcS1_
                0x0000000000000000       0x42 /home/moslevin/m3/mark3/embedded/stage/lib/avr/atmega328p/gcc/libmemutil.a(memutil.cpp.o)
 .text          0x0000000000000000        0x0 /home/moslevin/m3/mark3/embedded/stage/lib/avr/atmega328p/gcc/libshell.a(shell_support.cpp.o)
 .bss           0x0000000000000000        0x0 /home/moslevin/m3/mark3/embedded/stage/lib/avr/atmega328p/gcc/libshell.a(shell_support.cpp.o)
 .text._ZN12ShellSupport13UnescapeTokenEP7Token_tPc
                0x0000000000000000       0xbe /home/moslevin/m3/mark3/embedded/stage/lib/avr/atmega328p/gcc/libshell.a(shell_support.cpp.o)
 .text._ZN12ShellSupport14CheckForOptionEP13CommandLine_tPKc
                0x0000000000000000       0x9c /home/moslevin/m3/mark3/embedded/stage/lib/avr/atmega328p/gcc/libshell.a(shell_support.cpp.o)
 .text          0x0000000000000000        0x0 /home/moslevin/atmel/bin/../lib/gcc/avr/4.6.2/avr5/libgcc.a(_mulsi3.o)
 .bss           0x0000000000000000        0x0 /home/moslevin/atmel/bin/../lib/gcc/avr/4.6.2/avr5/libgcc.a(_mulsi3.o)
 .text          0x0000000000000000        0x0 /home/moslevin/atmel/bin/../lib/gcc/avr/4.6.2/avr5/libgcc.a(_udivmodqi4.o)
 .bss           0x0000000000000000        0x0 /home/moslevin/atmel/bin/../lib/gcc/avr/4.6.2/avr5/libgcc.a(_udivmodqi4.o)
 .text          0x0000000000000000        0x0 /home/moslevin/atmel/bin/../lib/gcc/avr/4.6.2/avr5/libgcc.a(_udivmodhi4.o)
 .bss           0x0000000000000000        0x0 /home/moslevin/atmel/bin/../lib/gcc/avr/4.6.2/avr5/libgcc.a(_udivmodhi4.o)
 .text.libgcc   0x0000000000000000       0x28 /home/moslevin/atmel/bin/../lib/gcc/avr/4.6.2/avr5/libgcc.a(_udivmodhi4.o)
 .text          0x0000000000000000        0x0 /home/moslevin/atmel/bin/../lib/gcc/avr/4.6.2/avr5/libgcc.a(_udivmodsi4.o)
 .bss           0x0000000000000000        0x0 /home/moslevin/atmel/bin/../lib/gcc/avr/4.6.2/avr5/libgcc.a(_udivmodsi4.o)
 .text          0x0000000000000000        0x0 /home/moslevin/atmel/bin/../lib/gcc/avr/4.6.2/avr5/libgcc.a(_exit.o)
 .bss           0x0000000000000000        0x0 /home/moslevin/atmel/bin/../lib/gcc/avr/4.6.2/avr5/libgcc.a(_exit.o)
 .text.libgcc   0x0000000000000000        0x0 /home/moslevin/atmel/bin/../lib/gcc/avr/4.6.2/avr5/libgcc.a(_exit.o)
 .text          0x0000000000000000        0x0 /home/moslevin/atmel/bin/../lib/gcc/avr/4.6.2/avr5/libgcc.a(_copy_data.o)
 .bss           0x0000000000000000        0x0 /home/moslevin/atmel/bin/../lib/gcc/avr/4.6.2/avr5/libgcc.a(_copy_data.o)
 .text.libgcc   0x0000000000000000        0x0 /home/moslevin/atmel/bin/../lib/gcc/avr/4.6.2/avr5/libgcc.a(_copy_data.o)
 .text          0x0000000000000000        0x0 /home/moslevin/atmel/bin/../lib/gcc/avr/4.6.2/avr5/libgcc.a(_clear_bss.o)
 .bss           0x0000000000000000        0x0 /home/moslevin/atmel/bin/../lib/gcc/avr/4.6.2/avr5/libgcc.a(_clear_bss.o)
 .text.libgcc   0x0000000000000000        0x0 /home/moslevin/atmel/bin/../lib/gcc/avr/4.6.2/avr5/libgcc.a(_clear_bss.o)
 .text          0x0000000000000000        0x0 /home/moslevin/atmel/bin/../lib/gcc/avr/4.6.2/avr5/libgcc.a(_ctors.o)
 .bss           0x0000000000000000        0x0 /home/moslevin/atmel/bin/../lib/gcc/avr/4.6.2/avr5/libgcc.a(_ctors.o)
 .text.libgcc   0x0000000000000000        0x0 /home/moslevin/atmel/bin/../lib/gcc/avr/4.6.2/avr5/libgcc.a(_ctors.o)
 .text          0x0000000000000000        0x0 /home/moslevin/atmel/bin/../lib/gcc/avr/4.6.2/avr5/libgcc.a(_tablejump.o)
 .bss           0x0000000000000000        0x0 /home/moslevin/atmel/bin/../lib/gcc/avr/4.6.2/avr5/libgcc.a(_tablejump.o)
 .text          0x0000000000000000        0x0 /home/moslevin/atmel/bin/../lib/gcc/avr/4.6.2/../../../../avr/lib/avr5/libc.a(eerd_block_atmega328p.o)
 .bss           0x0000000000000000        0x0 /home/moslevin/atmel/bin/../lib/gcc/avr/4.6.2/../../../../avr/lib/avr5/libc.a(eerd_block_atmega328p.o)
 .text          0x0000000000000000        0x0 /home/moslevin/atmel/bin/../lib/gcc/avr/4.6.2/../../../../avr/lib/avr5/libc.a(eewr_block_atmega328p.o)
 .bss           0x0000000000000000        0x0 /home/moslevin/atmel/bin/../lib/gcc/avr/4.6.2/../../../../avr/lib/avr5/libc.a(eewr_block_atmega328p.o)
 .text          0x0000000000000000        0x0 /home/moslevin/atmel/bin/../lib/gcc/avr/4.6.2/../../../../avr/lib/avr5/libc.a(eewr_byte_atmega328p.o)
 .bss           0x0000000000000000        0x0 /home/moslevin/atmel/bin/../lib/gcc/avr/4.6.2/../../../../avr/lib/avr5/libc.a(eewr_byte_atmega328p.o)

Memory Configuration

Name             Origin             Length             Attributes
text             0x0000000000000000 0x0000000000020000 xr
data             0x0000000000800060 0x000000000000ffa0 rw !x
eeprom           0x0000000000810000 0x0000000000010000 rw !x
fuse             0x0000000000820000 0x0000000000000400 rw !x
lock             0x0000000000830000 0x0000000000000400 rw !x
signature        0x0000000000840000 0x0000000000000400 rw !x
*default*        0x0000000000000000 0xffffffffffffffff

Linker script and memory map

Address of section .data set to 0x800100
LOAD /home/moslevin/atmel/bin/../lib/gcc/avr/4.6.2/../../../../avr/lib/avr5/crtm328p.o
START GROUP
LOAD /home/moslevin/atmel/bin/../lib/gcc/avr/4.6.2/../../../../avr/lib/avr5/libm.a
END GROUP
LOAD ./obj/avr/atmega328p/gcc/fizzybox.cpp.o
LOAD ./obj/avr/atmega328p/gcc/nlfs_eeprom.cpp.o
LOAD /home/moslevin/m3/mark3/embedded/stage/lib/avr/atmega328p/gcc/libmark3.a
LOAD /home/moslevin/m3/mark3/embedded/stage/lib/avr/atmega328p/gcc/libdrvUART.a
LOAD /home/moslevin/m3/mark3/embedded/stage/lib/avr/atmega328p/gcc/libnlfs.a
LOAD /home/moslevin/m3/mark3/embedded/stage/lib/avr/atmega328p/gcc/libmemutil.a
LOAD /home/moslevin/m3/mark3/embedded/stage/lib/avr/atmega328p/gcc/libshell.a
LOAD /home/moslevin/atmel/bin/../lib/gcc/avr/4.6.2/avr5/libgcc.a
LOAD /home/moslevin/atmel/bin/../lib/gcc/avr/4.6.2/../../../../avr/lib/avr5/libc.a
LOAD /home/moslevin/atmel/bin/../lib/gcc/avr/4.6.2/avr5/libgcc.a

.hash
 *(.hash)

.dynsym
 *(.dynsym)

.dynstr
 *(.dynstr)

.gnu.version
 *(.gnu.version)

.gnu.version_d
 *(.gnu.version_d)

.gnu.version_r
 *(.gnu.version_r)

.rel.init
 *(.rel.init)

.rela.init
 *(.rela.init)

.rel.text
 *(.rel.text)
 *(.rel.text.*)
 *(.rel.gnu.linkonce.t*)

.rela.text
 *(.rela.text)
 *(.rela.text.*)
 *(.rela.gnu.linkonce.t*)

.rel.fini
 *(.rel.fini)

.rela.fini
 *(.rela.fini)

.rel.rodata
 *(.rel.rodata)
 *(.rel.rodata.*)
 *(.rel.gnu.linkonce.r*)

.rela.rodata
 *(.rela.rodata)
 *(.rela.rodata.*)
 *(.rela.gnu.linkonce.r*)

.rel.data
 *(.rel.data)
 *(.rel.data.*)
 *(.rel.gnu.linkonce.d*)

.rela.data
 *(.rela.data)
 *(.rela.data.*)
 *(.rela.gnu.linkonce.d*)

.rel.ctors
 *(.rel.ctors)

.rela.ctors
 *(.rela.ctors)

.rel.dtors
 *(.rel.dtors)

.rela.dtors
 *(.rela.dtors)

.rel.got
 *(.rel.got)

.rela.got
 *(.rela.got)

.rel.bss
 *(.rel.bss)

.rela.bss
 *(.rela.bss)

.rel.plt
 *(.rel.plt)

.rela.plt
 *(.rela.plt)

.text           0x0000000000000000     0x3792
 *(.vectors)
 .vectors       0x0000000000000000       0x68 /home/moslevin/atmel/bin/../lib/gcc/avr/4.6.2/../../../../avr/lib/avr5/crtm328p.o
                0x0000000000000000                __vectors
                0x0000000000000000                __vector_default
 *(.vectors)
 *(.progmem.gcc*)
 *(.progmem*)
                0x0000000000000068                . = ALIGN (0x2)
                0x0000000000000068                __trampolines_start = .
 *(.trampolines)
 .trampolines   0x0000000000000068        0x0 linker stubs
 *(.trampolines*)
                0x0000000000000068                __trampolines_end = .
 *(.jumptables)
 *(.jumptables*)
 *(.lowtext)
 *(.lowtext*)
                0x0000000000000068                __ctors_start = .
 *(.ctors)
 .ctors         0x0000000000000068        0x2 ./obj/avr/atmega328p/gcc/fizzybox.cpp.o
 .ctors         0x000000000000006a        0x2 /home/moslevin/m3/mark3/embedded/stage/lib/avr/atmega328p/gcc/libmark3.a(driver.cpp.o)
 .ctors         0x000000000000006c        0x2 /home/moslevin/m3/mark3/embedded/stage/lib/avr/atmega328p/gcc/libmark3.a(timerlist.cpp.o)
 .ctors         0x000000000000006e        0x2 /home/moslevin/m3/mark3/embedded/stage/lib/avr/atmega328p/gcc/libmark3.a(message.cpp.o)
 .ctors         0x0000000000000070        0x2 /home/moslevin/m3/mark3/embedded/stage/lib/avr/atmega328p/gcc/libmark3.a(quantum.cpp.o)
 .ctors         0x0000000000000072        0x2 /home/moslevin/m3/mark3/embedded/stage/lib/avr/atmega328p/gcc/libmark3.a(scheduler.cpp.o)
                0x0000000000000074                __ctors_end = .
                0x0000000000000074                __dtors_start = .
 *(.dtors)
                0x0000000000000074                __dtors_end = .
 SORT(*)(.ctors)
 SORT(*)(.dtors)
 *(.init0)
 .init0         0x0000000000000074        0x0 /home/moslevin/atmel/bin/../lib/gcc/avr/4.6.2/../../../../avr/lib/avr5/crtm328p.o
                0x0000000000000074                __init
 *(.init0)
 *(.init1)
 *(.init1)
 *(.init2)
 .init2         0x0000000000000074        0xc /home/moslevin/atmel/bin/../lib/gcc/avr/4.6.2/../../../../avr/lib/avr5/crtm328p.o
 *(.init2)
 *(.init3)
 *(.init3)
 *(.init4)
 .init4         0x0000000000000080       0x16 /home/moslevin/atmel/bin/../lib/gcc/avr/4.6.2/avr5/libgcc.a(_copy_data.o)
                0x0000000000000080                __do_copy_data
 .init4         0x0000000000000096       0x10 /home/moslevin/atmel/bin/../lib/gcc/avr/4.6.2/avr5/libgcc.a(_clear_bss.o)
                0x0000000000000096                __do_clear_bss
 *(.init4)
 *(.init5)
 *(.init5)
 *(.init6)
 .init6         0x00000000000000a6       0x16 /home/moslevin/atmel/bin/../lib/gcc/avr/4.6.2/avr5/libgcc.a(_ctors.o)
                0x00000000000000a6                __do_global_ctors
 *(.init6)
 *(.init7)
 *(.init7)
 *(.init8)
 *(.init8)
 *(.init9)
 .init9         0x00000000000000bc        0x8 /home/moslevin/atmel/bin/../lib/gcc/avr/4.6.2/../../../../avr/lib/avr5/crtm328p.o
 *(.init9)
 *(.text)
 .text          0x00000000000000c4        0x4 /home/moslevin/atmel/bin/../lib/gcc/avr/4.6.2/../../../../avr/lib/avr5/crtm328p.o
                0x00000000000000c4                __vector_22
                0x00000000000000c4                __vector_24
                0x00000000000000c4                __vector_12
                0x00000000000000c4                __bad_interrupt
                0x00000000000000c4                __vector_6
                0x00000000000000c4                __vector_3
                0x00000000000000c4                __vector_23
                0x00000000000000c4                __vector_25
                0x00000000000000c4                __vector_13
                0x00000000000000c4                __vector_17
                0x00000000000000c4                __vector_19
                0x00000000000000c4                __vector_7
                0x00000000000000c4                __vector_5
                0x00000000000000c4                __vector_4
                0x00000000000000c4                __vector_9
                0x00000000000000c4                __vector_2
                0x00000000000000c4                __vector_21
                0x00000000000000c4                __vector_15
                0x00000000000000c4                __vector_8
                0x00000000000000c4                __vector_14
                0x00000000000000c4                __vector_10
                0x00000000000000c8                . = ALIGN (0x2)
 *(.text.*)
 .text._ZL9IdleEntryv
                0x00000000000000c8       0x1c ./obj/avr/atmega328p/gcc/fizzybox.cpp.o
 .text._ZL11PrintStringPKc
                0x00000000000000e4       0x36 ./obj/avr/atmega328p/gcc/fizzybox.cpp.o
 .text._ZL7cmd_dirP13CommandLine_t
                0x000000000000011a      0x14a ./obj/avr/atmega328p/gcc/fizzybox.cpp.o
 .text._ZL8AppEntryv
                0x0000000000000264      0x1ce ./obj/avr/atmega328p/gcc/fizzybox.cpp.o
 .text._ZL7cmd_catP13CommandLine_t
                0x0000000000000432       0xe2 ./obj/avr/atmega328p/gcc/fizzybox.cpp.o
 .text.__cxa_pure_virtual
                0x0000000000000514        0x2 ./obj/avr/atmega328p/gcc/fizzybox.cpp.o
                0x0000000000000514                __cxa_pure_virtual
 .text.startup.main
                0x0000000000000516       0x9a ./obj/avr/atmega328p/gcc/fizzybox.cpp.o
                0x0000000000000516                main
 .text.startup._GLOBAL__sub_I___cxa_pure_virtual
                0x00000000000005b0       0x1a ./obj/avr/atmega328p/gcc/fizzybox.cpp.o
 .text._ZN11NLFS_EEPROM11Write_BlockEmmPvm
                0x00000000000005ca       0x76 ./obj/avr/atmega328p/gcc/nlfs_eeprom.cpp.o
                0x00000000000005ca                _ZN11NLFS_EEPROM11Write_BlockEmmPvm
 .text._ZN11NLFS_EEPROM18Write_Block_HeaderEmP12NLFS_Block_t
                0x0000000000000640       0x42 ./obj/avr/atmega328p/gcc/nlfs_eeprom.cpp.o
                0x0000000000000640                _ZN11NLFS_EEPROM18Write_Block_HeaderEmP12NLFS_Block_t
 .text._ZN11NLFS_EEPROM10Write_NodeEjP11NLFS_Node_t
                0x0000000000000682       0x38 ./obj/avr/atmega328p/gcc/nlfs_eeprom.cpp.o
                0x0000000000000682                _ZN11NLFS_EEPROM10Write_NodeEjP11NLFS_Node_t
 .text._ZN11NLFS_EEPROM10Read_BlockEmmPvm
                0x00000000000006ba       0x76 ./obj/avr/atmega328p/gcc/nlfs_eeprom.cpp.o
                0x00000000000006ba                _ZN11NLFS_EEPROM10Read_BlockEmmPvm
 .text._ZN11NLFS_EEPROM17Read_Block_HeaderEmP12NLFS_Block_t
                0x0000000000000730       0x42 ./obj/avr/atmega328p/gcc/nlfs_eeprom.cpp.o
                0x0000000000000730                _ZN11NLFS_EEPROM17Read_Block_HeaderEmP12NLFS_Block_t
 .text._ZN11NLFS_EEPROM9Read_NodeEjP11NLFS_Node_t
                0x0000000000000772       0x38 ./obj/avr/atmega328p/gcc/nlfs_eeprom.cpp.o
                0x0000000000000772                _ZN11NLFS_EEPROM9Read_NodeEjP11NLFS_Node_t
 .text._ZN7DevNull4InitEv
                0x00000000000007aa        0xc /home/moslevin/m3/mark3/embedded/stage/lib/avr/atmega328p/gcc/libmark3.a(driver.cpp.o)
                0x00000000000007aa                _ZN7DevNull4InitEv
 .text._ZN7DevNull4OpenEv
                0x00000000000007b6        0x4 /home/moslevin/m3/mark3/embedded/stage/lib/avr/atmega328p/gcc/libmark3.a(driver.cpp.o)
                0x00000000000007b6                _ZN7DevNull4OpenEv
 .text._ZN7DevNull5CloseEv
                0x00000000000007ba        0x4 /home/moslevin/m3/mark3/embedded/stage/lib/avr/atmega328p/gcc/libmark3.a(driver.cpp.o)
                0x00000000000007ba                _ZN7DevNull5CloseEv
 .text._ZN7DevNull4ReadEjPh
                0x00000000000007be        0x6 /home/moslevin/m3/mark3/embedded/stage/lib/avr/atmega328p/gcc/libmark3.a(driver.cpp.o)
                0x00000000000007be                _ZN7DevNull4ReadEjPh
 .text._ZN7DevNull5WriteEjPh
                0x00000000000007c4        0x6 /home/moslevin/m3/mark3/embedded/stage/lib/avr/atmega328p/gcc/libmark3.a(driver.cpp.o)
                0x00000000000007c4                _ZN7DevNull5WriteEjPh
 .text._ZN7DevNull7ControlEjPvjS0_j
                0x00000000000007ca        0x6 /home/moslevin/m3/mark3/embedded/stage/lib/avr/atmega328p/gcc/libmark3.a(driver.cpp.o)
                0x00000000000007ca                _ZN7DevNull7ControlEjPvjS0_j
 .text._ZN10DriverList4InitEv
                0x00000000000007d0       0x1a /home/moslevin/m3/mark3/embedded/stage/lib/avr/atmega328p/gcc/libmark3.a(driver.cpp.o)
                0x00000000000007d0                _ZN10DriverList4InitEv
 .text._ZN10DriverList10FindByPathEPKc
                0x00000000000007ea       0x50 /home/moslevin/m3/mark3/embedded/stage/lib/avr/atmega328p/gcc/libmark3.a(driver.cpp.o)
                0x00000000000007ea                _ZN10DriverList10FindByPathEPKc
 .text.startup._GLOBAL__sub_I__ZN10DriverList14m_clDriverListE
                0x000000000000083a       0x2a /home/moslevin/m3/mark3/embedded/stage/lib/avr/atmega328p/gcc/libmark3.a(driver.cpp.o)
 .text._ZN14DoubleLinkList6RemoveEP12LinkListNode
                0x0000000000000864       0x68 /home/moslevin/m3/mark3/embedded/stage/lib/avr/atmega328p/gcc/libmark3.a(ll.cpp.o)
                0x0000000000000864                _ZN14DoubleLinkList6RemoveEP12LinkListNode
 .text._ZN16CircularLinkList6RemoveEP12LinkListNode
                0x00000000000008cc       0x84 /home/moslevin/m3/mark3/embedded/stage/lib/avr/atmega328p/gcc/libmark3.a(ll.cpp.o)
                0x00000000000008cc                _ZN16CircularLinkList6RemoveEP12LinkListNode
 .text._ZN14DoubleLinkList3AddEP12LinkListNode
                0x0000000000000950       0x48 /home/moslevin/m3/mark3/embedded/stage/lib/avr/atmega328p/gcc/libmark3.a(ll.cpp.o)
                0x0000000000000950                _ZN14DoubleLinkList3AddEP12LinkListNode
 .text._ZN16CircularLinkList3AddEP12LinkListNode
                0x0000000000000998       0x52 /home/moslevin/m3/mark3/embedded/stage/lib/avr/atmega328p/gcc/libmark3.a(ll.cpp.o)
                0x0000000000000998                _ZN16CircularLinkList3AddEP12LinkListNode
 .text._ZN12LinkListNode9ClearNodeEv
                0x00000000000009ea        0xc /home/moslevin/m3/mark3/embedded/stage/lib/avr/atmega328p/gcc/libmark3.a(ll.cpp.o)
                0x00000000000009ea                _ZN12LinkListNode9ClearNodeEv
 .text._ZN16CircularLinkList12PivotForwardEv
                0x00000000000009f6       0x22 /home/moslevin/m3/mark3/embedded/stage/lib/avr/atmega328p/gcc/libmark3.a(ll.cpp.o)
                0x00000000000009f6                _ZN16CircularLinkList12PivotForwardEv
 .text._ZL19ThreadSleepCallbackP6ThreadPv
                0x0000000000000a18        0x8 /home/moslevin/m3/mark3/embedded/stage/lib/avr/atmega328p/gcc/libmark3.a(thread.cpp.o)
 .text._ZN6Thread4InitEPhjhPFvPvES1_
                0x0000000000000a20       0xae /home/moslevin/m3/mark3/embedded/stage/lib/avr/atmega328p/gcc/libmark3.a(thread.cpp.o)
                0x0000000000000a20                _ZN6Thread4InitEPhjhPFvPvES1_
 .text._ZN6Thread5SleepEm
                0x0000000000000ace       0xae /home/moslevin/m3/mark3/embedded/stage/lib/avr/atmega328p/gcc/libmark3.a(thread.cpp.o)
                0x0000000000000ace                _ZN6Thread5SleepEm
 .text._ZN6Thread16ContextSwitchSWIEv
                0x0000000000000b7c        0xe /home/moslevin/m3/mark3/embedded/stage/lib/avr/atmega328p/gcc/libmark3.a(thread.cpp.o)
                0x0000000000000b7c                _ZN6Thread16ContextSwitchSWIEv
 .text._ZN6Thread5YieldEv
                0x0000000000000b8a       0x4a /home/moslevin/m3/mark3/embedded/stage/lib/avr/atmega328p/gcc/libmark3.a(thread.cpp.o)
                0x0000000000000b8a                _ZN6Thread5YieldEv
 .text._ZN6Thread5StartEv
                0x0000000000000bd4       0xac /home/moslevin/m3/mark3/embedded/stage/lib/avr/atmega328p/gcc/libmark3.a(thread.cpp.o)
                0x0000000000000bd4                _ZN6Thread5StartEv
 .text._ZN10ThreadList3AddEP12LinkListNode
                0x0000000000000c80       0x36 /home/moslevin/m3/mark3/embedded/stage/lib/avr/atmega328p/gcc/libmark3.a(threadlist.cpp.o)
                0x0000000000000c80                _ZN10ThreadList3AddEP12LinkListNode
 .text._ZN10ThreadList6RemoveEP12LinkListNode
                0x0000000000000cb6       0x38 /home/moslevin/m3/mark3/embedded/stage/lib/avr/atmega328p/gcc/libmark3.a(threadlist.cpp.o)
                0x0000000000000cb6                _ZN10ThreadList6RemoveEP12LinkListNode
 .text._ZN10ThreadList11SetPriorityEh
                0x0000000000000cee        0x6 /home/moslevin/m3/mark3/embedded/stage/lib/avr/atmega328p/gcc/libmark3.a(threadlist.cpp.o)
                0x0000000000000cee                _ZN10ThreadList11SetPriorityEh
 .text._ZN10ThreadList14SetFlagPointerEPh
                0x0000000000000cf4        0x8 /home/moslevin/m3/mark3/embedded/stage/lib/avr/atmega328p/gcc/libmark3.a(threadlist.cpp.o)
                0x0000000000000cf4                _ZN10ThreadList14SetFlagPointerEPh
 .text._ZN10ThreadList13HighestWaiterEv
                0x0000000000000cfc       0x30 /home/moslevin/m3/mark3/embedded/stage/lib/avr/atmega328p/gcc/libmark3.a(threadlist.cpp.o)
                0x0000000000000cfc                _ZN10ThreadList13HighestWaiterEv
 .text._ZN6Kernel4InitEv
                0x0000000000000d2c       0x1e /home/moslevin/m3/mark3/embedded/stage/lib/avr/atmega328p/gcc/libmark3.a(kernel.cpp.o)
                0x0000000000000d2c                _ZN6Kernel4InitEv
 .text._ZN6Kernel5StartEv
                0x0000000000000d4a        0xc /home/moslevin/m3/mark3/embedded/stage/lib/avr/atmega328p/gcc/libmark3.a(kernel.cpp.o)
                0x0000000000000d4a                _ZN6Kernel5StartEv
 .text._ZN9TimerList4InitEv
                0x0000000000000d56        0xe /home/moslevin/m3/mark3/embedded/stage/lib/avr/atmega328p/gcc/libmark3.a(timerlist.cpp.o)
                0x0000000000000d56                _ZN9TimerList4InitEv
 .text._ZN9TimerList3AddEP5Timer
                0x0000000000000d64       0xb6 /home/moslevin/m3/mark3/embedded/stage/lib/avr/atmega328p/gcc/libmark3.a(timerlist.cpp.o)
                0x0000000000000d64                _ZN9TimerList3AddEP5Timer
 .text._ZN9TimerList6RemoveEP5Timer
                0x0000000000000e1a       0x3a /home/moslevin/m3/mark3/embedded/stage/lib/avr/atmega328p/gcc/libmark3.a(timerlist.cpp.o)
                0x0000000000000e1a                _ZN9TimerList6RemoveEP5Timer
 .text._ZN9TimerList7ProcessEv
                0x0000000000000e54      0x15a /home/moslevin/m3/mark3/embedded/stage/lib/avr/atmega328p/gcc/libmark3.a(timerlist.cpp.o)
                0x0000000000000e54                _ZN9TimerList7ProcessEv
 .text._ZN5Timer5StartEhmPFvP6ThreadPvES2_
                0x0000000000000fae       0x78 /home/moslevin/m3/mark3/embedded/stage/lib/avr/atmega328p/gcc/libmark3.a(timerlist.cpp.o)
                0x0000000000000fae                _ZN5Timer5StartEhmPFvP6ThreadPvES2_
 .text._ZN5Timer4StopEv
                0x0000000000001026        0xc /home/moslevin/m3/mark3/embedded/stage/lib/avr/atmega328p/gcc/libmark3.a(timerlist.cpp.o)
                0x0000000000001026                _ZN5Timer4StopEv
 .text._ZN5Timer19SetIntervalMSecondsEm
                0x0000000000001032       0x38 /home/moslevin/m3/mark3/embedded/stage/lib/avr/atmega328p/gcc/libmark3.a(timerlist.cpp.o)
                0x0000000000001032                _ZN5Timer19SetIntervalMSecondsEm
 .text.startup._GLOBAL__sub_I__ZN14TimerScheduler13m_clTimerListE
                0x000000000000106a       0x1e /home/moslevin/m3/mark3/embedded/stage/lib/avr/atmega328p/gcc/libmark3.a(timerlist.cpp.o)
 .text._ZN10ThreadPort9InitStackEP6Thread
                0x0000000000001088       0x86 /home/moslevin/m3/mark3/embedded/stage/lib/avr/atmega328p/gcc/libmark3.a(threadport.cpp.o)
                0x0000000000001088                _ZN10ThreadPort9InitStackEP6Thread
 .text._ZN10ThreadPort12StartThreadsEv
                0x000000000000110e       0x84 /home/moslevin/m3/mark3/embedded/stage/lib/avr/atmega328p/gcc/libmark3.a(threadport.cpp.o)
                0x000000000000110e                _ZN10ThreadPort12StartThreadsEv
 .text.__vector_1
                0x0000000000001192       0xc2 /home/moslevin/m3/mark3/embedded/stage/lib/avr/atmega328p/gcc/libmark3.a(threadport.cpp.o)
                0x0000000000001192                __vector_1
 .text.__vector_11
                0x0000000000001254       0x50 /home/moslevin/m3/mark3/embedded/stage/lib/avr/atmega328p/gcc/libmark3.a(threadport.cpp.o)
                0x0000000000001254                __vector_11
 .text._ZN9KernelSWI6ConfigEv
                0x00000000000012a4       0x10 /home/moslevin/m3/mark3/embedded/stage/lib/avr/atmega328p/gcc/libmark3.a(kernelswi.cpp.o)
                0x00000000000012a4                _ZN9KernelSWI6ConfigEv
 .text._ZN9KernelSWI5StartEv
                0x00000000000012b4        0x6 /home/moslevin/m3/mark3/embedded/stage/lib/avr/atmega328p/gcc/libmark3.a(kernelswi.cpp.o)
                0x00000000000012b4                _ZN9KernelSWI5StartEv
 .text._ZN9KernelSWI7TriggerEv
                0x00000000000012ba        0x6 /home/moslevin/m3/mark3/embedded/stage/lib/avr/atmega328p/gcc/libmark3.a(kernelswi.cpp.o)
                0x00000000000012ba                _ZN9KernelSWI7TriggerEv
 .text._ZN11KernelTimer6ConfigEv
                0x00000000000012c0        0x8 /home/moslevin/m3/mark3/embedded/stage/lib/avr/atmega328p/gcc/libmark3.a(kerneltimer.cpp.o)
                0x00000000000012c0                _ZN11KernelTimer6ConfigEv
 .text._ZN11KernelTimer5StartEv
                0x00000000000012c8       0x20 /home/moslevin/m3/mark3/embedded/stage/lib/avr/atmega328p/gcc/libmark3.a(kerneltimer.cpp.o)
                0x00000000000012c8                _ZN11KernelTimer5StartEv
 .text._ZN11KernelTimer4StopEv
                0x00000000000012e8       0x28 /home/moslevin/m3/mark3/embedded/stage/lib/avr/atmega328p/gcc/libmark3.a(kerneltimer.cpp.o)
                0x00000000000012e8                _ZN11KernelTimer4StopEv
 .text._ZN11KernelTimer4ReadEv
                0x0000000000001310       0x44 /home/moslevin/m3/mark3/embedded/stage/lib/avr/atmega328p/gcc/libmark3.a(kerneltimer.cpp.o)
                0x0000000000001310                _ZN11KernelTimer4ReadEv
 .text._ZN11KernelTimer14SubtractExpiryEm
                0x0000000000001354       0x20 /home/moslevin/m3/mark3/embedded/stage/lib/avr/atmega328p/gcc/libmark3.a(kerneltimer.cpp.o)
                0x0000000000001354                _ZN11KernelTimer14SubtractExpiryEm
 .text._ZN11KernelTimer12TimeToExpiryEv
                0x0000000000001374       0x30 /home/moslevin/m3/mark3/embedded/stage/lib/avr/atmega328p/gcc/libmark3.a(kerneltimer.cpp.o)
                0x0000000000001374                _ZN11KernelTimer12TimeToExpiryEv
 .text._ZN11KernelTimer11GetOvertimeEv
                0x00000000000013a4        0xc /home/moslevin/m3/mark3/embedded/stage/lib/avr/atmega328p/gcc/libmark3.a(kerneltimer.cpp.o)
                0x00000000000013a4                _ZN11KernelTimer11GetOvertimeEv
 .text._ZN11KernelTimer9SetExpiryEm
                0x00000000000013b0       0x28 /home/moslevin/m3/mark3/embedded/stage/lib/avr/atmega328p/gcc/libmark3.a(kerneltimer.cpp.o)
                0x00000000000013b0                _ZN11KernelTimer9SetExpiryEm
 .text._ZN11KernelTimer11ClearExpiryEv
                0x00000000000013d8        0xe /home/moslevin/m3/mark3/embedded/stage/lib/avr/atmega328p/gcc/libmark3.a(kerneltimer.cpp.o)
                0x00000000000013d8                _ZN11KernelTimer11ClearExpiryEv
 .text._ZN8Profiler4InitEv
                0x00000000000013e6       0x1c /home/moslevin/m3/mark3/embedded/stage/lib/avr/atmega328p/gcc/libmark3.a(kprofile.cpp.o)
                0x00000000000013e6                _ZN8Profiler4InitEv
 .text._ZN8Profiler7ProcessEv
                0x0000000000001402       0x42 /home/moslevin/m3/mark3/embedded/stage/lib/avr/atmega328p/gcc/libmark3.a(kprofile.cpp.o)
                0x0000000000001402                _ZN8Profiler7ProcessEv
 .text.__vector_16
                0x0000000000001444       0x48 /home/moslevin/m3/mark3/embedded/stage/lib/avr/atmega328p/gcc/libmark3.a(kprofile.cpp.o)
                0x0000000000001444                __vector_16
 .text._ZN17GlobalMessagePool4InitEv
                0x000000000000148c       0x38 /home/moslevin/m3/mark3/embedded/stage/lib/avr/atmega328p/gcc/libmark3.a(message.cpp.o)
                0x000000000000148c                _ZN17GlobalMessagePool4InitEv
 .text.startup._GLOBAL__sub_I__ZN17GlobalMessagePool16m_aclMessagePoolE
                0x00000000000014c4       0x1e /home/moslevin/m3/mark3/embedded/stage/lib/avr/atmega328p/gcc/libmark3.a(message.cpp.o)
 .text._ZL15QuantumCallbackP6ThreadPv
                0x00000000000014e2       0x36 /home/moslevin/m3/mark3/embedded/stage/lib/avr/atmega328p/gcc/libmark3.a(quantum.cpp.o)
 .text._ZN7Quantum8SetTimerEP6Thread
                0x0000000000001518       0x3e /home/moslevin/m3/mark3/embedded/stage/lib/avr/atmega328p/gcc/libmark3.a(quantum.cpp.o)
                0x0000000000001518                _ZN7Quantum8SetTimerEP6Thread
 .text._ZN7Quantum9AddThreadEP6Thread
                0x0000000000001556       0x38 /home/moslevin/m3/mark3/embedded/stage/lib/avr/atmega328p/gcc/libmark3.a(quantum.cpp.o)
                0x0000000000001556                _ZN7Quantum9AddThreadEP6Thread
 .text._ZN7Quantum12RemoveThreadEv
                0x000000000000158e       0x1a /home/moslevin/m3/mark3/embedded/stage/lib/avr/atmega328p/gcc/libmark3.a(quantum.cpp.o)
                0x000000000000158e                _ZN7Quantum12RemoveThreadEv
 .text._ZN7Quantum11UpdateTimerEv
                0x00000000000015a8       0x12 /home/moslevin/m3/mark3/embedded/stage/lib/avr/atmega328p/gcc/libmark3.a(quantum.cpp.o)
                0x00000000000015a8                _ZN7Quantum11UpdateTimerEv
 .text.startup._GLOBAL__sub_I__ZN7Quantum16m_clQuantumTimerE
                0x00000000000015ba       0x26 /home/moslevin/m3/mark3/embedded/stage/lib/avr/atmega328p/gcc/libmark3.a(quantum.cpp.o)
 .text._ZN9Scheduler4InitEv
                0x00000000000015e0       0x52 /home/moslevin/m3/mark3/embedded/stage/lib/avr/atmega328p/gcc/libmark3.a(scheduler.cpp.o)
                0x00000000000015e0                _ZN9Scheduler4InitEv
 .text._ZN9Scheduler8ScheduleEv
                0x0000000000001632       0x54 /home/moslevin/m3/mark3/embedded/stage/lib/avr/atmega328p/gcc/libmark3.a(scheduler.cpp.o)
                0x0000000000001632                _ZN9Scheduler8ScheduleEv
 .text._ZN9Scheduler3AddEP6Thread
                0x0000000000001686       0x36 /home/moslevin/m3/mark3/embedded/stage/lib/avr/atmega328p/gcc/libmark3.a(scheduler.cpp.o)
                0x0000000000001686                _ZN9Scheduler3AddEP6Thread
 .text._ZN9Scheduler6RemoveEP6Thread
                0x00000000000016bc       0x36 /home/moslevin/m3/mark3/embedded/stage/lib/avr/atmega328p/gcc/libmark3.a(scheduler.cpp.o)
                0x00000000000016bc                _ZN9Scheduler6RemoveEP6Thread
 .text.startup._GLOBAL__sub_I_g_pstNext
                0x00000000000016f2       0x4c /home/moslevin/m3/mark3/embedded/stage/lib/avr/atmega328p/gcc/libmark3.a(scheduler.cpp.o)
 .text._Z23TimedSemaphore_CallbackP6ThreadPv
                0x000000000000173e       0x2e /home/moslevin/m3/mark3/embedded/stage/lib/avr/atmega328p/gcc/libmark3.a(ksemaphore.cpp.o)
                0x000000000000173e                _Z23TimedSemaphore_CallbackP6ThreadPv
 .text._ZN9Semaphore8WakeNextEv
                0x000000000000176c       0x3c /home/moslevin/m3/mark3/embedded/stage/lib/avr/atmega328p/gcc/libmark3.a(ksemaphore.cpp.o)
                0x000000000000176c                _ZN9Semaphore8WakeNextEv
 .text._ZN9Semaphore4InitEjj
                0x00000000000017a8        0xe /home/moslevin/m3/mark3/embedded/stage/lib/avr/atmega328p/gcc/libmark3.a(ksemaphore.cpp.o)
                0x00000000000017a8                _ZN9Semaphore4InitEjj
 .text._ZN9Semaphore4PostEv
                0x00000000000017b6       0x4e /home/moslevin/m3/mark3/embedded/stage/lib/avr/atmega328p/gcc/libmark3.a(ksemaphore.cpp.o)
                0x00000000000017b6                _ZN9Semaphore4PostEv
 .text._ZN9Semaphore4PendEm
                0x0000000000001804       0xd8 /home/moslevin/m3/mark3/embedded/stage/lib/avr/atmega328p/gcc/libmark3.a(ksemaphore.cpp.o)
                0x0000000000001804                _ZN9Semaphore4PendEm
 .text._ZN9Semaphore4PendEv
                0x00000000000018dc        0xc /home/moslevin/m3/mark3/embedded/stage/lib/avr/atmega328p/gcc/libmark3.a(ksemaphore.cpp.o)
                0x00000000000018dc                _ZN9Semaphore4PendEv
 .text._ZN14BlockingObject5BlockEP6Thread
                0x00000000000018e8       0x28 /home/moslevin/m3/mark3/embedded/stage/lib/avr/atmega328p/gcc/libmark3.a(blocking.cpp.o)
                0x00000000000018e8                _ZN14BlockingObject5BlockEP6Thread
 .text._ZN14BlockingObject7UnBlockEP6Thread
                0x0000000000001910       0x2c /home/moslevin/m3/mark3/embedded/stage/lib/avr/atmega328p/gcc/libmark3.a(blocking.cpp.o)
                0x0000000000001910                _ZN14BlockingObject7UnBlockEP6Thread
 .text._ZN10ATMegaUART4OpenEv
                0x000000000000193c       0x1c /home/moslevin/m3/mark3/embedded/stage/lib/avr/atmega328p/gcc/libdrvUART.a(drvUART.cpp.o)
                0x000000000000193c                _ZN10ATMegaUART4OpenEv
 .text._ZN10ATMegaUART5CloseEv
                0x0000000000001958       0x14 /home/moslevin/m3/mark3/embedded/stage/lib/avr/atmega328p/gcc/libdrvUART.a(drvUART.cpp.o)
                0x0000000000001958                _ZN10ATMegaUART5CloseEv
 .text._ZN10ATMegaUART4ReadEjPh
                0x000000000000196c       0x8e /home/moslevin/m3/mark3/embedded/stage/lib/avr/atmega328p/gcc/libdrvUART.a(drvUART.cpp.o)
                0x000000000000196c                _ZN10ATMegaUART4ReadEjPh
 .text._ZN10ATMegaUART7SetBaudEv
                0x00000000000019fa       0x32 /home/moslevin/m3/mark3/embedded/stage/lib/avr/atmega328p/gcc/libdrvUART.a(drvUART.cpp.o)
                0x00000000000019fa                _ZN10ATMegaUART7SetBaudEv
 .text._ZN10ATMegaUART7ControlEjPvjS0_j
                0x0000000000001a2c       0x86 /home/moslevin/m3/mark3/embedded/stage/lib/avr/atmega328p/gcc/libdrvUART.a(drvUART.cpp.o)
                0x0000000000001a2c                _ZN10ATMegaUART7ControlEjPvjS0_j
 .text._ZN10ATMegaUART4InitEv
                0x0000000000001ab2       0x3c /home/moslevin/m3/mark3/embedded/stage/lib/avr/atmega328p/gcc/libdrvUART.a(drvUART.cpp.o)
                0x0000000000001ab2                _ZN10ATMegaUART4InitEv
 .text._ZN10ATMegaUART7StartTxEv
                0x0000000000001aee       0x3c /home/moslevin/m3/mark3/embedded/stage/lib/avr/atmega328p/gcc/libdrvUART.a(drvUART.cpp.o)
                0x0000000000001aee                _ZN10ATMegaUART7StartTxEv
 .text._ZN10ATMegaUART5WriteEjPh
                0x0000000000001b2a       0xc0 /home/moslevin/m3/mark3/embedded/stage/lib/avr/atmega328p/gcc/libdrvUART.a(drvUART.cpp.o)
                0x0000000000001b2a                _ZN10ATMegaUART5WriteEjPh
 .text._ZN10ATMegaUART5RxISREv
                0x0000000000001bea       0xb2 /home/moslevin/m3/mark3/embedded/stage/lib/avr/atmega328p/gcc/libdrvUART.a(drvUART.cpp.o)
                0x0000000000001bea                _ZN10ATMegaUART5RxISREv
 .text.__vector_18
                0x0000000000001c9c       0x50 /home/moslevin/m3/mark3/embedded/stage/lib/avr/atmega328p/gcc/libdrvUART.a(drvUART.cpp.o)
                0x0000000000001c9c                __vector_18
 .text._ZN10ATMegaUART5TxISREv
                0x0000000000001cec       0x10 /home/moslevin/m3/mark3/embedded/stage/lib/avr/atmega328p/gcc/libdrvUART.a(drvUART.cpp.o)
                0x0000000000001cec                _ZN10ATMegaUART5TxISREv
 .text.__vector_20
                0x0000000000001cfc       0x50 /home/moslevin/m3/mark3/embedded/stage/lib/avr/atmega328p/gcc/libdrvUART.a(drvUART.cpp.o)
                0x0000000000001cfc                __vector_20
 .text._ZN4NLFS15Find_Last_SlashEPKc
                0x0000000000001d4c       0x1c /home/moslevin/m3/mark3/embedded/stage/lib/avr/atmega328p/gcc/libnlfs.a(nlfs.cpp.o)
                0x0000000000001d4c                _ZN4NLFS15Find_Last_SlashEPKc
 .text._ZN4NLFS16File_Names_MatchEPKcP11NLFS_Node_t
                0x0000000000001d68       0x64 /home/moslevin/m3/mark3/embedded/stage/lib/avr/atmega328p/gcc/libnlfs.a(nlfs.cpp.o)
                0x0000000000001d68                _ZN4NLFS16File_Names_MatchEPKcP11NLFS_Node_t
 .text._ZN4NLFS13Pop_Free_NodeEv
                0x0000000000001dcc       0xde /home/moslevin/m3/mark3/embedded/stage/lib/avr/atmega328p/gcc/libnlfs.a(nlfs.cpp.o)
                0x0000000000001dcc                _ZN4NLFS13Pop_Free_NodeEv
 .text._ZN4NLFS14Pop_Free_BlockEv
                0x0000000000001eaa      0x14a /home/moslevin/m3/mark3/embedded/stage/lib/avr/atmega328p/gcc/libnlfs.a(nlfs.cpp.o)
                0x0000000000001eaa                _ZN4NLFS14Pop_Free_BlockEv
 .text._ZN4NLFS15Push_Free_BlockEm
                0x0000000000001ff4       0xe8 /home/moslevin/m3/mark3/embedded/stage/lib/avr/atmega328p/gcc/libnlfs.a(nlfs.cpp.o)
                0x0000000000001ff4                _ZN4NLFS15Push_Free_BlockEm
 .text._ZN4NLFS15Find_Parent_DirEPKc
                0x00000000000020dc      0x1f2 /home/moslevin/m3/mark3/embedded/stage/lib/avr/atmega328p/gcc/libnlfs.a(nlfs.cpp.o)
                0x00000000000020dc                _ZN4NLFS15Find_Parent_DirEPKc
 .text._ZN4NLFS9Find_FileEPKc
                0x00000000000022ce       0xb0 /home/moslevin/m3/mark3/embedded/stage/lib/avr/atmega328p/gcc/libnlfs.a(nlfs.cpp.o)
                0x00000000000022ce                _ZN4NLFS9Find_FileEPKc
 .text._ZN4NLFS13Set_Node_NameEP11NLFS_Node_tPKc
                0x000000000000237e       0x3c /home/moslevin/m3/mark3/embedded/stage/lib/avr/atmega328p/gcc/libnlfs.a(nlfs.cpp.o)
                0x000000000000237e                _ZN4NLFS13Set_Node_NameEP11NLFS_Node_tPKc
 .text._ZN4NLFS6FormatEP11NLFS_Host_tmjj
                0x00000000000023ba      0x2f8 /home/moslevin/m3/mark3/embedded/stage/lib/avr/atmega328p/gcc/libnlfs.a(nlfs.cpp.o)
                0x00000000000023ba                _ZN4NLFS6FormatEP11NLFS_Host_tmjj
 .text._ZN4NLFS8RootSyncEv
                0x00000000000026b2       0x60 /home/moslevin/m3/mark3/embedded/stage/lib/avr/atmega328p/gcc/libnlfs.a(nlfs.cpp.o)
                0x00000000000026b2                _ZN4NLFS8RootSyncEv
 .text._ZN4NLFS13Create_File_iEPKc11NLFS_Type_t
                0x0000000000002712      0x1b0 /home/moslevin/m3/mark3/embedded/stage/lib/avr/atmega328p/gcc/libnlfs.a(nlfs.cpp.o)
                0x0000000000002712                _ZN4NLFS13Create_File_iEPKc11NLFS_Type_t
 .text._ZN4NLFS11Create_FileEPKc
                0x00000000000028c2       0x32 /home/moslevin/m3/mark3/embedded/stage/lib/avr/atmega328p/gcc/libnlfs.a(nlfs.cpp.o)
                0x00000000000028c2                _ZN4NLFS11Create_FileEPKc
 .text._ZN4NLFS20Append_Block_To_NodeEP11NLFS_Node_t
                0x00000000000028f4      0x15a /home/moslevin/m3/mark3/embedded/stage/lib/avr/atmega328p/gcc/libnlfs.a(nlfs.cpp.o)
                0x00000000000028f4                _ZN4NLFS20Append_Block_To_NodeEP11NLFS_Node_t
 .text._ZN4NLFS13GetFirstChildEj
                0x0000000000002a4e       0x58 /home/moslevin/m3/mark3/embedded/stage/lib/avr/atmega328p/gcc/libnlfs.a(nlfs.cpp.o)
                0x0000000000002a4e                _ZN4NLFS13GetFirstChildEj
 .text._ZN4NLFS11GetNextPeerEj
                0x0000000000002aa6       0x52 /home/moslevin/m3/mark3/embedded/stage/lib/avr/atmega328p/gcc/libnlfs.a(nlfs.cpp.o)
                0x0000000000002aa6                _ZN4NLFS11GetNextPeerEj
 .text._ZN4NLFS7GetStatEjP16NLFS_File_Stat_t
                0x0000000000002af8       0x9e /home/moslevin/m3/mark3/embedded/stage/lib/avr/atmega328p/gcc/libnlfs.a(nlfs.cpp.o)
                0x0000000000002af8                _ZN4NLFS7GetStatEjP16NLFS_File_Stat_t
 .text._ZN9NLFS_File4SeekEm
                0x0000000000002b96      0x158 /home/moslevin/m3/mark3/embedded/stage/lib/avr/atmega328p/gcc/libnlfs.a(nlfs_file.cpp.o)
                0x0000000000002b96                _ZN9NLFS_File4SeekEm
 .text._ZN9NLFS_File4OpenEP4NLFSPKch
                0x0000000000002cee      0x16c /home/moslevin/m3/mark3/embedded/stage/lib/avr/atmega328p/gcc/libnlfs.a(nlfs_file.cpp.o)
                0x0000000000002cee                _ZN9NLFS_File4OpenEP4NLFSPKch
 .text._ZN9NLFS_File4ReadEPvm
                0x0000000000002e5a      0x23e /home/moslevin/m3/mark3/embedded/stage/lib/avr/atmega328p/gcc/libnlfs.a(nlfs_file.cpp.o)
                0x0000000000002e5a                _ZN9NLFS_File4ReadEPvm
 .text._ZN9NLFS_File5WriteEPvm
                0x0000000000003098      0x23c /home/moslevin/m3/mark3/embedded/stage/lib/avr/atmega328p/gcc/libnlfs.a(nlfs_file.cpp.o)
                0x0000000000003098                _ZN9NLFS_File5WriteEPvm
 .text._ZN9NLFS_File5CloseEv
                0x00000000000032d4       0x2a /home/moslevin/m3/mark3/embedded/stage/lib/avr/atmega328p/gcc/libnlfs.a(nlfs_file.cpp.o)
                0x00000000000032d4                _ZN9NLFS_File5CloseEv
 .text._ZN7MemUtil15DecimalToStringEhPc
                0x00000000000032fe       0x36 /home/moslevin/m3/mark3/embedded/stage/lib/avr/atmega328p/gcc/libmemutil.a(memutil.cpp.o)
                0x00000000000032fe                _ZN7MemUtil15DecimalToStringEhPc
 .text._ZN7MemUtil15DecimalToStringEmPc
                0x0000000000003334       0xca /home/moslevin/m3/mark3/embedded/stage/lib/avr/atmega328p/gcc/libmemutil.a(memutil.cpp.o)
                0x0000000000003334                _ZN7MemUtil15DecimalToStringEmPc
 .text._ZN7MemUtil12StringLengthEPKc
                0x00000000000033fe       0x16 /home/moslevin/m3/mark3/embedded/stage/lib/avr/atmega328p/gcc/libmemutil.a(memutil.cpp.o)
                0x00000000000033fe                _ZN7MemUtil12StringLengthEPKc
 .text._ZN7MemUtil14CompareStringsEPKcS1_
                0x0000000000003414       0x26 /home/moslevin/m3/mark3/embedded/stage/lib/avr/atmega328p/gcc/libmemutil.a(memutil.cpp.o)
                0x0000000000003414                _ZN7MemUtil14CompareStringsEPKcS1_
 .text._ZN7MemUtil10CopyMemoryEPvPKvj
                0x000000000000343a       0x16 /home/moslevin/m3/mark3/embedded/stage/lib/avr/atmega328p/gcc/libmemutil.a(memutil.cpp.o)
                0x000000000000343a                _ZN7MemUtil10CopyMemoryEPvPKvj
 .text._ZN7MemUtil13CompareMemoryEPKvS1_j
                0x0000000000003450       0x20 /home/moslevin/m3/mark3/embedded/stage/lib/avr/atmega328p/gcc/libmemutil.a(memutil.cpp.o)
                0x0000000000003450                _ZN7MemUtil13CompareMemoryEPKvS1_j
 .text._ZN7MemUtil9SetMemoryEPvhj
                0x0000000000003470       0x12 /home/moslevin/m3/mark3/embedded/stage/lib/avr/atmega328p/gcc/libmemutil.a(memutil.cpp.o)
                0x0000000000003470                _ZN7MemUtil9SetMemoryEPvhj
 .text._ZN7MemUtil8TokenizeEPKcP7Token_th
                0x0000000000003482       0xc2 /home/moslevin/m3/mark3/embedded/stage/lib/avr/atmega328p/gcc/libmemutil.a(memutil.cpp.o)
                0x0000000000003482                _ZN7MemUtil8TokenizeEPKcP7Token_th
 .text._ZN12ShellSupport10RunCommandEP13CommandLine_tPK14ShellCommand_t
                0x0000000000003544       0xae /home/moslevin/m3/mark3/embedded/stage/lib/avr/atmega328p/gcc/libshell.a(shell_support.cpp.o)
                0x0000000000003544                _ZN12ShellSupport10RunCommandEP13CommandLine_tPK14ShellCommand_t
 .text._ZN12ShellSupport19TokensToCommandLineEP7Token_thP13CommandLine_t
                0x00000000000035f2       0xa6 /home/moslevin/m3/mark3/embedded/stage/lib/avr/atmega328p/gcc/libshell.a(shell_support.cpp.o)
                0x00000000000035f2                _ZN12ShellSupport19TokensToCommandLineEP7Token_thP13CommandLine_t
 .text.libgcc   0x0000000000003698       0x3e /home/moslevin/atmel/bin/../lib/gcc/avr/4.6.2/avr5/libgcc.a(_mulsi3.o)
                0x0000000000003698                __mulsi3
 .text.libgcc   0x00000000000036d6       0x18 /home/moslevin/atmel/bin/../lib/gcc/avr/4.6.2/avr5/libgcc.a(_udivmodqi4.o)
                0x00000000000036d6                __udivmodqi4
 .text.libgcc   0x00000000000036ee       0x44 /home/moslevin/atmel/bin/../lib/gcc/avr/4.6.2/avr5/libgcc.a(_udivmodsi4.o)
                0x00000000000036ee                __udivmodsi4
 .text.libgcc   0x0000000000003732        0xc /home/moslevin/atmel/bin/../lib/gcc/avr/4.6.2/avr5/libgcc.a(_tablejump.o)
                0x0000000000003732                __tablejump2__
                0x0000000000003736                __tablejump__
 .text.avr-libc
                0x000000000000373e       0x20 /home/moslevin/atmel/bin/../lib/gcc/avr/4.6.2/../../../../avr/lib/avr5/libc.a(eerd_block_atmega328p.o)
                0x000000000000373e                __eerd_block_m328p
                0x0000000000003742                __eerd_blraw_m328p
 .text.avr-libc
                0x000000000000375e       0x14 /home/moslevin/atmel/bin/../lib/gcc/avr/4.6.2/../../../../avr/lib/avr5/libc.a(eewr_block_atmega328p.o)
                0x000000000000375e                __eewr_block_m328p
 .text.avr-libc
                0x0000000000003772       0x1c /home/moslevin/atmel/bin/../lib/gcc/avr/4.6.2/../../../../avr/lib/avr5/libc.a(eewr_byte_atmega328p.o)
                0x0000000000003772                __eewr_byte_m328p
                0x0000000000003774                __eewr_r18_m328p
                0x000000000000378e                . = ALIGN (0x2)
 *(.fini9)
 .fini9         0x000000000000378e        0x0 /home/moslevin/atmel/bin/../lib/gcc/avr/4.6.2/avr5/libgcc.a(_exit.o)
                0x000000000000378e                exit
                0x000000000000378e                _exit
 *(.fini9)
 *(.fini8)
 *(.fini8)
 *(.fini7)
 *(.fini7)
 *(.fini6)
 *(.fini6)
 *(.fini5)
 *(.fini5)
 *(.fini4)
 *(.fini4)
 *(.fini3)
 *(.fini3)
 *(.fini2)
 *(.fini2)
 *(.fini1)
 *(.fini1)
 *(.fini0)
 .fini0         0x000000000000378e        0x4 /home/moslevin/atmel/bin/../lib/gcc/avr/4.6.2/avr5/libgcc.a(_exit.o)
 *(.fini0)
                0x0000000000003792                _etext = .

.data           0x0000000000800100      0x138 load address 0x0000000000003792
                0x0000000000800100                PROVIDE (__data_start, .)
 *(.data)
 .data          0x0000000000800100        0x0 /home/moslevin/atmel/bin/../lib/gcc/avr/4.6.2/../../../../avr/lib/avr5/crtm328p.o
 .data          0x0000000000800100       0xc6 ./obj/avr/atmega328p/gcc/fizzybox.cpp.o
 .data          0x00000000008001c6       0x10 ./obj/avr/atmega328p/gcc/nlfs_eeprom.cpp.o
                0x00000000008001c6                _ZTV11NLFS_EEPROM
 .data          0x00000000008001d6       0x1a /home/moslevin/m3/mark3/embedded/stage/lib/avr/atmega328p/gcc/libmark3.a(driver.cpp.o)
                0x00000000008001e0                _ZTV7DevNull
 .data          0x00000000008001f0       0x10 /home/moslevin/m3/mark3/embedded/stage/lib/avr/atmega328p/gcc/libmark3.a(ll.cpp.o)
                0x00000000008001f0                _ZTV14DoubleLinkList
                0x00000000008001f8                _ZTV16CircularLinkList
 .data          0x0000000000800200        0x0 /home/moslevin/m3/mark3/embedded/stage/lib/avr/atmega328p/gcc/libmark3.a(thread.cpp.o)
 .data          0x0000000000800200        0x8 /home/moslevin/m3/mark3/embedded/stage/lib/avr/atmega328p/gcc/libmark3.a(threadlist.cpp.o)
                0x0000000000800200                _ZTV10ThreadList
 .data          0x0000000000800208        0x0 /home/moslevin/m3/mark3/embedded/stage/lib/avr/atmega328p/gcc/libmark3.a(kernel.cpp.o)
 .data          0x0000000000800208        0x8 /home/moslevin/m3/mark3/embedded/stage/lib/avr/atmega328p/gcc/libmark3.a(timerlist.cpp.o)
                0x0000000000800208                _ZTV9TimerList
 .data          0x0000000000800210        0x0 /home/moslevin/m3/mark3/embedded/stage/lib/avr/atmega328p/gcc/libmark3.a(threadport.cpp.o)
 .data          0x0000000000800210        0x0 /home/moslevin/m3/mark3/embedded/stage/lib/avr/atmega328p/gcc/libmark3.a(kernelswi.cpp.o)
 .data          0x0000000000800210        0x0 /home/moslevin/m3/mark3/embedded/stage/lib/avr/atmega328p/gcc/libmark3.a(kerneltimer.cpp.o)
 .data          0x0000000000800210        0x0 /home/moslevin/m3/mark3/embedded/stage/lib/avr/atmega328p/gcc/libmark3.a(kprofile.cpp.o)
 .data          0x0000000000800210        0x0 /home/moslevin/m3/mark3/embedded/stage/lib/avr/atmega328p/gcc/libmark3.a(message.cpp.o)
 .data          0x0000000000800210        0x0 /home/moslevin/m3/mark3/embedded/stage/lib/avr/atmega328p/gcc/libmark3.a(quantum.cpp.o)
 .data          0x0000000000800210       0x18 /home/moslevin/m3/mark3/embedded/stage/lib/avr/atmega328p/gcc/libmark3.a(scheduler.cpp.o)
                0x0000000000800220                _ZTV8LinkList
 .data          0x0000000000800228        0x0 /home/moslevin/m3/mark3/embedded/stage/lib/avr/atmega328p/gcc/libmark3.a(ksemaphore.cpp.o)
 .data          0x0000000000800228        0x0 /home/moslevin/m3/mark3/embedded/stage/lib/avr/atmega328p/gcc/libmark3.a(blocking.cpp.o)
 .data          0x0000000000800228       0x10 /home/moslevin/m3/mark3/embedded/stage/lib/avr/atmega328p/gcc/libdrvUART.a(drvUART.cpp.o)
                0x0000000000800228                _ZTV10ATMegaUART
 .data          0x0000000000800238        0x0 /home/moslevin/m3/mark3/embedded/stage/lib/avr/atmega328p/gcc/libnlfs.a(nlfs.cpp.o)
 .data          0x0000000000800238        0x0 /home/moslevin/m3/mark3/embedded/stage/lib/avr/atmega328p/gcc/libnlfs.a(nlfs_file.cpp.o)
 .data          0x0000000000800238        0x0 /home/moslevin/m3/mark3/embedded/stage/lib/avr/atmega328p/gcc/libmemutil.a(memutil.cpp.o)
 .data          0x0000000000800238        0x0 /home/moslevin/m3/mark3/embedded/stage/lib/avr/atmega328p/gcc/libshell.a(shell_support.cpp.o)
 .data          0x0000000000800238        0x0 /home/moslevin/atmel/bin/../lib/gcc/avr/4.6.2/avr5/libgcc.a(_mulsi3.o)
 .data          0x0000000000800238        0x0 /home/moslevin/atmel/bin/../lib/gcc/avr/4.6.2/avr5/libgcc.a(_udivmodqi4.o)
 .data          0x0000000000800238        0x0 /home/moslevin/atmel/bin/../lib/gcc/avr/4.6.2/avr5/libgcc.a(_udivmodhi4.o)
 .data          0x0000000000800238        0x0 /home/moslevin/atmel/bin/../lib/gcc/avr/4.6.2/avr5/libgcc.a(_udivmodsi4.o)
 .data          0x0000000000800238        0x0 /home/moslevin/atmel/bin/../lib/gcc/avr/4.6.2/avr5/libgcc.a(_exit.o)
 .data          0x0000000000800238        0x0 /home/moslevin/atmel/bin/../lib/gcc/avr/4.6.2/avr5/libgcc.a(_copy_data.o)
 .data          0x0000000000800238        0x0 /home/moslevin/atmel/bin/../lib/gcc/avr/4.6.2/avr5/libgcc.a(_clear_bss.o)
 .data          0x0000000000800238        0x0 /home/moslevin/atmel/bin/../lib/gcc/avr/4.6.2/avr5/libgcc.a(_ctors.o)
 .data          0x0000000000800238        0x0 /home/moslevin/atmel/bin/../lib/gcc/avr/4.6.2/avr5/libgcc.a(_tablejump.o)
 .data          0x0000000000800238        0x0 /home/moslevin/atmel/bin/../lib/gcc/avr/4.6.2/../../../../avr/lib/avr5/libc.a(eerd_block_atmega328p.o)
 .data          0x0000000000800238        0x0 /home/moslevin/atmel/bin/../lib/gcc/avr/4.6.2/../../../../avr/lib/avr5/libc.a(eewr_block_atmega328p.o)
 .data          0x0000000000800238        0x0 /home/moslevin/atmel/bin/../lib/gcc/avr/4.6.2/../../../../avr/lib/avr5/libc.a(eewr_byte_atmega328p.o)
 *(.data*)
 *(.rodata)
 *(.rodata*)
 *(.gnu.linkonce.d*)
                0x0000000000800238                . = ALIGN (0x2)
                0x0000000000800238                _edata = .
                0x0000000000800238                PROVIDE (__data_end, .)

.bss            0x0000000000800238      0x3c1
                0x0000000000800238                PROVIDE (__bss_start, .)
 *(.bss)
 .bss           0x0000000000800238      0x2ed ./obj/avr/atmega328p/gcc/fizzybox.cpp.o
 .bss           0x0000000000800525        0xe /home/moslevin/m3/mark3/embedded/stage/lib/avr/atmega328p/gcc/libmark3.a(driver.cpp.o)
                0x0000000000800525                _ZN10DriverList14m_clDriverListE
 .bss           0x0000000000800533        0x1 /home/moslevin/m3/mark3/embedded/stage/lib/avr/atmega328p/gcc/libmark3.a(thread.cpp.o)
 .bss           0x0000000000800534        0x1 /home/moslevin/m3/mark3/embedded/stage/lib/avr/atmega328p/gcc/libmark3.a(kernel.cpp.o)
                0x0000000000800534                _ZN6Kernel12m_bIsStartedE
 .bss           0x0000000000800535        0xb /home/moslevin/m3/mark3/embedded/stage/lib/avr/atmega328p/gcc/libmark3.a(timerlist.cpp.o)
                0x0000000000800535                _ZN14TimerScheduler13m_clTimerListE
 .bss           0x0000000000800540        0x4 /home/moslevin/m3/mark3/embedded/stage/lib/avr/atmega328p/gcc/libmark3.a(kprofile.cpp.o)
                0x0000000000800540                _ZN8Profiler9m_ulEpochE
 .bss           0x0000000000800544       0x46 /home/moslevin/m3/mark3/embedded/stage/lib/avr/atmega328p/gcc/libmark3.a(message.cpp.o)
                0x0000000000800544                _ZN17GlobalMessagePool8m_clListE
                0x000000000080054a                _ZN17GlobalMessagePool16m_aclMessagePoolE
 .bss           0x000000000080058a       0x15 /home/moslevin/m3/mark3/embedded/stage/lib/avr/atmega328p/gcc/libmark3.a(quantum.cpp.o)
                0x000000000080058a                _ZN7Quantum9m_bActiveE
                0x000000000080058b                _ZN7Quantum16m_clQuantumTimerE
 .bss           0x000000000080059f       0x58 /home/moslevin/m3/mark3/embedded/stage/lib/avr/atmega328p/gcc/libmark3.a(scheduler.cpp.o)
                0x000000000080059f                g_ucFlag
                0x00000000008005a0                _ZN9Scheduler11m_ucPriFlagE
                0x00000000008005a1                _ZN9Scheduler15m_aclPrioritiesE
                0x00000000008005e9                _ZN9Scheduler12m_clStopListE
                0x00000000008005f2                _ZN9Scheduler10m_bEnabledE
                0x00000000008005f3                g_pstCurrent
                0x00000000008005f5                g_pstNext
 .bss           0x00000000008005f7        0x2 /home/moslevin/m3/mark3/embedded/stage/lib/avr/atmega328p/gcc/libdrvUART.a(drvUART.cpp.o)
 *(.bss*)
 *(COMMON)
                0x00000000008005f9                PROVIDE (__bss_end, .)
                0x0000000000003792                __data_load_start = LOADADDR (.data)
                0x00000000000038ca                __data_load_end = (__data_load_start + SIZEOF (.data))

.noinit         0x00000000008005f9        0x0
                0x00000000008005f9                PROVIDE (__noinit_start, .)
 *(.noinit*)
                0x00000000008005f9                PROVIDE (__noinit_end, .)
                0x00000000008005f9                _end = .
                0x00000000008005f9                PROVIDE (__heap_start, .)

.eeprom         0x0000000000810000        0x0
 *(.eeprom*)
                0x0000000000810000                __eeprom_end = .

.fuse
 *(.fuse)
 *(.lfuse)
 *(.hfuse)
 *(.efuse)

.lock
 *(.lock*)

.signature
 *(.signature*)

.stab           0x0000000000000000      0x6cc
 *(.stab)
 .stab          0x0000000000000000      0x6cc /home/moslevin/atmel/bin/../lib/gcc/avr/4.6.2/../../../../avr/lib/avr5/crtm328p.o

.stabstr        0x0000000000000000       0x85
 *(.stabstr)
 .stabstr       0x0000000000000000       0x85 /home/moslevin/atmel/bin/../lib/gcc/avr/4.6.2/../../../../avr/lib/avr5/crtm328p.o

.stab.excl
 *(.stab.excl)

.stab.exclstr
 *(.stab.exclstr)

.stab.index
 *(.stab.index)

.stab.indexstr
 *(.stab.indexstr)

.comment
 *(.comment)

.debug
 *(.debug)

.line
 *(.line)

.debug_srcinfo
 *(.debug_srcinfo)

.debug_sfnames
 *(.debug_sfnames)

.debug_aranges  0x0000000000000000      0x7d0
 *(.debug_aranges)
 .debug_aranges
                0x0000000000000000       0x58 ./obj/avr/atmega328p/gcc/fizzybox.cpp.o
 .debug_aranges
                0x0000000000000058       0x48 ./obj/avr/atmega328p/gcc/nlfs_eeprom.cpp.o
 .debug_aranges
                0x00000000000000a0       0x60 /home/moslevin/m3/mark3/embedded/stage/lib/avr/atmega328p/gcc/libmark3.a(driver.cpp.o)
 .debug_aranges
                0x0000000000000100       0x50 /home/moslevin/m3/mark3/embedded/stage/lib/avr/atmega328p/gcc/libmark3.a(ll.cpp.o)
 .debug_aranges
                0x0000000000000150       0x78 /home/moslevin/m3/mark3/embedded/stage/lib/avr/atmega328p/gcc/libmark3.a(thread.cpp.o)
 .debug_aranges
                0x00000000000001c8       0x48 /home/moslevin/m3/mark3/embedded/stage/lib/avr/atmega328p/gcc/libmark3.a(threadlist.cpp.o)
 .debug_aranges
                0x0000000000000210       0x28 /home/moslevin/m3/mark3/embedded/stage/lib/avr/atmega328p/gcc/libmark3.a(kernel.cpp.o)
 .debug_aranges
                0x0000000000000238       0x70 /home/moslevin/m3/mark3/embedded/stage/lib/avr/atmega328p/gcc/libmark3.a(timerlist.cpp.o)
 .debug_aranges
                0x00000000000002a8       0x38 /home/moslevin/m3/mark3/embedded/stage/lib/avr/atmega328p/gcc/libmark3.a(threadport.cpp.o)
 .debug_aranges
                0x00000000000002e0       0x50 /home/moslevin/m3/mark3/embedded/stage/lib/avr/atmega328p/gcc/libmark3.a(kernelswi.cpp.o)
 .debug_aranges
                0x0000000000000330       0x78 /home/moslevin/m3/mark3/embedded/stage/lib/avr/atmega328p/gcc/libmark3.a(kerneltimer.cpp.o)
 .debug_aranges
                0x00000000000003a8       0x48 /home/moslevin/m3/mark3/embedded/stage/lib/avr/atmega328p/gcc/libmark3.a(kprofile.cpp.o)
 .debug_aranges
                0x00000000000003f0       0x60 /home/moslevin/m3/mark3/embedded/stage/lib/avr/atmega328p/gcc/libmark3.a(message.cpp.o)
 .debug_aranges
                0x0000000000000450       0x48 /home/moslevin/m3/mark3/embedded/stage/lib/avr/atmega328p/gcc/libmark3.a(quantum.cpp.o)
 .debug_aranges
                0x0000000000000498       0x40 /home/moslevin/m3/mark3/embedded/stage/lib/avr/atmega328p/gcc/libmark3.a(scheduler.cpp.o)
 .debug_aranges
                0x00000000000004d8       0x58 /home/moslevin/m3/mark3/embedded/stage/lib/avr/atmega328p/gcc/libmark3.a(ksemaphore.cpp.o)
 .debug_aranges
                0x0000000000000530       0x28 /home/moslevin/m3/mark3/embedded/stage/lib/avr/atmega328p/gcc/libmark3.a(blocking.cpp.o)
 .debug_aranges
                0x0000000000000558       0x78 /home/moslevin/m3/mark3/embedded/stage/lib/avr/atmega328p/gcc/libdrvUART.a(drvUART.cpp.o)
 .debug_aranges
                0x00000000000005d0       0xf0 /home/moslevin/m3/mark3/embedded/stage/lib/avr/atmega328p/gcc/libnlfs.a(nlfs.cpp.o)
 .debug_aranges
                0x00000000000006c0       0x40 /home/moslevin/m3/mark3/embedded/stage/lib/avr/atmega328p/gcc/libnlfs.a(nlfs_file.cpp.o)
 .debug_aranges
                0x0000000000000700       0x98 /home/moslevin/m3/mark3/embedded/stage/lib/avr/atmega328p/gcc/libmemutil.a(memutil.cpp.o)
 .debug_aranges
                0x0000000000000798       0x38 /home/moslevin/m3/mark3/embedded/stage/lib/avr/atmega328p/gcc/libshell.a(shell_support.cpp.o)

.debug_pubnames
 *(.debug_pubnames)

.debug_info     0x0000000000000000     0xeb92
 *(.debug_info)
 .debug_info    0x0000000000000000     0x199c ./obj/avr/atmega328p/gcc/fizzybox.cpp.o
 .debug_info    0x000000000000199c      0xdec ./obj/avr/atmega328p/gcc/nlfs_eeprom.cpp.o
 .debug_info    0x0000000000002788      0xb0e /home/moslevin/m3/mark3/embedded/stage/lib/avr/atmega328p/gcc/libmark3.a(driver.cpp.o)
 .debug_info    0x0000000000003296      0x5a7 /home/moslevin/m3/mark3/embedded/stage/lib/avr/atmega328p/gcc/libmark3.a(ll.cpp.o)
 .debug_info    0x000000000000383d     0x13fd /home/moslevin/m3/mark3/embedded/stage/lib/avr/atmega328p/gcc/libmark3.a(thread.cpp.o)
 .debug_info    0x0000000000004c3a      0xa43 /home/moslevin/m3/mark3/embedded/stage/lib/avr/atmega328p/gcc/libmark3.a(threadlist.cpp.o)
 .debug_info    0x000000000000567d      0x5b5 /home/moslevin/m3/mark3/embedded/stage/lib/avr/atmega328p/gcc/libmark3.a(kernel.cpp.o)
 .debug_info    0x0000000000005c32      0xed3 /home/moslevin/m3/mark3/embedded/stage/lib/avr/atmega328p/gcc/libmark3.a(timerlist.cpp.o)
 .debug_info    0x0000000000006b05      0x699 /home/moslevin/m3/mark3/embedded/stage/lib/avr/atmega328p/gcc/libmark3.a(threadport.cpp.o)
 .debug_info    0x000000000000719e      0x192 /home/moslevin/m3/mark3/embedded/stage/lib/avr/atmega328p/gcc/libmark3.a(kernelswi.cpp.o)
 .debug_info    0x0000000000007330      0x320 /home/moslevin/m3/mark3/embedded/stage/lib/avr/atmega328p/gcc/libmark3.a(kerneltimer.cpp.o)
 .debug_info    0x0000000000007650      0x64b /home/moslevin/m3/mark3/embedded/stage/lib/avr/atmega328p/gcc/libmark3.a(kprofile.cpp.o)
 .debug_info    0x0000000000007c9b      0xdaf /home/moslevin/m3/mark3/embedded/stage/lib/avr/atmega328p/gcc/libmark3.a(message.cpp.o)
 .debug_info    0x0000000000008a4a      0xcde /home/moslevin/m3/mark3/embedded/stage/lib/avr/atmega328p/gcc/libmark3.a(quantum.cpp.o)
 .debug_info    0x0000000000009728      0x9b2 /home/moslevin/m3/mark3/embedded/stage/lib/avr/atmega328p/gcc/libmark3.a(scheduler.cpp.o)
 .debug_info    0x000000000000a0da      0xe16 /home/moslevin/m3/mark3/embedded/stage/lib/avr/atmega328p/gcc/libmark3.a(ksemaphore.cpp.o)
 .debug_info    0x000000000000aef0      0x673 /home/moslevin/m3/mark3/embedded/stage/lib/avr/atmega328p/gcc/libmark3.a(blocking.cpp.o)
 .debug_info    0x000000000000b563      0xed6 /home/moslevin/m3/mark3/embedded/stage/lib/avr/atmega328p/gcc/libdrvUART.a(drvUART.cpp.o)
 .debug_info    0x000000000000c439     0x1268 /home/moslevin/m3/mark3/embedded/stage/lib/avr/atmega328p/gcc/libnlfs.a(nlfs.cpp.o)
 .debug_info    0x000000000000d6a1      0x772 /home/moslevin/m3/mark3/embedded/stage/lib/avr/atmega328p/gcc/libnlfs.a(nlfs_file.cpp.o)
 .debug_info    0x000000000000de13      0x988 /home/moslevin/m3/mark3/embedded/stage/lib/avr/atmega328p/gcc/libmemutil.a(memutil.cpp.o)
 .debug_info    0x000000000000e79b      0x3f7 /home/moslevin/m3/mark3/embedded/stage/lib/avr/atmega328p/gcc/libshell.a(shell_support.cpp.o)
 *(.gnu.linkonce.wi.*)

.debug_abbrev   0x0000000000000000     0x4279
 *(.debug_abbrev)
 .debug_abbrev  0x0000000000000000      0x5b4 ./obj/avr/atmega328p/gcc/fizzybox.cpp.o
 .debug_abbrev  0x00000000000005b4      0x2b5 ./obj/avr/atmega328p/gcc/nlfs_eeprom.cpp.o
 .debug_abbrev  0x0000000000000869      0x3a8 /home/moslevin/m3/mark3/embedded/stage/lib/avr/atmega328p/gcc/libmark3.a(driver.cpp.o)
 .debug_abbrev  0x0000000000000c11      0x272 /home/moslevin/m3/mark3/embedded/stage/lib/avr/atmega328p/gcc/libmark3.a(ll.cpp.o)
 .debug_abbrev  0x0000000000000e83      0x4b9 /home/moslevin/m3/mark3/embedded/stage/lib/avr/atmega328p/gcc/libmark3.a(thread.cpp.o)
 .debug_abbrev  0x000000000000133c      0x349 /home/moslevin/m3/mark3/embedded/stage/lib/avr/atmega328p/gcc/libmark3.a(threadlist.cpp.o)
 .debug_abbrev  0x0000000000001685      0x22b /home/moslevin/m3/mark3/embedded/stage/lib/avr/atmega328p/gcc/libmark3.a(kernel.cpp.o)
 .debug_abbrev  0x00000000000018b0      0x4b2 /home/moslevin/m3/mark3/embedded/stage/lib/avr/atmega328p/gcc/libmark3.a(timerlist.cpp.o)
 .debug_abbrev  0x0000000000001d62      0x2e0 /home/moslevin/m3/mark3/embedded/stage/lib/avr/atmega328p/gcc/libmark3.a(threadport.cpp.o)
 .debug_abbrev  0x0000000000002042       0xd2 /home/moslevin/m3/mark3/embedded/stage/lib/avr/atmega328p/gcc/libmark3.a(kernelswi.cpp.o)
 .debug_abbrev  0x0000000000002114      0x14f /home/moslevin/m3/mark3/embedded/stage/lib/avr/atmega328p/gcc/libmark3.a(kerneltimer.cpp.o)
 .debug_abbrev  0x0000000000002263      0x268 /home/moslevin/m3/mark3/embedded/stage/lib/avr/atmega328p/gcc/libmark3.a(kprofile.cpp.o)
 .debug_abbrev  0x00000000000024cb      0x40c /home/moslevin/m3/mark3/embedded/stage/lib/avr/atmega328p/gcc/libmark3.a(message.cpp.o)
 .debug_abbrev  0x00000000000028d7      0x43f /home/moslevin/m3/mark3/embedded/stage/lib/avr/atmega328p/gcc/libmark3.a(quantum.cpp.o)
 .debug_abbrev  0x0000000000002d16      0x3c4 /home/moslevin/m3/mark3/embedded/stage/lib/avr/atmega328p/gcc/libmark3.a(scheduler.cpp.o)
 .debug_abbrev  0x00000000000030da      0x40c /home/moslevin/m3/mark3/embedded/stage/lib/avr/atmega328p/gcc/libmark3.a(ksemaphore.cpp.o)
 .debug_abbrev  0x00000000000034e6      0x23e /home/moslevin/m3/mark3/embedded/stage/lib/avr/atmega328p/gcc/libmark3.a(blocking.cpp.o)
 .debug_abbrev  0x0000000000003724      0x3a6 /home/moslevin/m3/mark3/embedded/stage/lib/avr/atmega328p/gcc/libdrvUART.a(drvUART.cpp.o)
 .debug_abbrev  0x0000000000003aca      0x2cc /home/moslevin/m3/mark3/embedded/stage/lib/avr/atmega328p/gcc/libnlfs.a(nlfs.cpp.o)
 .debug_abbrev  0x0000000000003d96      0x1fd /home/moslevin/m3/mark3/embedded/stage/lib/avr/atmega328p/gcc/libnlfs.a(nlfs_file.cpp.o)
 .debug_abbrev  0x0000000000003f93      0x1a6 /home/moslevin/m3/mark3/embedded/stage/lib/avr/atmega328p/gcc/libmemutil.a(memutil.cpp.o)
 .debug_abbrev  0x0000000000004139      0x140 /home/moslevin/m3/mark3/embedded/stage/lib/avr/atmega328p/gcc/libshell.a(shell_support.cpp.o)

.debug_line     0x0000000000000000     0x29d0
 *(.debug_line)
 .debug_line    0x0000000000000000      0x268 ./obj/avr/atmega328p/gcc/fizzybox.cpp.o
 .debug_line    0x0000000000000268      0x177 ./obj/avr/atmega328p/gcc/nlfs_eeprom.cpp.o
 .debug_line    0x00000000000003df      0x18d /home/moslevin/m3/mark3/embedded/stage/lib/avr/atmega328p/gcc/libmark3.a(driver.cpp.o)
 .debug_line    0x000000000000056c      0x10c /home/moslevin/m3/mark3/embedded/stage/lib/avr/atmega328p/gcc/libmark3.a(ll.cpp.o)
 .debug_line    0x0000000000000678      0x2e8 /home/moslevin/m3/mark3/embedded/stage/lib/avr/atmega328p/gcc/libmark3.a(thread.cpp.o)
 .debug_line    0x0000000000000960      0x163 /home/moslevin/m3/mark3/embedded/stage/lib/avr/atmega328p/gcc/libmark3.a(threadlist.cpp.o)
 .debug_line    0x0000000000000ac3      0x116 /home/moslevin/m3/mark3/embedded/stage/lib/avr/atmega328p/gcc/libmark3.a(kernel.cpp.o)
 .debug_line    0x0000000000000bd9      0x22f /home/moslevin/m3/mark3/embedded/stage/lib/avr/atmega328p/gcc/libmark3.a(timerlist.cpp.o)
 .debug_line    0x0000000000000e08      0x1a7 /home/moslevin/m3/mark3/embedded/stage/lib/avr/atmega328p/gcc/libmark3.a(threadport.cpp.o)
 .debug_line    0x0000000000000faf      0x14d /home/moslevin/m3/mark3/embedded/stage/lib/avr/atmega328p/gcc/libmark3.a(kernelswi.cpp.o)
 .debug_line    0x00000000000010fc      0x1c7 /home/moslevin/m3/mark3/embedded/stage/lib/avr/atmega328p/gcc/libmark3.a(kerneltimer.cpp.o)
 .debug_line    0x00000000000012c3      0x166 /home/moslevin/m3/mark3/embedded/stage/lib/avr/atmega328p/gcc/libmark3.a(kprofile.cpp.o)
 .debug_line    0x0000000000001429      0x1d6 /home/moslevin/m3/mark3/embedded/stage/lib/avr/atmega328p/gcc/libmark3.a(message.cpp.o)
 .debug_line    0x00000000000015ff      0x196 /home/moslevin/m3/mark3/embedded/stage/lib/avr/atmega328p/gcc/libmark3.a(quantum.cpp.o)
 .debug_line    0x0000000000001795      0x175 /home/moslevin/m3/mark3/embedded/stage/lib/avr/atmega328p/gcc/libmark3.a(scheduler.cpp.o)
 .debug_line    0x000000000000190a      0x1d5 /home/moslevin/m3/mark3/embedded/stage/lib/avr/atmega328p/gcc/libmark3.a(ksemaphore.cpp.o)
 .debug_line    0x0000000000001adf      0x117 /home/moslevin/m3/mark3/embedded/stage/lib/avr/atmega328p/gcc/libmark3.a(blocking.cpp.o)
 .debug_line    0x0000000000001bf6      0x238 /home/moslevin/m3/mark3/embedded/stage/lib/avr/atmega328p/gcc/libdrvUART.a(drvUART.cpp.o)
 .debug_line    0x0000000000001e2e      0x4af /home/moslevin/m3/mark3/embedded/stage/lib/avr/atmega328p/gcc/libnlfs.a(nlfs.cpp.o)
 .debug_line    0x00000000000022dd      0x20c /home/moslevin/m3/mark3/embedded/stage/lib/avr/atmega328p/gcc/libnlfs.a(nlfs_file.cpp.o)
 .debug_line    0x00000000000024e9      0x317 /home/moslevin/m3/mark3/embedded/stage/lib/avr/atmega328p/gcc/libmemutil.a(memutil.cpp.o)
 .debug_line    0x0000000000002800      0x1d0 /home/moslevin/m3/mark3/embedded/stage/lib/avr/atmega328p/gcc/libshell.a(shell_support.cpp.o)

.debug_frame    0x0000000000000000     0x1a50
 *(.debug_frame)
 .debug_frame   0x0000000000000000      0x160 ./obj/avr/atmega328p/gcc/fizzybox.cpp.o
 .debug_frame   0x0000000000000160      0x12c ./obj/avr/atmega328p/gcc/nlfs_eeprom.cpp.o
 .debug_frame   0x000000000000028c       0xb0 /home/moslevin/m3/mark3/embedded/stage/lib/avr/atmega328p/gcc/libmark3.a(driver.cpp.o)
 .debug_frame   0x000000000000033c       0xb4 /home/moslevin/m3/mark3/embedded/stage/lib/avr/atmega328p/gcc/libmark3.a(ll.cpp.o)
 .debug_frame   0x00000000000003f0      0x1e4 /home/moslevin/m3/mark3/embedded/stage/lib/avr/atmega328p/gcc/libmark3.a(thread.cpp.o)
 .debug_frame   0x00000000000005d4       0x8c /home/moslevin/m3/mark3/embedded/stage/lib/avr/atmega328p/gcc/libmark3.a(threadlist.cpp.o)
 .debug_frame   0x0000000000000660       0x34 /home/moslevin/m3/mark3/embedded/stage/lib/avr/atmega328p/gcc/libmark3.a(kernel.cpp.o)
 .debug_frame   0x0000000000000694      0x180 /home/moslevin/m3/mark3/embedded/stage/lib/avr/atmega328p/gcc/libmark3.a(timerlist.cpp.o)
 .debug_frame   0x0000000000000814       0xa8 /home/moslevin/m3/mark3/embedded/stage/lib/avr/atmega328p/gcc/libmark3.a(threadport.cpp.o)
 .debug_frame   0x00000000000008bc       0x84 /home/moslevin/m3/mark3/embedded/stage/lib/avr/atmega328p/gcc/libmark3.a(kernelswi.cpp.o)
 .debug_frame   0x0000000000000940       0xf0 /home/moslevin/m3/mark3/embedded/stage/lib/avr/atmega328p/gcc/libmark3.a(kerneltimer.cpp.o)
 .debug_frame   0x0000000000000a30       0xdc /home/moslevin/m3/mark3/embedded/stage/lib/avr/atmega328p/gcc/libmark3.a(kprofile.cpp.o)
 .debug_frame   0x0000000000000b0c      0x140 /home/moslevin/m3/mark3/embedded/stage/lib/avr/atmega328p/gcc/libmark3.a(message.cpp.o)
 .debug_frame   0x0000000000000c4c       0x80 /home/moslevin/m3/mark3/embedded/stage/lib/avr/atmega328p/gcc/libmark3.a(quantum.cpp.o)
 .debug_frame   0x0000000000000ccc       0x78 /home/moslevin/m3/mark3/embedded/stage/lib/avr/atmega328p/gcc/libmark3.a(scheduler.cpp.o)
 .debug_frame   0x0000000000000d44      0x120 /home/moslevin/m3/mark3/embedded/stage/lib/avr/atmega328p/gcc/libmark3.a(ksemaphore.cpp.o)
 .debug_frame   0x0000000000000e64       0x54 /home/moslevin/m3/mark3/embedded/stage/lib/avr/atmega328p/gcc/libmark3.a(blocking.cpp.o)
 .debug_frame   0x0000000000000eb8      0x1ec /home/moslevin/m3/mark3/embedded/stage/lib/avr/atmega328p/gcc/libdrvUART.a(drvUART.cpp.o)
 .debug_frame   0x00000000000010a4      0x570 /home/moslevin/m3/mark3/embedded/stage/lib/avr/atmega328p/gcc/libnlfs.a(nlfs.cpp.o)
 .debug_frame   0x0000000000001614      0x1ac /home/moslevin/m3/mark3/embedded/stage/lib/avr/atmega328p/gcc/libnlfs.a(nlfs_file.cpp.o)
 .debug_frame   0x00000000000017c0      0x1a8 /home/moslevin/m3/mark3/embedded/stage/lib/avr/atmega328p/gcc/libmemutil.a(memutil.cpp.o)
 .debug_frame   0x0000000000001968       0xe8 /home/moslevin/m3/mark3/embedded/stage/lib/avr/atmega328p/gcc/libshell.a(shell_support.cpp.o)

.debug_str      0x0000000000000000     0x3506
 *(.debug_str)
 .debug_str     0x0000000000000000     0x1296 ./obj/avr/atmega328p/gcc/fizzybox.cpp.o
                                       0x1473 (size before relaxing)
 .debug_str     0x0000000000001296      0x186 ./obj/avr/atmega328p/gcc/nlfs_eeprom.cpp.o
                                        0xbde (size before relaxing)
 .debug_str     0x000000000000141c      0x282 /home/moslevin/m3/mark3/embedded/stage/lib/avr/atmega328p/gcc/libmark3.a(driver.cpp.o)
                                        0x552 (size before relaxing)
 .debug_str     0x000000000000169e      0x130 /home/moslevin/m3/mark3/embedded/stage/lib/avr/atmega328p/gcc/libmark3.a(ll.cpp.o)
                                        0x347 (size before relaxing)
 .debug_str     0x00000000000017ce      0x572 /home/moslevin/m3/mark3/embedded/stage/lib/avr/atmega328p/gcc/libmark3.a(thread.cpp.o)
                                        0xbed (size before relaxing)
 .debug_str     0x0000000000001d40      0x127 /home/moslevin/m3/mark3/embedded/stage/lib/avr/atmega328p/gcc/libmark3.a(threadlist.cpp.o)
                                        0x764 (size before relaxing)
 .debug_str     0x0000000000001e67       0x72 /home/moslevin/m3/mark3/embedded/stage/lib/avr/atmega328p/gcc/libmark3.a(kernel.cpp.o)
                                        0x5c0 (size before relaxing)
 .debug_str     0x0000000000001ed9      0x18f /home/moslevin/m3/mark3/embedded/stage/lib/avr/atmega328p/gcc/libmark3.a(timerlist.cpp.o)
                                        0xa96 (size before relaxing)
 .debug_str     0x0000000000002068      0x130 /home/moslevin/m3/mark3/embedded/stage/lib/avr/atmega328p/gcc/libmark3.a(threadport.cpp.o)
                                        0x684 (size before relaxing)
 .debug_str     0x0000000000002198       0xda /home/moslevin/m3/mark3/embedded/stage/lib/avr/atmega328p/gcc/libmark3.a(kernelswi.cpp.o)
                                        0x19c (size before relaxing)
 .debug_str     0x0000000000002272      0x1f0 /home/moslevin/m3/mark3/embedded/stage/lib/avr/atmega328p/gcc/libmark3.a(kerneltimer.cpp.o)
                                        0x2d0 (size before relaxing)
 .debug_str     0x0000000000002462       0xc9 /home/moslevin/m3/mark3/embedded/stage/lib/avr/atmega328p/gcc/libmark3.a(kprofile.cpp.o)
                                        0x60e (size before relaxing)
 .debug_str     0x000000000000252b      0x272 /home/moslevin/m3/mark3/embedded/stage/lib/avr/atmega328p/gcc/libmark3.a(message.cpp.o)
                                        0xad4 (size before relaxing)
 .debug_str     0x000000000000279d      0x12d /home/moslevin/m3/mark3/embedded/stage/lib/avr/atmega328p/gcc/libmark3.a(quantum.cpp.o)
                                        0xa57 (size before relaxing)
 .debug_str     0x00000000000028ca      0x14c /home/moslevin/m3/mark3/embedded/stage/lib/avr/atmega328p/gcc/libmark3.a(scheduler.cpp.o)
                                        0x7d1 (size before relaxing)
 .debug_str     0x0000000000002a16       0xc2 /home/moslevin/m3/mark3/embedded/stage/lib/avr/atmega328p/gcc/libmark3.a(ksemaphore.cpp.o)
                                        0xacf (size before relaxing)
 .debug_str     0x0000000000002ad8        0xd /home/moslevin/m3/mark3/embedded/stage/lib/avr/atmega328p/gcc/libmark3.a(blocking.cpp.o)
                                        0x5cf (size before relaxing)
 .debug_str     0x0000000000002ae5      0x2d1 /home/moslevin/m3/mark3/embedded/stage/lib/avr/atmega328p/gcc/libdrvUART.a(drvUART.cpp.o)
                                        0x9b0 (size before relaxing)
 .debug_str     0x0000000000002db6      0x162 /home/moslevin/m3/mark3/embedded/stage/lib/avr/atmega328p/gcc/libnlfs.a(nlfs.cpp.o)
                                        0x977 (size before relaxing)
 .debug_str     0x0000000000002f18       0x50 /home/moslevin/m3/mark3/embedded/stage/lib/avr/atmega328p/gcc/libnlfs.a(nlfs_file.cpp.o)
                                        0x515 (size before relaxing)
 .debug_str     0x0000000000002f68      0x3d9 /home/moslevin/m3/mark3/embedded/stage/lib/avr/atmega328p/gcc/libmemutil.a(memutil.cpp.o)
                                        0x4cc (size before relaxing)
 .debug_str     0x0000000000003341      0x1c5 /home/moslevin/m3/mark3/embedded/stage/lib/avr/atmega328p/gcc/libshell.a(shell_support.cpp.o)
                                        0x351 (size before relaxing)

.debug_loc      0x0000000000000000     0x6e44
 *(.debug_loc)
 .debug_loc     0x0000000000000000      0x458 ./obj/avr/atmega328p/gcc/fizzybox.cpp.o
 .debug_loc     0x0000000000000458      0x716 ./obj/avr/atmega328p/gcc/nlfs_eeprom.cpp.o
 .debug_loc     0x0000000000000b6e      0x16c /home/moslevin/m3/mark3/embedded/stage/lib/avr/atmega328p/gcc/libmark3.a(driver.cpp.o)
 .debug_loc     0x0000000000000cda      0x24c /home/moslevin/m3/mark3/embedded/stage/lib/avr/atmega328p/gcc/libmark3.a(ll.cpp.o)
 .debug_loc     0x0000000000000f26      0x873 /home/moslevin/m3/mark3/embedded/stage/lib/avr/atmega328p/gcc/libmark3.a(thread.cpp.o)
 .debug_loc     0x0000000000001799      0x22b /home/moslevin/m3/mark3/embedded/stage/lib/avr/atmega328p/gcc/libmark3.a(threadlist.cpp.o)
 .debug_loc     0x00000000000019c4      0x699 /home/moslevin/m3/mark3/embedded/stage/lib/avr/atmega328p/gcc/libmark3.a(timerlist.cpp.o)
 .debug_loc     0x000000000000205d      0x22f /home/moslevin/m3/mark3/embedded/stage/lib/avr/atmega328p/gcc/libmark3.a(threadport.cpp.o)
 .debug_loc     0x000000000000228c       0x17 /home/moslevin/m3/mark3/embedded/stage/lib/avr/atmega328p/gcc/libmark3.a(kernelswi.cpp.o)
 .debug_loc     0x00000000000022a3      0x1af /home/moslevin/m3/mark3/embedded/stage/lib/avr/atmega328p/gcc/libmark3.a(kerneltimer.cpp.o)
 .debug_loc     0x0000000000002452      0x199 /home/moslevin/m3/mark3/embedded/stage/lib/avr/atmega328p/gcc/libmark3.a(kprofile.cpp.o)
 .debug_loc     0x00000000000025eb      0x40c /home/moslevin/m3/mark3/embedded/stage/lib/avr/atmega328p/gcc/libmark3.a(message.cpp.o)
 .debug_loc     0x00000000000029f7       0xe5 /home/moslevin/m3/mark3/embedded/stage/lib/avr/atmega328p/gcc/libmark3.a(quantum.cpp.o)
 .debug_loc     0x0000000000002adc      0x100 /home/moslevin/m3/mark3/embedded/stage/lib/avr/atmega328p/gcc/libmark3.a(scheduler.cpp.o)
 .debug_loc     0x0000000000002bdc      0x4ae /home/moslevin/m3/mark3/embedded/stage/lib/avr/atmega328p/gcc/libmark3.a(ksemaphore.cpp.o)
 .debug_loc     0x000000000000308a      0x144 /home/moslevin/m3/mark3/embedded/stage/lib/avr/atmega328p/gcc/libmark3.a(blocking.cpp.o)
 .debug_loc     0x00000000000031ce      0x885 /home/moslevin/m3/mark3/embedded/stage/lib/avr/atmega328p/gcc/libdrvUART.a(drvUART.cpp.o)
 .debug_loc     0x0000000000003a53     0x18f5 /home/moslevin/m3/mark3/embedded/stage/lib/avr/atmega328p/gcc/libnlfs.a(nlfs.cpp.o)
 .debug_loc     0x0000000000005348      0xa1b /home/moslevin/m3/mark3/embedded/stage/lib/avr/atmega328p/gcc/libnlfs.a(nlfs_file.cpp.o)
 .debug_loc     0x0000000000005d63      0xc50 /home/moslevin/m3/mark3/embedded/stage/lib/avr/atmega328p/gcc/libmemutil.a(memutil.cpp.o)
 .debug_loc     0x00000000000069b3      0x491 /home/moslevin/m3/mark3/embedded/stage/lib/avr/atmega328p/gcc/libshell.a(shell_support.cpp.o)

.debug_macinfo
 *(.debug_macinfo)
OUTPUT(./obj/avr/atmega328p/gcc/fizzybox.elf elf32-avr)
LOAD linker stubs

.debug_ranges   0x0000000000000000      0x6c8
 .debug_ranges  0x0000000000000000       0x48 ./obj/avr/atmega328p/gcc/fizzybox.cpp.o
 .debug_ranges  0x0000000000000048       0x38 ./obj/avr/atmega328p/gcc/nlfs_eeprom.cpp.o
 .debug_ranges  0x0000000000000080       0x50 /home/moslevin/m3/mark3/embedded/stage/lib/avr/atmega328p/gcc/libmark3.a(driver.cpp.o)
 .debug_ranges  0x00000000000000d0       0x40 /home/moslevin/m3/mark3/embedded/stage/lib/avr/atmega328p/gcc/libmark3.a(ll.cpp.o)
 .debug_ranges  0x0000000000000110       0x68 /home/moslevin/m3/mark3/embedded/stage/lib/avr/atmega328p/gcc/libmark3.a(thread.cpp.o)
 .debug_ranges  0x0000000000000178       0x50 /home/moslevin/m3/mark3/embedded/stage/lib/avr/atmega328p/gcc/libmark3.a(threadlist.cpp.o)
 .debug_ranges  0x00000000000001c8       0x18 /home/moslevin/m3/mark3/embedded/stage/lib/avr/atmega328p/gcc/libmark3.a(kernel.cpp.o)
 .debug_ranges  0x00000000000001e0       0x60 /home/moslevin/m3/mark3/embedded/stage/lib/avr/atmega328p/gcc/libmark3.a(timerlist.cpp.o)
 .debug_ranges  0x0000000000000240       0x28 /home/moslevin/m3/mark3/embedded/stage/lib/avr/atmega328p/gcc/libmark3.a(threadport.cpp.o)
 .debug_ranges  0x0000000000000268       0x40 /home/moslevin/m3/mark3/embedded/stage/lib/avr/atmega328p/gcc/libmark3.a(kernelswi.cpp.o)
 .debug_ranges  0x00000000000002a8       0x68 /home/moslevin/m3/mark3/embedded/stage/lib/avr/atmega328p/gcc/libmark3.a(kerneltimer.cpp.o)
 .debug_ranges  0x0000000000000310       0x38 /home/moslevin/m3/mark3/embedded/stage/lib/avr/atmega328p/gcc/libmark3.a(kprofile.cpp.o)
 .debug_ranges  0x0000000000000348       0x50 /home/moslevin/m3/mark3/embedded/stage/lib/avr/atmega328p/gcc/libmark3.a(message.cpp.o)
 .debug_ranges  0x0000000000000398       0x38 /home/moslevin/m3/mark3/embedded/stage/lib/avr/atmega328p/gcc/libmark3.a(quantum.cpp.o)
 .debug_ranges  0x00000000000003d0       0x30 /home/moslevin/m3/mark3/embedded/stage/lib/avr/atmega328p/gcc/libmark3.a(scheduler.cpp.o)
 .debug_ranges  0x0000000000000400       0x48 /home/moslevin/m3/mark3/embedded/stage/lib/avr/atmega328p/gcc/libmark3.a(ksemaphore.cpp.o)
 .debug_ranges  0x0000000000000448       0x18 /home/moslevin/m3/mark3/embedded/stage/lib/avr/atmega328p/gcc/libmark3.a(blocking.cpp.o)
 .debug_ranges  0x0000000000000460       0x68 /home/moslevin/m3/mark3/embedded/stage/lib/avr/atmega328p/gcc/libdrvUART.a(drvUART.cpp.o)
 .debug_ranges  0x00000000000004c8      0x108 /home/moslevin/m3/mark3/embedded/stage/lib/avr/atmega328p/gcc/libnlfs.a(nlfs.cpp.o)
 .debug_ranges  0x00000000000005d0       0x48 /home/moslevin/m3/mark3/embedded/stage/lib/avr/atmega328p/gcc/libnlfs.a(nlfs_file.cpp.o)
 .debug_ranges  0x0000000000000618       0x88 /home/moslevin/m3/mark3/embedded/stage/lib/avr/atmega328p/gcc/libmemutil.a(memutil.cpp.o)
 .debug_ranges  0x00000000000006a0       0x28 /home/moslevin/m3/mark3/embedded/stage/lib/avr/atmega328p/gcc/libshell.a(shell_support.cpp.o)
