Archive member included because of file (symbol)

/home/moslevin/m3/mark3/embedded/stage/lib/avr/atmega328p/gcc/libmark3.a(driver.cpp.o)
                              ./obj/avr/atmega328p/gcc/../ut_platform.cpp.o (_ZN10DriverList14m_clDriverListE)
/home/moslevin/m3/mark3/embedded/stage/lib/avr/atmega328p/gcc/libmark3.a(ll.cpp.o)
                              ./obj/avr/atmega328p/gcc/../ut_platform.cpp.o (_ZN14DoubleLinkList3AddEP12LinkListNode)
/home/moslevin/m3/mark3/embedded/stage/lib/avr/atmega328p/gcc/libmark3.a(profile.cpp.o)
                              ./obj/avr/atmega328p/gcc/ut_timers.cpp.o (_ZN12ProfileTimer4InitEv)
/home/moslevin/m3/mark3/embedded/stage/lib/avr/atmega328p/gcc/libmark3.a(ksemaphore.cpp.o)
                              ./obj/avr/atmega328p/gcc/ut_timers.cpp.o (_ZN9Semaphore4InitEjj)
/home/moslevin/m3/mark3/embedded/stage/lib/avr/atmega328p/gcc/libmark3.a(thread.cpp.o)
                              ./obj/avr/atmega328p/gcc/../ut_platform.cpp.o (_ZN6Thread4InitEPhjhPFvPvES1_)
/home/moslevin/m3/mark3/embedded/stage/lib/avr/atmega328p/gcc/libmark3.a(threadlist.cpp.o)
                              /home/moslevin/m3/mark3/embedded/stage/lib/avr/atmega328p/gcc/libmark3.a(ksemaphore.cpp.o) (_ZN10ThreadList13HighestWaiterEv)
/home/moslevin/m3/mark3/embedded/stage/lib/avr/atmega328p/gcc/libmark3.a(kernel.cpp.o)
                              ./obj/avr/atmega328p/gcc/../ut_platform.cpp.o (_ZN6Kernel4InitEv)
/home/moslevin/m3/mark3/embedded/stage/lib/avr/atmega328p/gcc/libmark3.a(timerlist.cpp.o)
                              /home/moslevin/m3/mark3/embedded/stage/lib/avr/atmega328p/gcc/libmark3.a(kernel.cpp.o) (_ZN9TimerList4InitEv)
/home/moslevin/m3/mark3/embedded/stage/lib/avr/atmega328p/gcc/libmark3.a(threadport.cpp.o)
                              /home/moslevin/m3/mark3/embedded/stage/lib/avr/atmega328p/gcc/libmark3.a(thread.cpp.o) (_ZN10ThreadPort9InitStackEP6Thread)
/home/moslevin/m3/mark3/embedded/stage/lib/avr/atmega328p/gcc/libmark3.a(kernelswi.cpp.o)
                              /home/moslevin/m3/mark3/embedded/stage/lib/avr/atmega328p/gcc/libmark3.a(threadport.cpp.o) (_ZN9KernelSWI6ConfigEv)
/home/moslevin/m3/mark3/embedded/stage/lib/avr/atmega328p/gcc/libmark3.a(kerneltimer.cpp.o)
                              /home/moslevin/m3/mark3/embedded/stage/lib/avr/atmega328p/gcc/libmark3.a(threadport.cpp.o) (_ZN11KernelTimer6ConfigEv)
/home/moslevin/m3/mark3/embedded/stage/lib/avr/atmega328p/gcc/libmark3.a(kprofile.cpp.o)
                              /home/moslevin/m3/mark3/embedded/stage/lib/avr/atmega328p/gcc/libmark3.a(kernel.cpp.o) (_ZN8Profiler4InitEv)
/home/moslevin/m3/mark3/embedded/stage/lib/avr/atmega328p/gcc/libmark3.a(blocking.cpp.o)
                              /home/moslevin/m3/mark3/embedded/stage/lib/avr/atmega328p/gcc/libmark3.a(ksemaphore.cpp.o) (_ZN14BlockingObject5BlockEP6Thread)
/home/moslevin/m3/mark3/embedded/stage/lib/avr/atmega328p/gcc/libmark3.a(message.cpp.o)
                              /home/moslevin/m3/mark3/embedded/stage/lib/avr/atmega328p/gcc/libmark3.a(kernel.cpp.o) (_ZN17GlobalMessagePool4InitEv)
/home/moslevin/m3/mark3/embedded/stage/lib/avr/atmega328p/gcc/libmark3.a(quantum.cpp.o)
                              /home/moslevin/m3/mark3/embedded/stage/lib/avr/atmega328p/gcc/libmark3.a(thread.cpp.o) (_ZN7Quantum9AddThreadEP6Thread)
/home/moslevin/m3/mark3/embedded/stage/lib/avr/atmega328p/gcc/libmark3.a(scheduler.cpp.o)
                              /home/moslevin/m3/mark3/embedded/stage/lib/avr/atmega328p/gcc/libmark3.a(kernel.cpp.o) (_ZN9Scheduler4InitEv)
/home/moslevin/m3/mark3/embedded/stage/lib/avr/atmega328p/gcc/libdrvUART.a(drvUART.cpp.o)
                              ./obj/avr/atmega328p/gcc/../ut_platform.cpp.o (_ZN10ATMegaUART4InitEv)
/home/moslevin/m3/mark3/embedded/stage/lib/avr/atmega328p/gcc/libunit_test.a(unit_test.cpp.o)
                              ./obj/avr/atmega328p/gcc/ut_timers.cpp.o (_ZN8UnitTestC2Ev)
/home/moslevin/m3/mark3/embedded/stage/lib/avr/atmega328p/gcc/libmemutil.a(memutil.cpp.o)
                              ./obj/avr/atmega328p/gcc/../ut_platform.cpp.o (_ZN7MemUtil15DecimalToStringEjPc)
/home/moslevin/atmel/bin/../lib/gcc/avr/4.6.2/avr5/libgcc.a(_mulsi3.o)
                              ./obj/avr/atmega328p/gcc/ut_timers.cpp.o (__mulsi3)
/home/moslevin/atmel/bin/../lib/gcc/avr/4.6.2/avr5/libgcc.a(_udivmodqi4.o)
                              /home/moslevin/m3/mark3/embedded/stage/lib/avr/atmega328p/gcc/libmemutil.a(memutil.cpp.o) (__udivmodqi4)
/home/moslevin/atmel/bin/../lib/gcc/avr/4.6.2/avr5/libgcc.a(_udivmodhi4.o)
                              /home/moslevin/m3/mark3/embedded/stage/lib/avr/atmega328p/gcc/libmemutil.a(memutil.cpp.o) (__udivmodhi4)
/home/moslevin/atmel/bin/../lib/gcc/avr/4.6.2/avr5/libgcc.a(_udivmodsi4.o)
                              /home/moslevin/m3/mark3/embedded/stage/lib/avr/atmega328p/gcc/libmark3.a(profile.cpp.o) (__udivmodsi4)
/home/moslevin/atmel/bin/../lib/gcc/avr/4.6.2/avr5/libgcc.a(_exit.o)
                              /home/moslevin/atmel/bin/../lib/gcc/avr/4.6.2/../../../../avr/lib/avr5/crtm328p.o (exit)
/home/moslevin/atmel/bin/../lib/gcc/avr/4.6.2/avr5/libgcc.a(_copy_data.o)
                              ./obj/avr/atmega328p/gcc/ut_timers.cpp.o (__do_copy_data)
/home/moslevin/atmel/bin/../lib/gcc/avr/4.6.2/avr5/libgcc.a(_clear_bss.o)
                              ./obj/avr/atmega328p/gcc/ut_timers.cpp.o (__do_clear_bss)
/home/moslevin/atmel/bin/../lib/gcc/avr/4.6.2/avr5/libgcc.a(_ctors.o)
                              ./obj/avr/atmega328p/gcc/ut_timers.cpp.o (__do_global_ctors)
/home/moslevin/atmel/bin/../lib/gcc/avr/4.6.2/avr5/libgcc.a(_tablejump.o)
                              /home/moslevin/atmel/bin/../lib/gcc/avr/4.6.2/avr5/libgcc.a(_ctors.o) (__tablejump__)

Discarded input sections

 .bss           0x0000000000000000        0x0 /home/moslevin/atmel/bin/../lib/gcc/avr/4.6.2/../../../../avr/lib/avr5/crtm328p.o
 .text          0x0000000000000000        0x0 ./obj/avr/atmega328p/gcc/ut_timers.cpp.o
 .text          0x0000000000000000        0x0 ./obj/avr/atmega328p/gcc/../ut_platform.cpp.o
 .text          0x0000000000000000        0x0 /home/moslevin/m3/mark3/embedded/stage/lib/avr/atmega328p/gcc/libmark3.a(driver.cpp.o)
 .text          0x0000000000000000        0x0 /home/moslevin/m3/mark3/embedded/stage/lib/avr/atmega328p/gcc/libmark3.a(ll.cpp.o)
 .bss           0x0000000000000000        0x0 /home/moslevin/m3/mark3/embedded/stage/lib/avr/atmega328p/gcc/libmark3.a(ll.cpp.o)
 .text._ZN16CircularLinkList13PivotBackwardEv
                0x0000000000000000       0x28 /home/moslevin/m3/mark3/embedded/stage/lib/avr/atmega328p/gcc/libmark3.a(ll.cpp.o)
 .text          0x0000000000000000        0x0 /home/moslevin/m3/mark3/embedded/stage/lib/avr/atmega328p/gcc/libmark3.a(profile.cpp.o)
 .bss           0x0000000000000000        0x0 /home/moslevin/m3/mark3/embedded/stage/lib/avr/atmega328p/gcc/libmark3.a(profile.cpp.o)
 .text          0x0000000000000000        0x0 /home/moslevin/m3/mark3/embedded/stage/lib/avr/atmega328p/gcc/libmark3.a(ksemaphore.cpp.o)
 .bss           0x0000000000000000        0x0 /home/moslevin/m3/mark3/embedded/stage/lib/avr/atmega328p/gcc/libmark3.a(ksemaphore.cpp.o)
 .text._ZN9Semaphore6WakeMeEP6Thread
                0x0000000000000000        0x6 /home/moslevin/m3/mark3/embedded/stage/lib/avr/atmega328p/gcc/libmark3.a(ksemaphore.cpp.o)
 .text._ZN9Semaphore8GetCountEv
                0x0000000000000000       0x22 /home/moslevin/m3/mark3/embedded/stage/lib/avr/atmega328p/gcc/libmark3.a(ksemaphore.cpp.o)
 .text          0x0000000000000000        0x0 /home/moslevin/m3/mark3/embedded/stage/lib/avr/atmega328p/gcc/libmark3.a(thread.cpp.o)
 .text._ZN6Thread6USleepEm
                0x0000000000000000       0xae /home/moslevin/m3/mark3/embedded/stage/lib/avr/atmega328p/gcc/libmark3.a(thread.cpp.o)
 .text._ZN6Thread13GetStackSlackEv
                0x0000000000000000       0x46 /home/moslevin/m3/mark3/embedded/stage/lib/avr/atmega328p/gcc/libmark3.a(thread.cpp.o)
 .text._ZN6Thread15SetPriorityBaseEh
                0x0000000000000000       0x4c /home/moslevin/m3/mark3/embedded/stage/lib/avr/atmega328p/gcc/libmark3.a(thread.cpp.o)
 .text._ZN6Thread15InheritPriorityEh
                0x0000000000000000       0x22 /home/moslevin/m3/mark3/embedded/stage/lib/avr/atmega328p/gcc/libmark3.a(thread.cpp.o)
 .text._ZN6Thread11SetPriorityEh
                0x0000000000000000       0x8e /home/moslevin/m3/mark3/embedded/stage/lib/avr/atmega328p/gcc/libmark3.a(thread.cpp.o)
 .text._ZN6Thread4ExitEv
                0x0000000000000000       0x46 /home/moslevin/m3/mark3/embedded/stage/lib/avr/atmega328p/gcc/libmark3.a(thread.cpp.o)
 .text          0x0000000000000000        0x0 /home/moslevin/m3/mark3/embedded/stage/lib/avr/atmega328p/gcc/libmark3.a(threadlist.cpp.o)
 .bss           0x0000000000000000        0x0 /home/moslevin/m3/mark3/embedded/stage/lib/avr/atmega328p/gcc/libmark3.a(threadlist.cpp.o)
 .text._ZN10ThreadList3AddEP12LinkListNodePhh
                0x0000000000000000       0x1e /home/moslevin/m3/mark3/embedded/stage/lib/avr/atmega328p/gcc/libmark3.a(threadlist.cpp.o)
 .text          0x0000000000000000        0x0 /home/moslevin/m3/mark3/embedded/stage/lib/avr/atmega328p/gcc/libmark3.a(kernel.cpp.o)
 .text          0x0000000000000000        0x0 /home/moslevin/m3/mark3/embedded/stage/lib/avr/atmega328p/gcc/libmark3.a(timerlist.cpp.o)
 .text._ZN5Timer16SetIntervalTicksEm
                0x0000000000000000        0xc /home/moslevin/m3/mark3/embedded/stage/lib/avr/atmega328p/gcc/libmark3.a(timerlist.cpp.o)
 .text._ZN5Timer18SetIntervalSecondsEm
                0x0000000000000000       0x28 /home/moslevin/m3/mark3/embedded/stage/lib/avr/atmega328p/gcc/libmark3.a(timerlist.cpp.o)
 .text._ZN5Timer19SetIntervalUSecondsEm
                0x0000000000000000       0x38 /home/moslevin/m3/mark3/embedded/stage/lib/avr/atmega328p/gcc/libmark3.a(timerlist.cpp.o)
 .text          0x0000000000000000        0x0 /home/moslevin/m3/mark3/embedded/stage/lib/avr/atmega328p/gcc/libmark3.a(threadport.cpp.o)
 .bss           0x0000000000000000        0x2 /home/moslevin/m3/mark3/embedded/stage/lib/avr/atmega328p/gcc/libmark3.a(threadport.cpp.o)
 .text          0x0000000000000000        0x0 /home/moslevin/m3/mark3/embedded/stage/lib/avr/atmega328p/gcc/libmark3.a(kernelswi.cpp.o)
 .bss           0x0000000000000000        0x0 /home/moslevin/m3/mark3/embedded/stage/lib/avr/atmega328p/gcc/libmark3.a(kernelswi.cpp.o)
 .text._ZN9KernelSWI4StopEv
                0x0000000000000000        0x4 /home/moslevin/m3/mark3/embedded/stage/lib/avr/atmega328p/gcc/libmark3.a(kernelswi.cpp.o)
 .text._ZN9KernelSWI2DIEv
                0x0000000000000000        0x8 /home/moslevin/m3/mark3/embedded/stage/lib/avr/atmega328p/gcc/libmark3.a(kernelswi.cpp.o)
 .text._ZN9KernelSWI2RIEh
                0x0000000000000000        0xc /home/moslevin/m3/mark3/embedded/stage/lib/avr/atmega328p/gcc/libmark3.a(kernelswi.cpp.o)
 .text._ZN9KernelSWI5ClearEv
                0x0000000000000000        0x4 /home/moslevin/m3/mark3/embedded/stage/lib/avr/atmega328p/gcc/libmark3.a(kernelswi.cpp.o)
 .text          0x0000000000000000        0x0 /home/moslevin/m3/mark3/embedded/stage/lib/avr/atmega328p/gcc/libmark3.a(kerneltimer.cpp.o)
 .bss           0x0000000000000000        0x0 /home/moslevin/m3/mark3/embedded/stage/lib/avr/atmega328p/gcc/libmark3.a(kerneltimer.cpp.o)
 .text._ZN11KernelTimer2DIEv
                0x0000000000000000       0x18 /home/moslevin/m3/mark3/embedded/stage/lib/avr/atmega328p/gcc/libmark3.a(kerneltimer.cpp.o)
 .text._ZN11KernelTimer2RIEh
                0x0000000000000000       0x18 /home/moslevin/m3/mark3/embedded/stage/lib/avr/atmega328p/gcc/libmark3.a(kerneltimer.cpp.o)
 .text._ZN11KernelTimer2EIEv
                0x0000000000000000        0x8 /home/moslevin/m3/mark3/embedded/stage/lib/avr/atmega328p/gcc/libmark3.a(kerneltimer.cpp.o)
 .text          0x0000000000000000        0x0 /home/moslevin/m3/mark3/embedded/stage/lib/avr/atmega328p/gcc/libmark3.a(kprofile.cpp.o)
 .text          0x0000000000000000        0x0 /home/moslevin/m3/mark3/embedded/stage/lib/avr/atmega328p/gcc/libmark3.a(blocking.cpp.o)
 .bss           0x0000000000000000        0x0 /home/moslevin/m3/mark3/embedded/stage/lib/avr/atmega328p/gcc/libmark3.a(blocking.cpp.o)
 .text          0x0000000000000000        0x0 /home/moslevin/m3/mark3/embedded/stage/lib/avr/atmega328p/gcc/libmark3.a(message.cpp.o)
 .text._ZN17GlobalMessagePool4PushEP7Message
                0x0000000000000000       0x26 /home/moslevin/m3/mark3/embedded/stage/lib/avr/atmega328p/gcc/libmark3.a(message.cpp.o)
 .text._ZN17GlobalMessagePool3PopEv
                0x0000000000000000       0x38 /home/moslevin/m3/mark3/embedded/stage/lib/avr/atmega328p/gcc/libmark3.a(message.cpp.o)
 .text._ZN12MessageQueue4InitEv
                0x0000000000000000        0xe /home/moslevin/m3/mark3/embedded/stage/lib/avr/atmega328p/gcc/libmark3.a(message.cpp.o)
 .text._ZN12MessageQueue7ReceiveEv
                0x0000000000000000       0x44 /home/moslevin/m3/mark3/embedded/stage/lib/avr/atmega328p/gcc/libmark3.a(message.cpp.o)
 .text._ZN12MessageQueue7ReceiveEm
                0x0000000000000000       0x4e /home/moslevin/m3/mark3/embedded/stage/lib/avr/atmega328p/gcc/libmark3.a(message.cpp.o)
 .text._ZN12MessageQueue4SendEP7Message
                0x0000000000000000       0x34 /home/moslevin/m3/mark3/embedded/stage/lib/avr/atmega328p/gcc/libmark3.a(message.cpp.o)
 .text._ZN12MessageQueue8GetCountEv
                0x0000000000000000        0x6 /home/moslevin/m3/mark3/embedded/stage/lib/avr/atmega328p/gcc/libmark3.a(message.cpp.o)
 .text          0x0000000000000000        0x0 /home/moslevin/m3/mark3/embedded/stage/lib/avr/atmega328p/gcc/libmark3.a(quantum.cpp.o)
 .text          0x0000000000000000        0x0 /home/moslevin/m3/mark3/embedded/stage/lib/avr/atmega328p/gcc/libmark3.a(scheduler.cpp.o)
 .text          0x0000000000000000        0x0 /home/moslevin/m3/mark3/embedded/stage/lib/avr/atmega328p/gcc/libdrvUART.a(drvUART.cpp.o)
 .text          0x0000000000000000        0x0 /home/moslevin/m3/mark3/embedded/stage/lib/avr/atmega328p/gcc/libunit_test.a(unit_test.cpp.o)
 .bss           0x0000000000000000        0x0 /home/moslevin/m3/mark3/embedded/stage/lib/avr/atmega328p/gcc/libunit_test.a(unit_test.cpp.o)
 .text          0x0000000000000000        0x0 /home/moslevin/m3/mark3/embedded/stage/lib/avr/atmega328p/gcc/libmemutil.a(memutil.cpp.o)
 .bss           0x0000000000000000        0x0 /home/moslevin/m3/mark3/embedded/stage/lib/avr/atmega328p/gcc/libmemutil.a(memutil.cpp.o)
 .text._ZN7MemUtil12DecimalToHexEhPc
                0x0000000000000000       0x4a /home/moslevin/m3/mark3/embedded/stage/lib/avr/atmega328p/gcc/libmemutil.a(memutil.cpp.o)
 .text._ZN7MemUtil12DecimalToHexEjPc
                0x0000000000000000       0x6a /home/moslevin/m3/mark3/embedded/stage/lib/avr/atmega328p/gcc/libmemutil.a(memutil.cpp.o)
 .text._ZN7MemUtil12DecimalToHexEmPc
                0x0000000000000000       0xbe /home/moslevin/m3/mark3/embedded/stage/lib/avr/atmega328p/gcc/libmemutil.a(memutil.cpp.o)
 .text._ZN7MemUtil15DecimalToStringEhPc
                0x0000000000000000       0x36 /home/moslevin/m3/mark3/embedded/stage/lib/avr/atmega328p/gcc/libmemutil.a(memutil.cpp.o)
 .text._ZN7MemUtil15DecimalToStringEmPc
                0x0000000000000000       0xca /home/moslevin/m3/mark3/embedded/stage/lib/avr/atmega328p/gcc/libmemutil.a(memutil.cpp.o)
 .text._ZN7MemUtil9Checksum8EPKvj
                0x0000000000000000       0x16 /home/moslevin/m3/mark3/embedded/stage/lib/avr/atmega328p/gcc/libmemutil.a(memutil.cpp.o)
 .text._ZN7MemUtil10Checksum16EPKvj
                0x0000000000000000       0x1a /home/moslevin/m3/mark3/embedded/stage/lib/avr/atmega328p/gcc/libmemutil.a(memutil.cpp.o)
 .text._ZN7MemUtil14CompareStringsEPKcS1_
                0x0000000000000000       0x26 /home/moslevin/m3/mark3/embedded/stage/lib/avr/atmega328p/gcc/libmemutil.a(memutil.cpp.o)
 .text._ZN7MemUtil10CopyMemoryEPvPKvj
                0x0000000000000000       0x16 /home/moslevin/m3/mark3/embedded/stage/lib/avr/atmega328p/gcc/libmemutil.a(memutil.cpp.o)
 .text._ZN7MemUtil10CopyStringEPcPKc
                0x0000000000000000       0x10 /home/moslevin/m3/mark3/embedded/stage/lib/avr/atmega328p/gcc/libmemutil.a(memutil.cpp.o)
 .text._ZN7MemUtil12StringSearchEPKcS1_
                0x0000000000000000       0x42 /home/moslevin/m3/mark3/embedded/stage/lib/avr/atmega328p/gcc/libmemutil.a(memutil.cpp.o)
 .text._ZN7MemUtil13CompareMemoryEPKvS1_j
                0x0000000000000000       0x20 /home/moslevin/m3/mark3/embedded/stage/lib/avr/atmega328p/gcc/libmemutil.a(memutil.cpp.o)
 .text._ZN7MemUtil9SetMemoryEPvhj
                0x0000000000000000       0x12 /home/moslevin/m3/mark3/embedded/stage/lib/avr/atmega328p/gcc/libmemutil.a(memutil.cpp.o)
 .text._ZN7MemUtil8TokenizeEPKcP7Token_th
                0x0000000000000000       0xc2 /home/moslevin/m3/mark3/embedded/stage/lib/avr/atmega328p/gcc/libmemutil.a(memutil.cpp.o)
 .text          0x0000000000000000        0x0 /home/moslevin/atmel/bin/../lib/gcc/avr/4.6.2/avr5/libgcc.a(_mulsi3.o)
 .bss           0x0000000000000000        0x0 /home/moslevin/atmel/bin/../lib/gcc/avr/4.6.2/avr5/libgcc.a(_mulsi3.o)
 .text          0x0000000000000000        0x0 /home/moslevin/atmel/bin/../lib/gcc/avr/4.6.2/avr5/libgcc.a(_udivmodqi4.o)
 .bss           0x0000000000000000        0x0 /home/moslevin/atmel/bin/../lib/gcc/avr/4.6.2/avr5/libgcc.a(_udivmodqi4.o)
 .text.libgcc   0x0000000000000000       0x18 /home/moslevin/atmel/bin/../lib/gcc/avr/4.6.2/avr5/libgcc.a(_udivmodqi4.o)
 .text          0x0000000000000000        0x0 /home/moslevin/atmel/bin/../lib/gcc/avr/4.6.2/avr5/libgcc.a(_udivmodhi4.o)
 .bss           0x0000000000000000        0x0 /home/moslevin/atmel/bin/../lib/gcc/avr/4.6.2/avr5/libgcc.a(_udivmodhi4.o)
 .text          0x0000000000000000        0x0 /home/moslevin/atmel/bin/../lib/gcc/avr/4.6.2/avr5/libgcc.a(_udivmodsi4.o)
 .bss           0x0000000000000000        0x0 /home/moslevin/atmel/bin/../lib/gcc/avr/4.6.2/avr5/libgcc.a(_udivmodsi4.o)
 .text          0x0000000000000000        0x0 /home/moslevin/atmel/bin/../lib/gcc/avr/4.6.2/avr5/libgcc.a(_exit.o)
 .bss           0x0000000000000000        0x0 /home/moslevin/atmel/bin/../lib/gcc/avr/4.6.2/avr5/libgcc.a(_exit.o)
 .text.libgcc   0x0000000000000000        0x0 /home/moslevin/atmel/bin/../lib/gcc/avr/4.6.2/avr5/libgcc.a(_exit.o)
 .text          0x0000000000000000        0x0 /home/moslevin/atmel/bin/../lib/gcc/avr/4.6.2/avr5/libgcc.a(_copy_data.o)
 .bss           0x0000000000000000        0x0 /home/moslevin/atmel/bin/../lib/gcc/avr/4.6.2/avr5/libgcc.a(_copy_data.o)
 .text.libgcc   0x0000000000000000        0x0 /home/moslevin/atmel/bin/../lib/gcc/avr/4.6.2/avr5/libgcc.a(_copy_data.o)
 .text          0x0000000000000000        0x0 /home/moslevin/atmel/bin/../lib/gcc/avr/4.6.2/avr5/libgcc.a(_clear_bss.o)
 .bss           0x0000000000000000        0x0 /home/moslevin/atmel/bin/../lib/gcc/avr/4.6.2/avr5/libgcc.a(_clear_bss.o)
 .text.libgcc   0x0000000000000000        0x0 /home/moslevin/atmel/bin/../lib/gcc/avr/4.6.2/avr5/libgcc.a(_clear_bss.o)
 .text          0x0000000000000000        0x0 /home/moslevin/atmel/bin/../lib/gcc/avr/4.6.2/avr5/libgcc.a(_ctors.o)
 .bss           0x0000000000000000        0x0 /home/moslevin/atmel/bin/../lib/gcc/avr/4.6.2/avr5/libgcc.a(_ctors.o)
 .text.libgcc   0x0000000000000000        0x0 /home/moslevin/atmel/bin/../lib/gcc/avr/4.6.2/avr5/libgcc.a(_ctors.o)
 .text          0x0000000000000000        0x0 /home/moslevin/atmel/bin/../lib/gcc/avr/4.6.2/avr5/libgcc.a(_tablejump.o)
 .bss           0x0000000000000000        0x0 /home/moslevin/atmel/bin/../lib/gcc/avr/4.6.2/avr5/libgcc.a(_tablejump.o)

Memory Configuration

Name             Origin             Length             Attributes
text             0x0000000000000000 0x0000000000020000 xr
data             0x0000000000800060 0x000000000000ffa0 rw !x
eeprom           0x0000000000810000 0x0000000000010000 rw !x
fuse             0x0000000000820000 0x0000000000000400 rw !x
lock             0x0000000000830000 0x0000000000000400 rw !x
signature        0x0000000000840000 0x0000000000000400 rw !x
*default*        0x0000000000000000 0xffffffffffffffff

Linker script and memory map

Address of section .data set to 0x800100
LOAD /home/moslevin/atmel/bin/../lib/gcc/avr/4.6.2/../../../../avr/lib/avr5/crtm328p.o
START GROUP
LOAD /home/moslevin/atmel/bin/../lib/gcc/avr/4.6.2/../../../../avr/lib/avr5/libm.a
END GROUP
LOAD ./obj/avr/atmega328p/gcc/ut_timers.cpp.o
LOAD ./obj/avr/atmega328p/gcc/../ut_platform.cpp.o
LOAD /home/moslevin/m3/mark3/embedded/stage/lib/avr/atmega328p/gcc/libmark3.a
LOAD /home/moslevin/m3/mark3/embedded/stage/lib/avr/atmega328p/gcc/libdrvUART.a
LOAD /home/moslevin/m3/mark3/embedded/stage/lib/avr/atmega328p/gcc/libunit_test.a
LOAD /home/moslevin/m3/mark3/embedded/stage/lib/avr/atmega328p/gcc/libmemutil.a
LOAD /home/moslevin/atmel/bin/../lib/gcc/avr/4.6.2/avr5/libgcc.a
LOAD /home/moslevin/atmel/bin/../lib/gcc/avr/4.6.2/../../../../avr/lib/avr5/libc.a
LOAD /home/moslevin/atmel/bin/../lib/gcc/avr/4.6.2/avr5/libgcc.a

.hash
 *(.hash)

.dynsym
 *(.dynsym)

.dynstr
 *(.dynstr)

.gnu.version
 *(.gnu.version)

.gnu.version_d
 *(.gnu.version_d)

.gnu.version_r
 *(.gnu.version_r)

.rel.init
 *(.rel.init)

.rela.init
 *(.rela.init)

.rel.text
 *(.rel.text)
 *(.rel.text.*)
 *(.rel.gnu.linkonce.t*)

.rela.text
 *(.rela.text)
 *(.rela.text.*)
 *(.rela.gnu.linkonce.t*)

.rel.fini
 *(.rel.fini)

.rela.fini
 *(.rela.fini)

.rel.rodata
 *(.rel.rodata)
 *(.rel.rodata.*)
 *(.rel.gnu.linkonce.r*)

.rela.rodata
 *(.rela.rodata)
 *(.rela.rodata.*)
 *(.rela.gnu.linkonce.r*)

.rel.data
 *(.rel.data)
 *(.rel.data.*)
 *(.rel.gnu.linkonce.d*)

.rela.data
 *(.rela.data)
 *(.rela.data.*)
 *(.rela.gnu.linkonce.d*)

.rel.ctors
 *(.rel.ctors)

.rela.ctors
 *(.rela.ctors)

.rel.dtors
 *(.rel.dtors)

.rela.dtors
 *(.rela.dtors)

.rel.got
 *(.rel.got)

.rela.got
 *(.rela.got)

.rel.bss
 *(.rel.bss)

.rela.bss
 *(.rela.bss)

.rel.plt
 *(.rel.plt)

.rela.plt
 *(.rela.plt)

.text           0x0000000000000000     0x26e0
 *(.vectors)
 .vectors       0x0000000000000000       0x68 /home/moslevin/atmel/bin/../lib/gcc/avr/4.6.2/../../../../avr/lib/avr5/crtm328p.o
                0x0000000000000000                __vectors
                0x0000000000000000                __vector_default
 *(.vectors)
 *(.progmem.gcc*)
 *(.progmem*)
                0x0000000000000068                . = ALIGN (0x2)
                0x0000000000000068                __trampolines_start = .
 *(.trampolines)
 .trampolines   0x0000000000000068        0x0 linker stubs
 *(.trampolines*)
                0x0000000000000068                __trampolines_end = .
 *(.jumptables)
 *(.jumptables*)
 *(.lowtext)
 *(.lowtext*)
                0x0000000000000068                __ctors_start = .
 *(.ctors)
 .ctors         0x0000000000000068        0x2 ./obj/avr/atmega328p/gcc/ut_timers.cpp.o
 .ctors         0x000000000000006a        0x2 ./obj/avr/atmega328p/gcc/../ut_platform.cpp.o
 .ctors         0x000000000000006c        0x2 /home/moslevin/m3/mark3/embedded/stage/lib/avr/atmega328p/gcc/libmark3.a(driver.cpp.o)
 .ctors         0x000000000000006e        0x2 /home/moslevin/m3/mark3/embedded/stage/lib/avr/atmega328p/gcc/libmark3.a(timerlist.cpp.o)
 .ctors         0x0000000000000070        0x2 /home/moslevin/m3/mark3/embedded/stage/lib/avr/atmega328p/gcc/libmark3.a(message.cpp.o)
 .ctors         0x0000000000000072        0x2 /home/moslevin/m3/mark3/embedded/stage/lib/avr/atmega328p/gcc/libmark3.a(quantum.cpp.o)
 .ctors         0x0000000000000074        0x2 /home/moslevin/m3/mark3/embedded/stage/lib/avr/atmega328p/gcc/libmark3.a(scheduler.cpp.o)
                0x0000000000000076                __ctors_end = .
                0x0000000000000076                __dtors_start = .
 *(.dtors)
                0x0000000000000076                __dtors_end = .
 SORT(*)(.ctors)
 SORT(*)(.dtors)
 *(.init0)
 .init0         0x0000000000000076        0x0 /home/moslevin/atmel/bin/../lib/gcc/avr/4.6.2/../../../../avr/lib/avr5/crtm328p.o
                0x0000000000000076                __init
 *(.init0)
 *(.init1)
 *(.init1)
 *(.init2)
 .init2         0x0000000000000076        0xc /home/moslevin/atmel/bin/../lib/gcc/avr/4.6.2/../../../../avr/lib/avr5/crtm328p.o
 *(.init2)
 *(.init3)
 *(.init3)
 *(.init4)
 .init4         0x0000000000000082       0x16 /home/moslevin/atmel/bin/../lib/gcc/avr/4.6.2/avr5/libgcc.a(_copy_data.o)
                0x0000000000000082                __do_copy_data
 .init4         0x0000000000000098       0x10 /home/moslevin/atmel/bin/../lib/gcc/avr/4.6.2/avr5/libgcc.a(_clear_bss.o)
                0x0000000000000098                __do_clear_bss
 *(.init4)
 *(.init5)
 *(.init5)
 *(.init6)
 .init6         0x00000000000000a8       0x16 /home/moslevin/atmel/bin/../lib/gcc/avr/4.6.2/avr5/libgcc.a(_ctors.o)
                0x00000000000000a8                __do_global_ctors
 *(.init6)
 *(.init7)
 *(.init7)
 *(.init8)
 *(.init8)
 *(.init9)
 .init9         0x00000000000000be        0x8 /home/moslevin/atmel/bin/../lib/gcc/avr/4.6.2/../../../../avr/lib/avr5/crtm328p.o
 *(.init9)
 *(.text)
 .text          0x00000000000000c6        0x4 /home/moslevin/atmel/bin/../lib/gcc/avr/4.6.2/../../../../avr/lib/avr5/crtm328p.o
                0x00000000000000c6                __vector_22
                0x00000000000000c6                __vector_24
                0x00000000000000c6                __vector_12
                0x00000000000000c6                __bad_interrupt
                0x00000000000000c6                __vector_6
                0x00000000000000c6                __vector_3
                0x00000000000000c6                __vector_23
                0x00000000000000c6                __vector_25
                0x00000000000000c6                __vector_13
                0x00000000000000c6                __vector_17
                0x00000000000000c6                __vector_19
                0x00000000000000c6                __vector_7
                0x00000000000000c6                __vector_5
                0x00000000000000c6                __vector_4
                0x00000000000000c6                __vector_9
                0x00000000000000c6                __vector_2
                0x00000000000000c6                __vector_21
                0x00000000000000c6                __vector_15
                0x00000000000000c6                __vector_8
                0x00000000000000c6                __vector_14
                0x00000000000000c6                __vector_10
                0x00000000000000ca                . = ALIGN (0x2)
 *(.text.*)
 .text._ZL13TimerCallbackP6ThreadPv
                0x00000000000000ca       0x30 ./obj/avr/atmega328p/gcc/ut_timers.cpp.o
 .text._ZN8UnitTest17ExpectGreaterThanEll
                0x00000000000000fa       0x1e ./obj/avr/atmega328p/gcc/ut_timers.cpp.o
                0x00000000000000fa                _ZN8UnitTest17ExpectGreaterThanEll
 .text._ZN8UnitTest14ExpectLessThanEll
                0x0000000000000118       0x1e ./obj/avr/atmega328p/gcc/ut_timers.cpp.o
                0x0000000000000118                _ZN8UnitTest14ExpectLessThanEll
 .text._ZL23TestFunc_ut_timer_multiv
                0x0000000000000136      0x2c8 ./obj/avr/atmega328p/gcc/ut_timers.cpp.o
 .text._ZL24TestFunc_ut_timer_repeatv
                0x00000000000003fe      0x146 ./obj/avr/atmega328p/gcc/ut_timers.cpp.o
 .text._ZL25TestFunc_ut_timer_longrunv
                0x0000000000000544      0x168 ./obj/avr/atmega328p/gcc/ut_timers.cpp.o
 .text._ZL27TestFunc_ut_timer_tolerancev
                0x00000000000006ac      0x382 ./obj/avr/atmega328p/gcc/ut_timers.cpp.o
 .text.startup._GLOBAL__sub_I_astTestCases
                0x0000000000000a2e       0xb0 ./obj/avr/atmega328p/gcc/ut_timers.cpp.o
 .text._ZL9IdleEntryv
                0x0000000000000ade       0x1c ./obj/avr/atmega328p/gcc/../ut_platform.cpp.o
 .text.__cxa_pure_virtual
                0x0000000000000afa        0x2 ./obj/avr/atmega328p/gcc/../ut_platform.cpp.o
                0x0000000000000afa                __cxa_pure_virtual
 .text._Z10init_testsv
                0x0000000000000afc       0x1a ./obj/avr/atmega328p/gcc/../ut_platform.cpp.o
                0x0000000000000afc                _Z10init_testsv
 .text._Z11PrintStringPKc
                0x0000000000000b16       0x36 ./obj/avr/atmega328p/gcc/../ut_platform.cpp.o
                0x0000000000000b16                _Z11PrintStringPKc
 .text._Z9run_testsv
                0x0000000000000b4c       0x20 ./obj/avr/atmega328p/gcc/../ut_platform.cpp.o
                0x0000000000000b4c                _Z9run_testsv
 .text._ZL8AppEntryv
                0x0000000000000b6c       0x42 ./obj/avr/atmega328p/gcc/../ut_platform.cpp.o
 .text._ZN10MyUnitTest15PrintTestResultEv
                0x0000000000000bae       0xea ./obj/avr/atmega328p/gcc/../ut_platform.cpp.o
                0x0000000000000bae                _ZN10MyUnitTest15PrintTestResultEv
 .text.startup.main
                0x0000000000000c98       0x9a ./obj/avr/atmega328p/gcc/../ut_platform.cpp.o
                0x0000000000000c98                main
 .text.startup._GLOBAL__sub_I___cxa_pure_virtual
                0x0000000000000d32        0xe ./obj/avr/atmega328p/gcc/../ut_platform.cpp.o
 .text._ZN7DevNull4InitEv
                0x0000000000000d40        0xc /home/moslevin/m3/mark3/embedded/stage/lib/avr/atmega328p/gcc/libmark3.a(driver.cpp.o)
                0x0000000000000d40                _ZN7DevNull4InitEv
 .text._ZN7DevNull4OpenEv
                0x0000000000000d4c        0x4 /home/moslevin/m3/mark3/embedded/stage/lib/avr/atmega328p/gcc/libmark3.a(driver.cpp.o)
                0x0000000000000d4c                _ZN7DevNull4OpenEv
 .text._ZN7DevNull5CloseEv
                0x0000000000000d50        0x4 /home/moslevin/m3/mark3/embedded/stage/lib/avr/atmega328p/gcc/libmark3.a(driver.cpp.o)
                0x0000000000000d50                _ZN7DevNull5CloseEv
 .text._ZN7DevNull4ReadEjPh
                0x0000000000000d54        0x6 /home/moslevin/m3/mark3/embedded/stage/lib/avr/atmega328p/gcc/libmark3.a(driver.cpp.o)
                0x0000000000000d54                _ZN7DevNull4ReadEjPh
 .text._ZN7DevNull5WriteEjPh
                0x0000000000000d5a        0x6 /home/moslevin/m3/mark3/embedded/stage/lib/avr/atmega328p/gcc/libmark3.a(driver.cpp.o)
                0x0000000000000d5a                _ZN7DevNull5WriteEjPh
 .text._ZN7DevNull7ControlEjPvjS0_j
                0x0000000000000d60        0x6 /home/moslevin/m3/mark3/embedded/stage/lib/avr/atmega328p/gcc/libmark3.a(driver.cpp.o)
                0x0000000000000d60                _ZN7DevNull7ControlEjPvjS0_j
 .text._ZN10DriverList4InitEv
                0x0000000000000d66       0x1a /home/moslevin/m3/mark3/embedded/stage/lib/avr/atmega328p/gcc/libmark3.a(driver.cpp.o)
                0x0000000000000d66                _ZN10DriverList4InitEv
 .text._ZN10DriverList10FindByPathEPKc
                0x0000000000000d80       0x50 /home/moslevin/m3/mark3/embedded/stage/lib/avr/atmega328p/gcc/libmark3.a(driver.cpp.o)
                0x0000000000000d80                _ZN10DriverList10FindByPathEPKc
 .text.startup._GLOBAL__sub_I__ZN10DriverList14m_clDriverListE
                0x0000000000000dd0       0x2a /home/moslevin/m3/mark3/embedded/stage/lib/avr/atmega328p/gcc/libmark3.a(driver.cpp.o)
 .text._ZN14DoubleLinkList6RemoveEP12LinkListNode
                0x0000000000000dfa       0x68 /home/moslevin/m3/mark3/embedded/stage/lib/avr/atmega328p/gcc/libmark3.a(ll.cpp.o)
                0x0000000000000dfa                _ZN14DoubleLinkList6RemoveEP12LinkListNode
 .text._ZN16CircularLinkList6RemoveEP12LinkListNode
                0x0000000000000e62       0x84 /home/moslevin/m3/mark3/embedded/stage/lib/avr/atmega328p/gcc/libmark3.a(ll.cpp.o)
                0x0000000000000e62                _ZN16CircularLinkList6RemoveEP12LinkListNode
 .text._ZN14DoubleLinkList3AddEP12LinkListNode
                0x0000000000000ee6       0x48 /home/moslevin/m3/mark3/embedded/stage/lib/avr/atmega328p/gcc/libmark3.a(ll.cpp.o)
                0x0000000000000ee6                _ZN14DoubleLinkList3AddEP12LinkListNode
 .text._ZN16CircularLinkList3AddEP12LinkListNode
                0x0000000000000f2e       0x52 /home/moslevin/m3/mark3/embedded/stage/lib/avr/atmega328p/gcc/libmark3.a(ll.cpp.o)
                0x0000000000000f2e                _ZN16CircularLinkList3AddEP12LinkListNode
 .text._ZN12LinkListNode9ClearNodeEv
                0x0000000000000f80        0xc /home/moslevin/m3/mark3/embedded/stage/lib/avr/atmega328p/gcc/libmark3.a(ll.cpp.o)
                0x0000000000000f80                _ZN12LinkListNode9ClearNodeEv
 .text._ZN16CircularLinkList12PivotForwardEv
                0x0000000000000f8c       0x22 /home/moslevin/m3/mark3/embedded/stage/lib/avr/atmega328p/gcc/libmark3.a(ll.cpp.o)
                0x0000000000000f8c                _ZN16CircularLinkList12PivotForwardEv
 .text._ZN12ProfileTimer4InitEv
                0x0000000000000fae       0x1a /home/moslevin/m3/mark3/embedded/stage/lib/avr/atmega328p/gcc/libmark3.a(profile.cpp.o)
                0x0000000000000fae                _ZN12ProfileTimer4InitEv
 .text._ZN12ProfileTimer5StartEv
                0x0000000000000fc8       0x5c /home/moslevin/m3/mark3/embedded/stage/lib/avr/atmega328p/gcc/libmark3.a(profile.cpp.o)
                0x0000000000000fc8                _ZN12ProfileTimer5StartEv
 .text._ZN12ProfileTimer10GetAverageEv
                0x0000000000001024       0x36 /home/moslevin/m3/mark3/embedded/stage/lib/avr/atmega328p/gcc/libmark3.a(profile.cpp.o)
                0x0000000000001024                _ZN12ProfileTimer10GetAverageEv
 .text._ZN12ProfileTimer19ComputeCurrentTicksEjm
                0x000000000000105a       0x9a /home/moslevin/m3/mark3/embedded/stage/lib/avr/atmega328p/gcc/libmark3.a(profile.cpp.o)
                0x000000000000105a                _ZN12ProfileTimer19ComputeCurrentTicksEjm
 .text._ZN12ProfileTimer10GetCurrentEv
                0x00000000000010f4       0x56 /home/moslevin/m3/mark3/embedded/stage/lib/avr/atmega328p/gcc/libmark3.a(profile.cpp.o)
                0x00000000000010f4                _ZN12ProfileTimer10GetCurrentEv
 .text._ZN12ProfileTimer4StopEv
                0x000000000000114a       0x7c /home/moslevin/m3/mark3/embedded/stage/lib/avr/atmega328p/gcc/libmark3.a(profile.cpp.o)
                0x000000000000114a                _ZN12ProfileTimer4StopEv
 .text._Z23TimedSemaphore_CallbackP6ThreadPv
                0x00000000000011c6       0x2e /home/moslevin/m3/mark3/embedded/stage/lib/avr/atmega328p/gcc/libmark3.a(ksemaphore.cpp.o)
                0x00000000000011c6                _Z23TimedSemaphore_CallbackP6ThreadPv
 .text._ZN9Semaphore8WakeNextEv
                0x00000000000011f4       0x3c /home/moslevin/m3/mark3/embedded/stage/lib/avr/atmega328p/gcc/libmark3.a(ksemaphore.cpp.o)
                0x00000000000011f4                _ZN9Semaphore8WakeNextEv
 .text._ZN9Semaphore4InitEjj
                0x0000000000001230        0xe /home/moslevin/m3/mark3/embedded/stage/lib/avr/atmega328p/gcc/libmark3.a(ksemaphore.cpp.o)
                0x0000000000001230                _ZN9Semaphore4InitEjj
 .text._ZN9Semaphore4PostEv
                0x000000000000123e       0x4e /home/moslevin/m3/mark3/embedded/stage/lib/avr/atmega328p/gcc/libmark3.a(ksemaphore.cpp.o)
                0x000000000000123e                _ZN9Semaphore4PostEv
 .text._ZN9Semaphore4PendEm
                0x000000000000128c       0xd8 /home/moslevin/m3/mark3/embedded/stage/lib/avr/atmega328p/gcc/libmark3.a(ksemaphore.cpp.o)
                0x000000000000128c                _ZN9Semaphore4PendEm
 .text._ZN9Semaphore4PendEv
                0x0000000000001364        0xc /home/moslevin/m3/mark3/embedded/stage/lib/avr/atmega328p/gcc/libmark3.a(ksemaphore.cpp.o)
                0x0000000000001364                _ZN9Semaphore4PendEv
 .text._ZL19ThreadSleepCallbackP6ThreadPv
                0x0000000000001370        0x8 /home/moslevin/m3/mark3/embedded/stage/lib/avr/atmega328p/gcc/libmark3.a(thread.cpp.o)
 .text._ZN6Thread4InitEPhjhPFvPvES1_
                0x0000000000001378       0xae /home/moslevin/m3/mark3/embedded/stage/lib/avr/atmega328p/gcc/libmark3.a(thread.cpp.o)
                0x0000000000001378                _ZN6Thread4InitEPhjhPFvPvES1_
 .text._ZN6Thread5SleepEm
                0x0000000000001426       0xae /home/moslevin/m3/mark3/embedded/stage/lib/avr/atmega328p/gcc/libmark3.a(thread.cpp.o)
                0x0000000000001426                _ZN6Thread5SleepEm
 .text._ZN6Thread16ContextSwitchSWIEv
                0x00000000000014d4        0xe /home/moslevin/m3/mark3/embedded/stage/lib/avr/atmega328p/gcc/libmark3.a(thread.cpp.o)
                0x00000000000014d4                _ZN6Thread16ContextSwitchSWIEv
 .text._ZN6Thread5YieldEv
                0x00000000000014e2       0x4a /home/moslevin/m3/mark3/embedded/stage/lib/avr/atmega328p/gcc/libmark3.a(thread.cpp.o)
                0x00000000000014e2                _ZN6Thread5YieldEv
 .text._ZN6Thread5StartEv
                0x000000000000152c       0xac /home/moslevin/m3/mark3/embedded/stage/lib/avr/atmega328p/gcc/libmark3.a(thread.cpp.o)
                0x000000000000152c                _ZN6Thread5StartEv
 .text._ZN10ThreadList3AddEP12LinkListNode
                0x00000000000015d8       0x36 /home/moslevin/m3/mark3/embedded/stage/lib/avr/atmega328p/gcc/libmark3.a(threadlist.cpp.o)
                0x00000000000015d8                _ZN10ThreadList3AddEP12LinkListNode
 .text._ZN10ThreadList6RemoveEP12LinkListNode
                0x000000000000160e       0x38 /home/moslevin/m3/mark3/embedded/stage/lib/avr/atmega328p/gcc/libmark3.a(threadlist.cpp.o)
                0x000000000000160e                _ZN10ThreadList6RemoveEP12LinkListNode
 .text._ZN10ThreadList11SetPriorityEh
                0x0000000000001646        0x6 /home/moslevin/m3/mark3/embedded/stage/lib/avr/atmega328p/gcc/libmark3.a(threadlist.cpp.o)
                0x0000000000001646                _ZN10ThreadList11SetPriorityEh
 .text._ZN10ThreadList14SetFlagPointerEPh
                0x000000000000164c        0x8 /home/moslevin/m3/mark3/embedded/stage/lib/avr/atmega328p/gcc/libmark3.a(threadlist.cpp.o)
                0x000000000000164c                _ZN10ThreadList14SetFlagPointerEPh
 .text._ZN10ThreadList13HighestWaiterEv
                0x0000000000001654       0x30 /home/moslevin/m3/mark3/embedded/stage/lib/avr/atmega328p/gcc/libmark3.a(threadlist.cpp.o)
                0x0000000000001654                _ZN10ThreadList13HighestWaiterEv
 .text._ZN6Kernel4InitEv
                0x0000000000001684       0x1e /home/moslevin/m3/mark3/embedded/stage/lib/avr/atmega328p/gcc/libmark3.a(kernel.cpp.o)
                0x0000000000001684                _ZN6Kernel4InitEv
 .text._ZN6Kernel5StartEv
                0x00000000000016a2        0xc /home/moslevin/m3/mark3/embedded/stage/lib/avr/atmega328p/gcc/libmark3.a(kernel.cpp.o)
                0x00000000000016a2                _ZN6Kernel5StartEv
 .text._ZN9TimerList4InitEv
                0x00000000000016ae        0xe /home/moslevin/m3/mark3/embedded/stage/lib/avr/atmega328p/gcc/libmark3.a(timerlist.cpp.o)
                0x00000000000016ae                _ZN9TimerList4InitEv
 .text._ZN9TimerList3AddEP5Timer
                0x00000000000016bc       0xb6 /home/moslevin/m3/mark3/embedded/stage/lib/avr/atmega328p/gcc/libmark3.a(timerlist.cpp.o)
                0x00000000000016bc                _ZN9TimerList3AddEP5Timer
 .text._ZN9TimerList6RemoveEP5Timer
                0x0000000000001772       0x3a /home/moslevin/m3/mark3/embedded/stage/lib/avr/atmega328p/gcc/libmark3.a(timerlist.cpp.o)
                0x0000000000001772                _ZN9TimerList6RemoveEP5Timer
 .text._ZN9TimerList7ProcessEv
                0x00000000000017ac      0x15a /home/moslevin/m3/mark3/embedded/stage/lib/avr/atmega328p/gcc/libmark3.a(timerlist.cpp.o)
                0x00000000000017ac                _ZN9TimerList7ProcessEv
 .text._ZN5Timer5StartEhmPFvP6ThreadPvES2_
                0x0000000000001906       0x78 /home/moslevin/m3/mark3/embedded/stage/lib/avr/atmega328p/gcc/libmark3.a(timerlist.cpp.o)
                0x0000000000001906                _ZN5Timer5StartEhmPFvP6ThreadPvES2_
 .text._ZN5Timer4StopEv
                0x000000000000197e        0xc /home/moslevin/m3/mark3/embedded/stage/lib/avr/atmega328p/gcc/libmark3.a(timerlist.cpp.o)
                0x000000000000197e                _ZN5Timer4StopEv
 .text._ZN5Timer19SetIntervalMSecondsEm
                0x000000000000198a       0x38 /home/moslevin/m3/mark3/embedded/stage/lib/avr/atmega328p/gcc/libmark3.a(timerlist.cpp.o)
                0x000000000000198a                _ZN5Timer19SetIntervalMSecondsEm
 .text.startup._GLOBAL__sub_I__ZN14TimerScheduler13m_clTimerListE
                0x00000000000019c2       0x1e /home/moslevin/m3/mark3/embedded/stage/lib/avr/atmega328p/gcc/libmark3.a(timerlist.cpp.o)
 .text._ZN10ThreadPort9InitStackEP6Thread
                0x00000000000019e0       0x86 /home/moslevin/m3/mark3/embedded/stage/lib/avr/atmega328p/gcc/libmark3.a(threadport.cpp.o)
                0x00000000000019e0                _ZN10ThreadPort9InitStackEP6Thread
 .text._ZN10ThreadPort12StartThreadsEv
                0x0000000000001a66       0x84 /home/moslevin/m3/mark3/embedded/stage/lib/avr/atmega328p/gcc/libmark3.a(threadport.cpp.o)
                0x0000000000001a66                _ZN10ThreadPort12StartThreadsEv
 .text.__vector_1
                0x0000000000001aea       0xc2 /home/moslevin/m3/mark3/embedded/stage/lib/avr/atmega328p/gcc/libmark3.a(threadport.cpp.o)
                0x0000000000001aea                __vector_1
 .text.__vector_11
                0x0000000000001bac       0x50 /home/moslevin/m3/mark3/embedded/stage/lib/avr/atmega328p/gcc/libmark3.a(threadport.cpp.o)
                0x0000000000001bac                __vector_11
 .text._ZN9KernelSWI6ConfigEv
                0x0000000000001bfc       0x10 /home/moslevin/m3/mark3/embedded/stage/lib/avr/atmega328p/gcc/libmark3.a(kernelswi.cpp.o)
                0x0000000000001bfc                _ZN9KernelSWI6ConfigEv
 .text._ZN9KernelSWI5StartEv
                0x0000000000001c0c        0x6 /home/moslevin/m3/mark3/embedded/stage/lib/avr/atmega328p/gcc/libmark3.a(kernelswi.cpp.o)
                0x0000000000001c0c                _ZN9KernelSWI5StartEv
 .text._ZN9KernelSWI7TriggerEv
                0x0000000000001c12        0x6 /home/moslevin/m3/mark3/embedded/stage/lib/avr/atmega328p/gcc/libmark3.a(kernelswi.cpp.o)
                0x0000000000001c12                _ZN9KernelSWI7TriggerEv
 .text._ZN11KernelTimer6ConfigEv
                0x0000000000001c18        0x8 /home/moslevin/m3/mark3/embedded/stage/lib/avr/atmega328p/gcc/libmark3.a(kerneltimer.cpp.o)
                0x0000000000001c18                _ZN11KernelTimer6ConfigEv
 .text._ZN11KernelTimer5StartEv
                0x0000000000001c20       0x20 /home/moslevin/m3/mark3/embedded/stage/lib/avr/atmega328p/gcc/libmark3.a(kerneltimer.cpp.o)
                0x0000000000001c20                _ZN11KernelTimer5StartEv
 .text._ZN11KernelTimer4StopEv
                0x0000000000001c40       0x28 /home/moslevin/m3/mark3/embedded/stage/lib/avr/atmega328p/gcc/libmark3.a(kerneltimer.cpp.o)
                0x0000000000001c40                _ZN11KernelTimer4StopEv
 .text._ZN11KernelTimer4ReadEv
                0x0000000000001c68       0x44 /home/moslevin/m3/mark3/embedded/stage/lib/avr/atmega328p/gcc/libmark3.a(kerneltimer.cpp.o)
                0x0000000000001c68                _ZN11KernelTimer4ReadEv
 .text._ZN11KernelTimer14SubtractExpiryEm
                0x0000000000001cac       0x20 /home/moslevin/m3/mark3/embedded/stage/lib/avr/atmega328p/gcc/libmark3.a(kerneltimer.cpp.o)
                0x0000000000001cac                _ZN11KernelTimer14SubtractExpiryEm
 .text._ZN11KernelTimer12TimeToExpiryEv
                0x0000000000001ccc       0x30 /home/moslevin/m3/mark3/embedded/stage/lib/avr/atmega328p/gcc/libmark3.a(kerneltimer.cpp.o)
                0x0000000000001ccc                _ZN11KernelTimer12TimeToExpiryEv
 .text._ZN11KernelTimer11GetOvertimeEv
                0x0000000000001cfc        0xc /home/moslevin/m3/mark3/embedded/stage/lib/avr/atmega328p/gcc/libmark3.a(kerneltimer.cpp.o)
                0x0000000000001cfc                _ZN11KernelTimer11GetOvertimeEv
 .text._ZN11KernelTimer9SetExpiryEm
                0x0000000000001d08       0x28 /home/moslevin/m3/mark3/embedded/stage/lib/avr/atmega328p/gcc/libmark3.a(kerneltimer.cpp.o)
                0x0000000000001d08                _ZN11KernelTimer9SetExpiryEm
 .text._ZN11KernelTimer11ClearExpiryEv
                0x0000000000001d30        0xe /home/moslevin/m3/mark3/embedded/stage/lib/avr/atmega328p/gcc/libmark3.a(kerneltimer.cpp.o)
                0x0000000000001d30                _ZN11KernelTimer11ClearExpiryEv
 .text._ZN8Profiler4InitEv
                0x0000000000001d3e       0x1c /home/moslevin/m3/mark3/embedded/stage/lib/avr/atmega328p/gcc/libmark3.a(kprofile.cpp.o)
                0x0000000000001d3e                _ZN8Profiler4InitEv
 .text._ZN8Profiler5StartEv
                0x0000000000001d5a       0x16 /home/moslevin/m3/mark3/embedded/stage/lib/avr/atmega328p/gcc/libmark3.a(kprofile.cpp.o)
                0x0000000000001d5a                _ZN8Profiler5StartEv
 .text._ZN8Profiler4StopEv
                0x0000000000001d70       0x14 /home/moslevin/m3/mark3/embedded/stage/lib/avr/atmega328p/gcc/libmark3.a(kprofile.cpp.o)
                0x0000000000001d70                _ZN8Profiler4StopEv
 .text._ZN8Profiler4ReadEv
                0x0000000000001d84       0x2c /home/moslevin/m3/mark3/embedded/stage/lib/avr/atmega328p/gcc/libmark3.a(kprofile.cpp.o)
                0x0000000000001d84                _ZN8Profiler4ReadEv
 .text._ZN8Profiler7ProcessEv
                0x0000000000001db0       0x42 /home/moslevin/m3/mark3/embedded/stage/lib/avr/atmega328p/gcc/libmark3.a(kprofile.cpp.o)
                0x0000000000001db0                _ZN8Profiler7ProcessEv
 .text.__vector_16
                0x0000000000001df2       0x48 /home/moslevin/m3/mark3/embedded/stage/lib/avr/atmega328p/gcc/libmark3.a(kprofile.cpp.o)
                0x0000000000001df2                __vector_16
 .text._ZN14BlockingObject5BlockEP6Thread
                0x0000000000001e3a       0x28 /home/moslevin/m3/mark3/embedded/stage/lib/avr/atmega328p/gcc/libmark3.a(blocking.cpp.o)
                0x0000000000001e3a                _ZN14BlockingObject5BlockEP6Thread
 .text._ZN14BlockingObject7UnBlockEP6Thread
                0x0000000000001e62       0x2c /home/moslevin/m3/mark3/embedded/stage/lib/avr/atmega328p/gcc/libmark3.a(blocking.cpp.o)
                0x0000000000001e62                _ZN14BlockingObject7UnBlockEP6Thread
 .text._ZN17GlobalMessagePool4InitEv
                0x0000000000001e8e       0x38 /home/moslevin/m3/mark3/embedded/stage/lib/avr/atmega328p/gcc/libmark3.a(message.cpp.o)
                0x0000000000001e8e                _ZN17GlobalMessagePool4InitEv
 .text.startup._GLOBAL__sub_I__ZN17GlobalMessagePool16m_aclMessagePoolE
                0x0000000000001ec6       0x1e /home/moslevin/m3/mark3/embedded/stage/lib/avr/atmega328p/gcc/libmark3.a(message.cpp.o)
 .text._ZL15QuantumCallbackP6ThreadPv
                0x0000000000001ee4       0x36 /home/moslevin/m3/mark3/embedded/stage/lib/avr/atmega328p/gcc/libmark3.a(quantum.cpp.o)
 .text._ZN7Quantum8SetTimerEP6Thread
                0x0000000000001f1a       0x3e /home/moslevin/m3/mark3/embedded/stage/lib/avr/atmega328p/gcc/libmark3.a(quantum.cpp.o)
                0x0000000000001f1a                _ZN7Quantum8SetTimerEP6Thread
 .text._ZN7Quantum9AddThreadEP6Thread
                0x0000000000001f58       0x38 /home/moslevin/m3/mark3/embedded/stage/lib/avr/atmega328p/gcc/libmark3.a(quantum.cpp.o)
                0x0000000000001f58                _ZN7Quantum9AddThreadEP6Thread
 .text._ZN7Quantum12RemoveThreadEv
                0x0000000000001f90       0x1a /home/moslevin/m3/mark3/embedded/stage/lib/avr/atmega328p/gcc/libmark3.a(quantum.cpp.o)
                0x0000000000001f90                _ZN7Quantum12RemoveThreadEv
 .text._ZN7Quantum11UpdateTimerEv
                0x0000000000001faa       0x12 /home/moslevin/m3/mark3/embedded/stage/lib/avr/atmega328p/gcc/libmark3.a(quantum.cpp.o)
                0x0000000000001faa                _ZN7Quantum11UpdateTimerEv
 .text.startup._GLOBAL__sub_I__ZN7Quantum16m_clQuantumTimerE
                0x0000000000001fbc       0x26 /home/moslevin/m3/mark3/embedded/stage/lib/avr/atmega328p/gcc/libmark3.a(quantum.cpp.o)
 .text._ZN9Scheduler4InitEv
                0x0000000000001fe2       0x52 /home/moslevin/m3/mark3/embedded/stage/lib/avr/atmega328p/gcc/libmark3.a(scheduler.cpp.o)
                0x0000000000001fe2                _ZN9Scheduler4InitEv
 .text._ZN9Scheduler8ScheduleEv
                0x0000000000002034       0x54 /home/moslevin/m3/mark3/embedded/stage/lib/avr/atmega328p/gcc/libmark3.a(scheduler.cpp.o)
                0x0000000000002034                _ZN9Scheduler8ScheduleEv
 .text._ZN9Scheduler3AddEP6Thread
                0x0000000000002088       0x36 /home/moslevin/m3/mark3/embedded/stage/lib/avr/atmega328p/gcc/libmark3.a(scheduler.cpp.o)
                0x0000000000002088                _ZN9Scheduler3AddEP6Thread
 .text._ZN9Scheduler6RemoveEP6Thread
                0x00000000000020be       0x36 /home/moslevin/m3/mark3/embedded/stage/lib/avr/atmega328p/gcc/libmark3.a(scheduler.cpp.o)
                0x00000000000020be                _ZN9Scheduler6RemoveEP6Thread
 .text.startup._GLOBAL__sub_I_g_pstNext
                0x00000000000020f4       0x4c /home/moslevin/m3/mark3/embedded/stage/lib/avr/atmega328p/gcc/libmark3.a(scheduler.cpp.o)
 .text._ZN10ATMegaUART4OpenEv
                0x0000000000002140       0x1c /home/moslevin/m3/mark3/embedded/stage/lib/avr/atmega328p/gcc/libdrvUART.a(drvUART.cpp.o)
                0x0000000000002140                _ZN10ATMegaUART4OpenEv
 .text._ZN10ATMegaUART5CloseEv
                0x000000000000215c       0x14 /home/moslevin/m3/mark3/embedded/stage/lib/avr/atmega328p/gcc/libdrvUART.a(drvUART.cpp.o)
                0x000000000000215c                _ZN10ATMegaUART5CloseEv
 .text._ZN10ATMegaUART4ReadEjPh
                0x0000000000002170       0x8e /home/moslevin/m3/mark3/embedded/stage/lib/avr/atmega328p/gcc/libdrvUART.a(drvUART.cpp.o)
                0x0000000000002170                _ZN10ATMegaUART4ReadEjPh
 .text._ZN10ATMegaUART7SetBaudEv
                0x00000000000021fe       0x32 /home/moslevin/m3/mark3/embedded/stage/lib/avr/atmega328p/gcc/libdrvUART.a(drvUART.cpp.o)
                0x00000000000021fe                _ZN10ATMegaUART7SetBaudEv
 .text._ZN10ATMegaUART7ControlEjPvjS0_j
                0x0000000000002230       0x86 /home/moslevin/m3/mark3/embedded/stage/lib/avr/atmega328p/gcc/libdrvUART.a(drvUART.cpp.o)
                0x0000000000002230                _ZN10ATMegaUART7ControlEjPvjS0_j
 .text._ZN10ATMegaUART4InitEv
                0x00000000000022b6       0x3c /home/moslevin/m3/mark3/embedded/stage/lib/avr/atmega328p/gcc/libdrvUART.a(drvUART.cpp.o)
                0x00000000000022b6                _ZN10ATMegaUART4InitEv
 .text._ZN10ATMegaUART7StartTxEv
                0x00000000000022f2       0x3c /home/moslevin/m3/mark3/embedded/stage/lib/avr/atmega328p/gcc/libdrvUART.a(drvUART.cpp.o)
                0x00000000000022f2                _ZN10ATMegaUART7StartTxEv
 .text._ZN10ATMegaUART5WriteEjPh
                0x000000000000232e       0xc0 /home/moslevin/m3/mark3/embedded/stage/lib/avr/atmega328p/gcc/libdrvUART.a(drvUART.cpp.o)
                0x000000000000232e                _ZN10ATMegaUART5WriteEjPh
 .text._ZN10ATMegaUART5RxISREv
                0x00000000000023ee       0xb2 /home/moslevin/m3/mark3/embedded/stage/lib/avr/atmega328p/gcc/libdrvUART.a(drvUART.cpp.o)
                0x00000000000023ee                _ZN10ATMegaUART5RxISREv
 .text.__vector_18
                0x00000000000024a0       0x50 /home/moslevin/m3/mark3/embedded/stage/lib/avr/atmega328p/gcc/libdrvUART.a(drvUART.cpp.o)
                0x00000000000024a0                __vector_18
 .text._ZN10ATMegaUART5TxISREv
                0x00000000000024f0       0x10 /home/moslevin/m3/mark3/embedded/stage/lib/avr/atmega328p/gcc/libdrvUART.a(drvUART.cpp.o)
                0x00000000000024f0                _ZN10ATMegaUART5TxISREv
 .text.__vector_20
                0x0000000000002500       0x50 /home/moslevin/m3/mark3/embedded/stage/lib/avr/atmega328p/gcc/libdrvUART.a(drvUART.cpp.o)
                0x0000000000002500                __vector_20
 .text._ZN8UnitTestC2Ev
                0x0000000000002550       0x10 /home/moslevin/m3/mark3/embedded/stage/lib/avr/atmega328p/gcc/libunit_test.a(unit_test.cpp.o)
                0x0000000000002550                _ZN8UnitTestC2Ev
                0x0000000000002550                _ZN8UnitTestC1Ev
 .text._ZN8UnitTest4PassEv
                0x0000000000002560       0x2a /home/moslevin/m3/mark3/embedded/stage/lib/avr/atmega328p/gcc/libunit_test.a(unit_test.cpp.o)
                0x0000000000002560                _ZN8UnitTest4PassEv
 .text._ZN8UnitTest4FailEv
                0x000000000000258a       0x1e /home/moslevin/m3/mark3/embedded/stage/lib/avr/atmega328p/gcc/libunit_test.a(unit_test.cpp.o)
                0x000000000000258a                _ZN8UnitTest4FailEv
 .text._ZN7MemUtil15DecimalToStringEjPc
                0x00000000000025a8       0x68 /home/moslevin/m3/mark3/embedded/stage/lib/avr/atmega328p/gcc/libmemutil.a(memutil.cpp.o)
                0x00000000000025a8                _ZN7MemUtil15DecimalToStringEjPc
 .text._ZN7MemUtil12StringLengthEPKc
                0x0000000000002610       0x16 /home/moslevin/m3/mark3/embedded/stage/lib/avr/atmega328p/gcc/libmemutil.a(memutil.cpp.o)
                0x0000000000002610                _ZN7MemUtil12StringLengthEPKc
 .text.libgcc   0x0000000000002626       0x3e /home/moslevin/atmel/bin/../lib/gcc/avr/4.6.2/avr5/libgcc.a(_mulsi3.o)
                0x0000000000002626                __mulsi3
 .text.libgcc   0x0000000000002664       0x28 /home/moslevin/atmel/bin/../lib/gcc/avr/4.6.2/avr5/libgcc.a(_udivmodhi4.o)
                0x0000000000002664                __udivmodhi4
 .text.libgcc   0x000000000000268c       0x44 /home/moslevin/atmel/bin/../lib/gcc/avr/4.6.2/avr5/libgcc.a(_udivmodsi4.o)
                0x000000000000268c                __udivmodsi4
 .text.libgcc   0x00000000000026d0        0xc /home/moslevin/atmel/bin/../lib/gcc/avr/4.6.2/avr5/libgcc.a(_tablejump.o)
                0x00000000000026d0                __tablejump2__
                0x00000000000026d4                __tablejump__
                0x00000000000026dc                . = ALIGN (0x2)
 *(.fini9)
 .fini9         0x00000000000026dc        0x0 /home/moslevin/atmel/bin/../lib/gcc/avr/4.6.2/avr5/libgcc.a(_exit.o)
                0x00000000000026dc                exit
                0x00000000000026dc                _exit
 *(.fini9)
 *(.fini8)
 *(.fini8)
 *(.fini7)
 *(.fini7)
 *(.fini6)
 *(.fini6)
 *(.fini5)
 *(.fini5)
 *(.fini4)
 *(.fini4)
 *(.fini3)
 *(.fini3)
 *(.fini2)
 *(.fini2)
 *(.fini1)
 *(.fini1)
 *(.fini0)
 .fini0         0x00000000000026dc        0x4 /home/moslevin/atmel/bin/../lib/gcc/avr/4.6.2/avr5/libgcc.a(_exit.o)
 *(.fini0)
                0x00000000000026e0                _etext = .

.data           0x0000000000800100       0xf6 load address 0x00000000000026e0
                0x0000000000800100                PROVIDE (__data_start, .)
 *(.data)
 .data          0x0000000000800100        0x0 /home/moslevin/atmel/bin/../lib/gcc/avr/4.6.2/../../../../avr/lib/avr5/crtm328p.o
 .data          0x0000000000800100       0x61 ./obj/avr/atmega328p/gcc/ut_timers.cpp.o
                0x0000000000800143                astTestCases
 .data          0x0000000000800161       0x33 ./obj/avr/atmega328p/gcc/../ut_platform.cpp.o
 .data          0x0000000000800194       0x1a /home/moslevin/m3/mark3/embedded/stage/lib/avr/atmega328p/gcc/libmark3.a(driver.cpp.o)
                0x000000000080019e                _ZTV7DevNull
 .data          0x00000000008001ae       0x10 /home/moslevin/m3/mark3/embedded/stage/lib/avr/atmega328p/gcc/libmark3.a(ll.cpp.o)
                0x00000000008001ae                _ZTV14DoubleLinkList
                0x00000000008001b6                _ZTV16CircularLinkList
 .data          0x00000000008001be        0x0 /home/moslevin/m3/mark3/embedded/stage/lib/avr/atmega328p/gcc/libmark3.a(profile.cpp.o)
 .data          0x00000000008001be        0x0 /home/moslevin/m3/mark3/embedded/stage/lib/avr/atmega328p/gcc/libmark3.a(ksemaphore.cpp.o)
 .data          0x00000000008001be        0x0 /home/moslevin/m3/mark3/embedded/stage/lib/avr/atmega328p/gcc/libmark3.a(thread.cpp.o)
 .data          0x00000000008001be        0x8 /home/moslevin/m3/mark3/embedded/stage/lib/avr/atmega328p/gcc/libmark3.a(threadlist.cpp.o)
                0x00000000008001be                _ZTV10ThreadList
 .data          0x00000000008001c6        0x0 /home/moslevin/m3/mark3/embedded/stage/lib/avr/atmega328p/gcc/libmark3.a(kernel.cpp.o)
 .data          0x00000000008001c6        0x8 /home/moslevin/m3/mark3/embedded/stage/lib/avr/atmega328p/gcc/libmark3.a(timerlist.cpp.o)
                0x00000000008001c6                _ZTV9TimerList
 .data          0x00000000008001ce        0x0 /home/moslevin/m3/mark3/embedded/stage/lib/avr/atmega328p/gcc/libmark3.a(threadport.cpp.o)
 .data          0x00000000008001ce        0x0 /home/moslevin/m3/mark3/embedded/stage/lib/avr/atmega328p/gcc/libmark3.a(kernelswi.cpp.o)
 .data          0x00000000008001ce        0x0 /home/moslevin/m3/mark3/embedded/stage/lib/avr/atmega328p/gcc/libmark3.a(kerneltimer.cpp.o)
 .data          0x00000000008001ce        0x0 /home/moslevin/m3/mark3/embedded/stage/lib/avr/atmega328p/gcc/libmark3.a(kprofile.cpp.o)
 .data          0x00000000008001ce        0x0 /home/moslevin/m3/mark3/embedded/stage/lib/avr/atmega328p/gcc/libmark3.a(blocking.cpp.o)
 .data          0x00000000008001ce        0x0 /home/moslevin/m3/mark3/embedded/stage/lib/avr/atmega328p/gcc/libmark3.a(message.cpp.o)
 .data          0x00000000008001ce        0x0 /home/moslevin/m3/mark3/embedded/stage/lib/avr/atmega328p/gcc/libmark3.a(quantum.cpp.o)
 .data          0x00000000008001ce       0x18 /home/moslevin/m3/mark3/embedded/stage/lib/avr/atmega328p/gcc/libmark3.a(scheduler.cpp.o)
                0x00000000008001de                _ZTV8LinkList
 .data          0x00000000008001e6       0x10 /home/moslevin/m3/mark3/embedded/stage/lib/avr/atmega328p/gcc/libdrvUART.a(drvUART.cpp.o)
                0x00000000008001e6                _ZTV10ATMegaUART
 .data          0x00000000008001f6        0x0 /home/moslevin/m3/mark3/embedded/stage/lib/avr/atmega328p/gcc/libunit_test.a(unit_test.cpp.o)
 .data          0x00000000008001f6        0x0 /home/moslevin/m3/mark3/embedded/stage/lib/avr/atmega328p/gcc/libmemutil.a(memutil.cpp.o)
 .data          0x00000000008001f6        0x0 /home/moslevin/atmel/bin/../lib/gcc/avr/4.6.2/avr5/libgcc.a(_mulsi3.o)
 .data          0x00000000008001f6        0x0 /home/moslevin/atmel/bin/../lib/gcc/avr/4.6.2/avr5/libgcc.a(_udivmodqi4.o)
 .data          0x00000000008001f6        0x0 /home/moslevin/atmel/bin/../lib/gcc/avr/4.6.2/avr5/libgcc.a(_udivmodhi4.o)
 .data          0x00000000008001f6        0x0 /home/moslevin/atmel/bin/../lib/gcc/avr/4.6.2/avr5/libgcc.a(_udivmodsi4.o)
 .data          0x00000000008001f6        0x0 /home/moslevin/atmel/bin/../lib/gcc/avr/4.6.2/avr5/libgcc.a(_exit.o)
 .data          0x00000000008001f6        0x0 /home/moslevin/atmel/bin/../lib/gcc/avr/4.6.2/avr5/libgcc.a(_copy_data.o)
 .data          0x00000000008001f6        0x0 /home/moslevin/atmel/bin/../lib/gcc/avr/4.6.2/avr5/libgcc.a(_clear_bss.o)
 .data          0x00000000008001f6        0x0 /home/moslevin/atmel/bin/../lib/gcc/avr/4.6.2/avr5/libgcc.a(_ctors.o)
 .data          0x00000000008001f6        0x0 /home/moslevin/atmel/bin/../lib/gcc/avr/4.6.2/avr5/libgcc.a(_tablejump.o)
 *(.data*)
 *(.rodata)
 *(.rodata*)
 *(.gnu.linkonce.d*)
                0x00000000008001f6                . = ALIGN (0x2)
                0x00000000008001f6                _edata = .
                0x00000000008001f6                PROVIDE (__data_end, .)

.bss            0x00000000008001f6      0x3ab
                0x00000000008001f6                PROVIDE (__bss_start, .)
 *(.bss)
 .bss           0x00000000008001f6       0xaa ./obj/avr/atmega328p/gcc/ut_timers.cpp.o
 .bss           0x00000000008002a0      0x22d ./obj/avr/atmega328p/gcc/../ut_platform.cpp.o
 .bss           0x00000000008004cd        0xe /home/moslevin/m3/mark3/embedded/stage/lib/avr/atmega328p/gcc/libmark3.a(driver.cpp.o)
                0x00000000008004cd                _ZN10DriverList14m_clDriverListE
 .bss           0x00000000008004db        0x1 /home/moslevin/m3/mark3/embedded/stage/lib/avr/atmega328p/gcc/libmark3.a(thread.cpp.o)
 .bss           0x00000000008004dc        0x1 /home/moslevin/m3/mark3/embedded/stage/lib/avr/atmega328p/gcc/libmark3.a(kernel.cpp.o)
                0x00000000008004dc                _ZN6Kernel12m_bIsStartedE
 .bss           0x00000000008004dd        0xb /home/moslevin/m3/mark3/embedded/stage/lib/avr/atmega328p/gcc/libmark3.a(timerlist.cpp.o)
                0x00000000008004dd                _ZN14TimerScheduler13m_clTimerListE
 .bss           0x00000000008004e8        0x4 /home/moslevin/m3/mark3/embedded/stage/lib/avr/atmega328p/gcc/libmark3.a(kprofile.cpp.o)
                0x00000000008004e8                _ZN8Profiler9m_ulEpochE
 .bss           0x00000000008004ec       0x46 /home/moslevin/m3/mark3/embedded/stage/lib/avr/atmega328p/gcc/libmark3.a(message.cpp.o)
                0x00000000008004ec                _ZN17GlobalMessagePool8m_clListE
                0x00000000008004f2                _ZN17GlobalMessagePool16m_aclMessagePoolE
 .bss           0x0000000000800532       0x15 /home/moslevin/m3/mark3/embedded/stage/lib/avr/atmega328p/gcc/libmark3.a(quantum.cpp.o)
                0x0000000000800532                _ZN7Quantum9m_bActiveE
                0x0000000000800533                _ZN7Quantum16m_clQuantumTimerE
 .bss           0x0000000000800547       0x58 /home/moslevin/m3/mark3/embedded/stage/lib/avr/atmega328p/gcc/libmark3.a(scheduler.cpp.o)
                0x0000000000800547                g_ucFlag
                0x0000000000800548                _ZN9Scheduler11m_ucPriFlagE
                0x0000000000800549                _ZN9Scheduler15m_aclPrioritiesE
                0x0000000000800591                _ZN9Scheduler12m_clStopListE
                0x000000000080059a                _ZN9Scheduler10m_bEnabledE
                0x000000000080059b                g_pstCurrent
                0x000000000080059d                g_pstNext
 .bss           0x000000000080059f        0x2 /home/moslevin/m3/mark3/embedded/stage/lib/avr/atmega328p/gcc/libdrvUART.a(drvUART.cpp.o)
 *(.bss*)
 *(COMMON)
                0x00000000008005a1                PROVIDE (__bss_end, .)
                0x00000000000026e0                __data_load_start = LOADADDR (.data)
                0x00000000000027d6                __data_load_end = (__data_load_start + SIZEOF (.data))

.noinit         0x00000000008005a1        0x0
                0x00000000008005a1                PROVIDE (__noinit_start, .)
 *(.noinit*)
                0x00000000008005a1                PROVIDE (__noinit_end, .)
                0x00000000008005a1                _end = .
                0x00000000008005a1                PROVIDE (__heap_start, .)

.eeprom         0x0000000000810000        0x0
 *(.eeprom*)
                0x0000000000810000                __eeprom_end = .

.fuse
 *(.fuse)
 *(.lfuse)
 *(.hfuse)
 *(.efuse)

.lock
 *(.lock*)

.signature
 *(.signature*)

.stab           0x0000000000000000      0x6cc
 *(.stab)
 .stab          0x0000000000000000      0x6cc /home/moslevin/atmel/bin/../lib/gcc/avr/4.6.2/../../../../avr/lib/avr5/crtm328p.o

.stabstr        0x0000000000000000       0x85
 *(.stabstr)
 .stabstr       0x0000000000000000       0x85 /home/moslevin/atmel/bin/../lib/gcc/avr/4.6.2/../../../../avr/lib/avr5/crtm328p.o

.stab.excl
 *(.stab.excl)

.stab.exclstr
 *(.stab.exclstr)

.stab.index
 *(.stab.index)

.stab.indexstr
 *(.stab.indexstr)

.comment
 *(.comment)

.debug
 *(.debug)

.line
 *(.line)

.debug_srcinfo
 *(.debug_srcinfo)

.debug_sfnames
 *(.debug_sfnames)

.debug_aranges  0x0000000000000000      0x6f8
 *(.debug_aranges)
 .debug_aranges
                0x0000000000000000       0x58 ./obj/avr/atmega328p/gcc/ut_timers.cpp.o
 .debug_aranges
                0x0000000000000058       0x60 ./obj/avr/atmega328p/gcc/../ut_platform.cpp.o
 .debug_aranges
                0x00000000000000b8       0x60 /home/moslevin/m3/mark3/embedded/stage/lib/avr/atmega328p/gcc/libmark3.a(driver.cpp.o)
 .debug_aranges
                0x0000000000000118       0x50 /home/moslevin/m3/mark3/embedded/stage/lib/avr/atmega328p/gcc/libmark3.a(ll.cpp.o)
 .debug_aranges
                0x0000000000000168       0x48 /home/moslevin/m3/mark3/embedded/stage/lib/avr/atmega328p/gcc/libmark3.a(profile.cpp.o)
 .debug_aranges
                0x00000000000001b0       0x58 /home/moslevin/m3/mark3/embedded/stage/lib/avr/atmega328p/gcc/libmark3.a(ksemaphore.cpp.o)
 .debug_aranges
                0x0000000000000208       0x78 /home/moslevin/m3/mark3/embedded/stage/lib/avr/atmega328p/gcc/libmark3.a(thread.cpp.o)
 .debug_aranges
                0x0000000000000280       0x48 /home/moslevin/m3/mark3/embedded/stage/lib/avr/atmega328p/gcc/libmark3.a(threadlist.cpp.o)
 .debug_aranges
                0x00000000000002c8       0x28 /home/moslevin/m3/mark3/embedded/stage/lib/avr/atmega328p/gcc/libmark3.a(kernel.cpp.o)
 .debug_aranges
                0x00000000000002f0       0x70 /home/moslevin/m3/mark3/embedded/stage/lib/avr/atmega328p/gcc/libmark3.a(timerlist.cpp.o)
 .debug_aranges
                0x0000000000000360       0x38 /home/moslevin/m3/mark3/embedded/stage/lib/avr/atmega328p/gcc/libmark3.a(threadport.cpp.o)
 .debug_aranges
                0x0000000000000398       0x50 /home/moslevin/m3/mark3/embedded/stage/lib/avr/atmega328p/gcc/libmark3.a(kernelswi.cpp.o)
 .debug_aranges
                0x00000000000003e8       0x78 /home/moslevin/m3/mark3/embedded/stage/lib/avr/atmega328p/gcc/libmark3.a(kerneltimer.cpp.o)
 .debug_aranges
                0x0000000000000460       0x48 /home/moslevin/m3/mark3/embedded/stage/lib/avr/atmega328p/gcc/libmark3.a(kprofile.cpp.o)
 .debug_aranges
                0x00000000000004a8       0x28 /home/moslevin/m3/mark3/embedded/stage/lib/avr/atmega328p/gcc/libmark3.a(blocking.cpp.o)
 .debug_aranges
                0x00000000000004d0       0x60 /home/moslevin/m3/mark3/embedded/stage/lib/avr/atmega328p/gcc/libmark3.a(message.cpp.o)
 .debug_aranges
                0x0000000000000530       0x48 /home/moslevin/m3/mark3/embedded/stage/lib/avr/atmega328p/gcc/libmark3.a(quantum.cpp.o)
 .debug_aranges
                0x0000000000000578       0x40 /home/moslevin/m3/mark3/embedded/stage/lib/avr/atmega328p/gcc/libmark3.a(scheduler.cpp.o)
 .debug_aranges
                0x00000000000005b8       0x78 /home/moslevin/m3/mark3/embedded/stage/lib/avr/atmega328p/gcc/libdrvUART.a(drvUART.cpp.o)
 .debug_aranges
                0x0000000000000630       0x30 /home/moslevin/m3/mark3/embedded/stage/lib/avr/atmega328p/gcc/libunit_test.a(unit_test.cpp.o)
 .debug_aranges
                0x0000000000000660       0x98 /home/moslevin/m3/mark3/embedded/stage/lib/avr/atmega328p/gcc/libmemutil.a(memutil.cpp.o)

.debug_pubnames
 *(.debug_pubnames)

.debug_info     0x0000000000000000     0xe147
 *(.debug_info)
 .debug_info    0x0000000000000000     0x1952 ./obj/avr/atmega328p/gcc/ut_timers.cpp.o
 .debug_info    0x0000000000001952     0x125b ./obj/avr/atmega328p/gcc/../ut_platform.cpp.o
 .debug_info    0x0000000000002bad      0xb0e /home/moslevin/m3/mark3/embedded/stage/lib/avr/atmega328p/gcc/libmark3.a(driver.cpp.o)
 .debug_info    0x00000000000036bb      0x5a7 /home/moslevin/m3/mark3/embedded/stage/lib/avr/atmega328p/gcc/libmark3.a(ll.cpp.o)
 .debug_info    0x0000000000003c62      0x851 /home/moslevin/m3/mark3/embedded/stage/lib/avr/atmega328p/gcc/libmark3.a(profile.cpp.o)
 .debug_info    0x00000000000044b3      0xe16 /home/moslevin/m3/mark3/embedded/stage/lib/avr/atmega328p/gcc/libmark3.a(ksemaphore.cpp.o)
 .debug_info    0x00000000000052c9     0x13fd /home/moslevin/m3/mark3/embedded/stage/lib/avr/atmega328p/gcc/libmark3.a(thread.cpp.o)
 .debug_info    0x00000000000066c6      0xa43 /home/moslevin/m3/mark3/embedded/stage/lib/avr/atmega328p/gcc/libmark3.a(threadlist.cpp.o)
 .debug_info    0x0000000000007109      0x5b5 /home/moslevin/m3/mark3/embedded/stage/lib/avr/atmega328p/gcc/libmark3.a(kernel.cpp.o)
 .debug_info    0x00000000000076be      0xed3 /home/moslevin/m3/mark3/embedded/stage/lib/avr/atmega328p/gcc/libmark3.a(timerlist.cpp.o)
 .debug_info    0x0000000000008591      0x699 /home/moslevin/m3/mark3/embedded/stage/lib/avr/atmega328p/gcc/libmark3.a(threadport.cpp.o)
 .debug_info    0x0000000000008c2a      0x192 /home/moslevin/m3/mark3/embedded/stage/lib/avr/atmega328p/gcc/libmark3.a(kernelswi.cpp.o)
 .debug_info    0x0000000000008dbc      0x320 /home/moslevin/m3/mark3/embedded/stage/lib/avr/atmega328p/gcc/libmark3.a(kerneltimer.cpp.o)
 .debug_info    0x00000000000090dc      0x64b /home/moslevin/m3/mark3/embedded/stage/lib/avr/atmega328p/gcc/libmark3.a(kprofile.cpp.o)
 .debug_info    0x0000000000009727      0x673 /home/moslevin/m3/mark3/embedded/stage/lib/avr/atmega328p/gcc/libmark3.a(blocking.cpp.o)
 .debug_info    0x0000000000009d9a      0xdaf /home/moslevin/m3/mark3/embedded/stage/lib/avr/atmega328p/gcc/libmark3.a(message.cpp.o)
 .debug_info    0x000000000000ab49      0xcde /home/moslevin/m3/mark3/embedded/stage/lib/avr/atmega328p/gcc/libmark3.a(quantum.cpp.o)
 .debug_info    0x000000000000b827      0x9b2 /home/moslevin/m3/mark3/embedded/stage/lib/avr/atmega328p/gcc/libmark3.a(scheduler.cpp.o)
 .debug_info    0x000000000000c1d9      0xed6 /home/moslevin/m3/mark3/embedded/stage/lib/avr/atmega328p/gcc/libdrvUART.a(drvUART.cpp.o)
 .debug_info    0x000000000000d0af      0x710 /home/moslevin/m3/mark3/embedded/stage/lib/avr/atmega328p/gcc/libunit_test.a(unit_test.cpp.o)
 .debug_info    0x000000000000d7bf      0x988 /home/moslevin/m3/mark3/embedded/stage/lib/avr/atmega328p/gcc/libmemutil.a(memutil.cpp.o)
 *(.gnu.linkonce.wi.*)

.debug_abbrev   0x0000000000000000     0x40c1
 *(.debug_abbrev)
 .debug_abbrev  0x0000000000000000      0x45c ./obj/avr/atmega328p/gcc/ut_timers.cpp.o
 .debug_abbrev  0x000000000000045c      0x481 ./obj/avr/atmega328p/gcc/../ut_platform.cpp.o
 .debug_abbrev  0x00000000000008dd      0x3a8 /home/moslevin/m3/mark3/embedded/stage/lib/avr/atmega328p/gcc/libmark3.a(driver.cpp.o)
 .debug_abbrev  0x0000000000000c85      0x272 /home/moslevin/m3/mark3/embedded/stage/lib/avr/atmega328p/gcc/libmark3.a(ll.cpp.o)
 .debug_abbrev  0x0000000000000ef7      0x29b /home/moslevin/m3/mark3/embedded/stage/lib/avr/atmega328p/gcc/libmark3.a(profile.cpp.o)
 .debug_abbrev  0x0000000000001192      0x40c /home/moslevin/m3/mark3/embedded/stage/lib/avr/atmega328p/gcc/libmark3.a(ksemaphore.cpp.o)
 .debug_abbrev  0x000000000000159e      0x4b9 /home/moslevin/m3/mark3/embedded/stage/lib/avr/atmega328p/gcc/libmark3.a(thread.cpp.o)
 .debug_abbrev  0x0000000000001a57      0x349 /home/moslevin/m3/mark3/embedded/stage/lib/avr/atmega328p/gcc/libmark3.a(threadlist.cpp.o)
 .debug_abbrev  0x0000000000001da0      0x22b /home/moslevin/m3/mark3/embedded/stage/lib/avr/atmega328p/gcc/libmark3.a(kernel.cpp.o)
 .debug_abbrev  0x0000000000001fcb      0x4b2 /home/moslevin/m3/mark3/embedded/stage/lib/avr/atmega328p/gcc/libmark3.a(timerlist.cpp.o)
 .debug_abbrev  0x000000000000247d      0x2e0 /home/moslevin/m3/mark3/embedded/stage/lib/avr/atmega328p/gcc/libmark3.a(threadport.cpp.o)
 .debug_abbrev  0x000000000000275d       0xd2 /home/moslevin/m3/mark3/embedded/stage/lib/avr/atmega328p/gcc/libmark3.a(kernelswi.cpp.o)
 .debug_abbrev  0x000000000000282f      0x14f /home/moslevin/m3/mark3/embedded/stage/lib/avr/atmega328p/gcc/libmark3.a(kerneltimer.cpp.o)
 .debug_abbrev  0x000000000000297e      0x268 /home/moslevin/m3/mark3/embedded/stage/lib/avr/atmega328p/gcc/libmark3.a(kprofile.cpp.o)
 .debug_abbrev  0x0000000000002be6      0x23e /home/moslevin/m3/mark3/embedded/stage/lib/avr/atmega328p/gcc/libmark3.a(blocking.cpp.o)
 .debug_abbrev  0x0000000000002e24      0x40c /home/moslevin/m3/mark3/embedded/stage/lib/avr/atmega328p/gcc/libmark3.a(message.cpp.o)
 .debug_abbrev  0x0000000000003230      0x43f /home/moslevin/m3/mark3/embedded/stage/lib/avr/atmega328p/gcc/libmark3.a(quantum.cpp.o)
 .debug_abbrev  0x000000000000366f      0x3c4 /home/moslevin/m3/mark3/embedded/stage/lib/avr/atmega328p/gcc/libmark3.a(scheduler.cpp.o)
 .debug_abbrev  0x0000000000003a33      0x3a6 /home/moslevin/m3/mark3/embedded/stage/lib/avr/atmega328p/gcc/libdrvUART.a(drvUART.cpp.o)
 .debug_abbrev  0x0000000000003dd9      0x142 /home/moslevin/m3/mark3/embedded/stage/lib/avr/atmega328p/gcc/libunit_test.a(unit_test.cpp.o)
 .debug_abbrev  0x0000000000003f1b      0x1a6 /home/moslevin/m3/mark3/embedded/stage/lib/avr/atmega328p/gcc/libmemutil.a(memutil.cpp.o)

.debug_line     0x0000000000000000     0x2573
 *(.debug_line)
 .debug_line    0x0000000000000000      0x368 ./obj/avr/atmega328p/gcc/ut_timers.cpp.o
 .debug_line    0x0000000000000368      0x236 ./obj/avr/atmega328p/gcc/../ut_platform.cpp.o
 .debug_line    0x000000000000059e      0x18d /home/moslevin/m3/mark3/embedded/stage/lib/avr/atmega328p/gcc/libmark3.a(driver.cpp.o)
 .debug_line    0x000000000000072b      0x10c /home/moslevin/m3/mark3/embedded/stage/lib/avr/atmega328p/gcc/libmark3.a(ll.cpp.o)
 .debug_line    0x0000000000000837      0x17b /home/moslevin/m3/mark3/embedded/stage/lib/avr/atmega328p/gcc/libmark3.a(profile.cpp.o)
 .debug_line    0x00000000000009b2      0x1d5 /home/moslevin/m3/mark3/embedded/stage/lib/avr/atmega328p/gcc/libmark3.a(ksemaphore.cpp.o)
 .debug_line    0x0000000000000b87      0x2e8 /home/moslevin/m3/mark3/embedded/stage/lib/avr/atmega328p/gcc/libmark3.a(thread.cpp.o)
 .debug_line    0x0000000000000e6f      0x163 /home/moslevin/m3/mark3/embedded/stage/lib/avr/atmega328p/gcc/libmark3.a(threadlist.cpp.o)
 .debug_line    0x0000000000000fd2      0x116 /home/moslevin/m3/mark3/embedded/stage/lib/avr/atmega328p/gcc/libmark3.a(kernel.cpp.o)
 .debug_line    0x00000000000010e8      0x22f /home/moslevin/m3/mark3/embedded/stage/lib/avr/atmega328p/gcc/libmark3.a(timerlist.cpp.o)
 .debug_line    0x0000000000001317      0x1a7 /home/moslevin/m3/mark3/embedded/stage/lib/avr/atmega328p/gcc/libmark3.a(threadport.cpp.o)
 .debug_line    0x00000000000014be      0x14d /home/moslevin/m3/mark3/embedded/stage/lib/avr/atmega328p/gcc/libmark3.a(kernelswi.cpp.o)
 .debug_line    0x000000000000160b      0x1c7 /home/moslevin/m3/mark3/embedded/stage/lib/avr/atmega328p/gcc/libmark3.a(kerneltimer.cpp.o)
 .debug_line    0x00000000000017d2      0x166 /home/moslevin/m3/mark3/embedded/stage/lib/avr/atmega328p/gcc/libmark3.a(kprofile.cpp.o)
 .debug_line    0x0000000000001938      0x117 /home/moslevin/m3/mark3/embedded/stage/lib/avr/atmega328p/gcc/libmark3.a(blocking.cpp.o)
 .debug_line    0x0000000000001a4f      0x1d6 /home/moslevin/m3/mark3/embedded/stage/lib/avr/atmega328p/gcc/libmark3.a(message.cpp.o)
 .debug_line    0x0000000000001c25      0x196 /home/moslevin/m3/mark3/embedded/stage/lib/avr/atmega328p/gcc/libmark3.a(quantum.cpp.o)
 .debug_line    0x0000000000001dbb      0x175 /home/moslevin/m3/mark3/embedded/stage/lib/avr/atmega328p/gcc/libmark3.a(scheduler.cpp.o)
 .debug_line    0x0000000000001f30      0x238 /home/moslevin/m3/mark3/embedded/stage/lib/avr/atmega328p/gcc/libdrvUART.a(drvUART.cpp.o)
 .debug_line    0x0000000000002168       0xf4 /home/moslevin/m3/mark3/embedded/stage/lib/avr/atmega328p/gcc/libunit_test.a(unit_test.cpp.o)
 .debug_line    0x000000000000225c      0x317 /home/moslevin/m3/mark3/embedded/stage/lib/avr/atmega328p/gcc/libmemutil.a(memutil.cpp.o)

.debug_frame    0x0000000000000000     0x137c
 *(.debug_frame)
 .debug_frame   0x0000000000000000      0x188 ./obj/avr/atmega328p/gcc/ut_timers.cpp.o
 .debug_frame   0x0000000000000188      0x110 ./obj/avr/atmega328p/gcc/../ut_platform.cpp.o
 .debug_frame   0x0000000000000298       0xb0 /home/moslevin/m3/mark3/embedded/stage/lib/avr/atmega328p/gcc/libmark3.a(driver.cpp.o)
 .debug_frame   0x0000000000000348       0xb4 /home/moslevin/m3/mark3/embedded/stage/lib/avr/atmega328p/gcc/libmark3.a(ll.cpp.o)
 .debug_frame   0x00000000000003fc       0xe0 /home/moslevin/m3/mark3/embedded/stage/lib/avr/atmega328p/gcc/libmark3.a(profile.cpp.o)
 .debug_frame   0x00000000000004dc      0x120 /home/moslevin/m3/mark3/embedded/stage/lib/avr/atmega328p/gcc/libmark3.a(ksemaphore.cpp.o)
 .debug_frame   0x00000000000005fc      0x1e4 /home/moslevin/m3/mark3/embedded/stage/lib/avr/atmega328p/gcc/libmark3.a(thread.cpp.o)
 .debug_frame   0x00000000000007e0       0x8c /home/moslevin/m3/mark3/embedded/stage/lib/avr/atmega328p/gcc/libmark3.a(threadlist.cpp.o)
 .debug_frame   0x000000000000086c       0x34 /home/moslevin/m3/mark3/embedded/stage/lib/avr/atmega328p/gcc/libmark3.a(kernel.cpp.o)
 .debug_frame   0x00000000000008a0      0x180 /home/moslevin/m3/mark3/embedded/stage/lib/avr/atmega328p/gcc/libmark3.a(timerlist.cpp.o)
 .debug_frame   0x0000000000000a20       0xa8 /home/moslevin/m3/mark3/embedded/stage/lib/avr/atmega328p/gcc/libmark3.a(threadport.cpp.o)
 .debug_frame   0x0000000000000ac8       0x84 /home/moslevin/m3/mark3/embedded/stage/lib/avr/atmega328p/gcc/libmark3.a(kernelswi.cpp.o)
 .debug_frame   0x0000000000000b4c       0xf0 /home/moslevin/m3/mark3/embedded/stage/lib/avr/atmega328p/gcc/libmark3.a(kerneltimer.cpp.o)
 .debug_frame   0x0000000000000c3c       0xdc /home/moslevin/m3/mark3/embedded/stage/lib/avr/atmega328p/gcc/libmark3.a(kprofile.cpp.o)
 .debug_frame   0x0000000000000d18       0x54 /home/moslevin/m3/mark3/embedded/stage/lib/avr/atmega328p/gcc/libmark3.a(blocking.cpp.o)
 .debug_frame   0x0000000000000d6c      0x140 /home/moslevin/m3/mark3/embedded/stage/lib/avr/atmega328p/gcc/libmark3.a(message.cpp.o)
 .debug_frame   0x0000000000000eac       0x80 /home/moslevin/m3/mark3/embedded/stage/lib/avr/atmega328p/gcc/libmark3.a(quantum.cpp.o)
 .debug_frame   0x0000000000000f2c       0x78 /home/moslevin/m3/mark3/embedded/stage/lib/avr/atmega328p/gcc/libmark3.a(scheduler.cpp.o)
 .debug_frame   0x0000000000000fa4      0x1ec /home/moslevin/m3/mark3/embedded/stage/lib/avr/atmega328p/gcc/libdrvUART.a(drvUART.cpp.o)
 .debug_frame   0x0000000000001190       0x44 /home/moslevin/m3/mark3/embedded/stage/lib/avr/atmega328p/gcc/libunit_test.a(unit_test.cpp.o)
 .debug_frame   0x00000000000011d4      0x1a8 /home/moslevin/m3/mark3/embedded/stage/lib/avr/atmega328p/gcc/libmemutil.a(memutil.cpp.o)

.debug_str      0x0000000000000000     0x2f47
 *(.debug_str)
 .debug_str     0x0000000000000000     0x12b0 ./obj/avr/atmega328p/gcc/ut_timers.cpp.o
                                       0x13a4 (size before relaxing)
 .debug_str     0x00000000000012b0      0x2c2 ./obj/avr/atmega328p/gcc/../ut_platform.cpp.o
                                        0xf45 (size before relaxing)
 .debug_str     0x0000000000001572      0x1c1 /home/moslevin/m3/mark3/embedded/stage/lib/avr/atmega328p/gcc/libmark3.a(driver.cpp.o)
                                        0x552 (size before relaxing)
 .debug_str     0x0000000000001733      0x11f /home/moslevin/m3/mark3/embedded/stage/lib/avr/atmega328p/gcc/libmark3.a(ll.cpp.o)
                                        0x347 (size before relaxing)
 .debug_str     0x0000000000001852       0x64 /home/moslevin/m3/mark3/embedded/stage/lib/avr/atmega328p/gcc/libmark3.a(profile.cpp.o)
                                        0x6f1 (size before relaxing)
 .debug_str     0x00000000000018b6      0x110 /home/moslevin/m3/mark3/embedded/stage/lib/avr/atmega328p/gcc/libmark3.a(ksemaphore.cpp.o)
                                        0xacf (size before relaxing)
 .debug_str     0x00000000000019c6      0x1b4 /home/moslevin/m3/mark3/embedded/stage/lib/avr/atmega328p/gcc/libmark3.a(thread.cpp.o)
                                        0xbed (size before relaxing)
 .debug_str     0x0000000000001b7a      0x127 /home/moslevin/m3/mark3/embedded/stage/lib/avr/atmega328p/gcc/libmark3.a(threadlist.cpp.o)
                                        0x764 (size before relaxing)
 .debug_str     0x0000000000001ca1       0x72 /home/moslevin/m3/mark3/embedded/stage/lib/avr/atmega328p/gcc/libmark3.a(kernel.cpp.o)
                                        0x5c0 (size before relaxing)
 .debug_str     0x0000000000001d13      0x18f /home/moslevin/m3/mark3/embedded/stage/lib/avr/atmega328p/gcc/libmark3.a(timerlist.cpp.o)
                                        0xa96 (size before relaxing)
 .debug_str     0x0000000000001ea2      0x130 /home/moslevin/m3/mark3/embedded/stage/lib/avr/atmega328p/gcc/libmark3.a(threadport.cpp.o)
                                        0x684 (size before relaxing)
 .debug_str     0x0000000000001fd2       0xda /home/moslevin/m3/mark3/embedded/stage/lib/avr/atmega328p/gcc/libmark3.a(kernelswi.cpp.o)
                                        0x19c (size before relaxing)
 .debug_str     0x00000000000020ac      0x1f0 /home/moslevin/m3/mark3/embedded/stage/lib/avr/atmega328p/gcc/libmark3.a(kerneltimer.cpp.o)
                                        0x2d0 (size before relaxing)
 .debug_str     0x000000000000229c       0xba /home/moslevin/m3/mark3/embedded/stage/lib/avr/atmega328p/gcc/libmark3.a(kprofile.cpp.o)
                                        0x60e (size before relaxing)
 .debug_str     0x0000000000002356        0xd /home/moslevin/m3/mark3/embedded/stage/lib/avr/atmega328p/gcc/libmark3.a(blocking.cpp.o)
                                        0x5cf (size before relaxing)
 .debug_str     0x0000000000002363      0x272 /home/moslevin/m3/mark3/embedded/stage/lib/avr/atmega328p/gcc/libmark3.a(message.cpp.o)
                                        0xad4 (size before relaxing)
 .debug_str     0x00000000000025d5      0x123 /home/moslevin/m3/mark3/embedded/stage/lib/avr/atmega328p/gcc/libmark3.a(quantum.cpp.o)
                                        0xa57 (size before relaxing)
 .debug_str     0x00000000000026f8      0x14c /home/moslevin/m3/mark3/embedded/stage/lib/avr/atmega328p/gcc/libmark3.a(scheduler.cpp.o)
                                        0x7d1 (size before relaxing)
 .debug_str     0x0000000000002844      0x2d1 /home/moslevin/m3/mark3/embedded/stage/lib/avr/atmega328p/gcc/libdrvUART.a(drvUART.cpp.o)
                                        0x9b0 (size before relaxing)
 .debug_str     0x0000000000002b15       0x42 /home/moslevin/m3/mark3/embedded/stage/lib/avr/atmega328p/gcc/libunit_test.a(unit_test.cpp.o)
                                        0x726 (size before relaxing)
 .debug_str     0x0000000000002b57      0x3f0 /home/moslevin/m3/mark3/embedded/stage/lib/avr/atmega328p/gcc/libmemutil.a(memutil.cpp.o)
                                        0x4cc (size before relaxing)

.debug_loc      0x0000000000000000     0x469b
 *(.debug_loc)
 .debug_loc     0x0000000000000000      0x445 ./obj/avr/atmega328p/gcc/ut_timers.cpp.o
 .debug_loc     0x0000000000000445      0x2ac ./obj/avr/atmega328p/gcc/../ut_platform.cpp.o
 .debug_loc     0x00000000000006f1      0x16c /home/moslevin/m3/mark3/embedded/stage/lib/avr/atmega328p/gcc/libmark3.a(driver.cpp.o)
 .debug_loc     0x000000000000085d      0x24c /home/moslevin/m3/mark3/embedded/stage/lib/avr/atmega328p/gcc/libmark3.a(ll.cpp.o)
 .debug_loc     0x0000000000000aa9      0x425 /home/moslevin/m3/mark3/embedded/stage/lib/avr/atmega328p/gcc/libmark3.a(profile.cpp.o)
 .debug_loc     0x0000000000000ece      0x4ae /home/moslevin/m3/mark3/embedded/stage/lib/avr/atmega328p/gcc/libmark3.a(ksemaphore.cpp.o)
 .debug_loc     0x000000000000137c      0x873 /home/moslevin/m3/mark3/embedded/stage/lib/avr/atmega328p/gcc/libmark3.a(thread.cpp.o)
 .debug_loc     0x0000000000001bef      0x22b /home/moslevin/m3/mark3/embedded/stage/lib/avr/atmega328p/gcc/libmark3.a(threadlist.cpp.o)
 .debug_loc     0x0000000000001e1a      0x699 /home/moslevin/m3/mark3/embedded/stage/lib/avr/atmega328p/gcc/libmark3.a(timerlist.cpp.o)
 .debug_loc     0x00000000000024b3      0x22f /home/moslevin/m3/mark3/embedded/stage/lib/avr/atmega328p/gcc/libmark3.a(threadport.cpp.o)
 .debug_loc     0x00000000000026e2       0x17 /home/moslevin/m3/mark3/embedded/stage/lib/avr/atmega328p/gcc/libmark3.a(kernelswi.cpp.o)
 .debug_loc     0x00000000000026f9      0x1af /home/moslevin/m3/mark3/embedded/stage/lib/avr/atmega328p/gcc/libmark3.a(kerneltimer.cpp.o)
 .debug_loc     0x00000000000028a8      0x199 /home/moslevin/m3/mark3/embedded/stage/lib/avr/atmega328p/gcc/libmark3.a(kprofile.cpp.o)
 .debug_loc     0x0000000000002a41      0x144 /home/moslevin/m3/mark3/embedded/stage/lib/avr/atmega328p/gcc/libmark3.a(blocking.cpp.o)
 .debug_loc     0x0000000000002b85      0x40c /home/moslevin/m3/mark3/embedded/stage/lib/avr/atmega328p/gcc/libmark3.a(message.cpp.o)
 .debug_loc     0x0000000000002f91       0xe5 /home/moslevin/m3/mark3/embedded/stage/lib/avr/atmega328p/gcc/libmark3.a(quantum.cpp.o)
 .debug_loc     0x0000000000003076      0x100 /home/moslevin/m3/mark3/embedded/stage/lib/avr/atmega328p/gcc/libmark3.a(scheduler.cpp.o)
 .debug_loc     0x0000000000003176      0x885 /home/moslevin/m3/mark3/embedded/stage/lib/avr/atmega328p/gcc/libdrvUART.a(drvUART.cpp.o)
 .debug_loc     0x00000000000039fb       0x50 /home/moslevin/m3/mark3/embedded/stage/lib/avr/atmega328p/gcc/libunit_test.a(unit_test.cpp.o)
 .debug_loc     0x0000000000003a4b      0xc50 /home/moslevin/m3/mark3/embedded/stage/lib/avr/atmega328p/gcc/libmemutil.a(memutil.cpp.o)

.debug_macinfo
 *(.debug_macinfo)
OUTPUT(./obj/avr/atmega328p/gcc/ut_timers.elf elf32-avr)
LOAD linker stubs

.debug_ranges   0x0000000000000000      0x5c0
 .debug_ranges  0x0000000000000000       0x48 ./obj/avr/atmega328p/gcc/ut_timers.cpp.o
 .debug_ranges  0x0000000000000048       0x50 ./obj/avr/atmega328p/gcc/../ut_platform.cpp.o
 .debug_ranges  0x0000000000000098       0x50 /home/moslevin/m3/mark3/embedded/stage/lib/avr/atmega328p/gcc/libmark3.a(driver.cpp.o)
 .debug_ranges  0x00000000000000e8       0x40 /home/moslevin/m3/mark3/embedded/stage/lib/avr/atmega328p/gcc/libmark3.a(ll.cpp.o)
 .debug_ranges  0x0000000000000128       0x38 /home/moslevin/m3/mark3/embedded/stage/lib/avr/atmega328p/gcc/libmark3.a(profile.cpp.o)
 .debug_ranges  0x0000000000000160       0x48 /home/moslevin/m3/mark3/embedded/stage/lib/avr/atmega328p/gcc/libmark3.a(ksemaphore.cpp.o)
 .debug_ranges  0x00000000000001a8       0x68 /home/moslevin/m3/mark3/embedded/stage/lib/avr/atmega328p/gcc/libmark3.a(thread.cpp.o)
 .debug_ranges  0x0000000000000210       0x50 /home/moslevin/m3/mark3/embedded/stage/lib/avr/atmega328p/gcc/libmark3.a(threadlist.cpp.o)
 .debug_ranges  0x0000000000000260       0x18 /home/moslevin/m3/mark3/embedded/stage/lib/avr/atmega328p/gcc/libmark3.a(kernel.cpp.o)
 .debug_ranges  0x0000000000000278       0x60 /home/moslevin/m3/mark3/embedded/stage/lib/avr/atmega328p/gcc/libmark3.a(timerlist.cpp.o)
 .debug_ranges  0x00000000000002d8       0x28 /home/moslevin/m3/mark3/embedded/stage/lib/avr/atmega328p/gcc/libmark3.a(threadport.cpp.o)
 .debug_ranges  0x0000000000000300       0x40 /home/moslevin/m3/mark3/embedded/stage/lib/avr/atmega328p/gcc/libmark3.a(kernelswi.cpp.o)
 .debug_ranges  0x0000000000000340       0x68 /home/moslevin/m3/mark3/embedded/stage/lib/avr/atmega328p/gcc/libmark3.a(kerneltimer.cpp.o)
 .debug_ranges  0x00000000000003a8       0x38 /home/moslevin/m3/mark3/embedded/stage/lib/avr/atmega328p/gcc/libmark3.a(kprofile.cpp.o)
 .debug_ranges  0x00000000000003e0       0x18 /home/moslevin/m3/mark3/embedded/stage/lib/avr/atmega328p/gcc/libmark3.a(blocking.cpp.o)
 .debug_ranges  0x00000000000003f8       0x50 /home/moslevin/m3/mark3/embedded/stage/lib/avr/atmega328p/gcc/libmark3.a(message.cpp.o)
 .debug_ranges  0x0000000000000448       0x38 /home/moslevin/m3/mark3/embedded/stage/lib/avr/atmega328p/gcc/libmark3.a(quantum.cpp.o)
 .debug_ranges  0x0000000000000480       0x30 /home/moslevin/m3/mark3/embedded/stage/lib/avr/atmega328p/gcc/libmark3.a(scheduler.cpp.o)
 .debug_ranges  0x00000000000004b0       0x68 /home/moslevin/m3/mark3/embedded/stage/lib/avr/atmega328p/gcc/libdrvUART.a(drvUART.cpp.o)
 .debug_ranges  0x0000000000000518       0x20 /home/moslevin/m3/mark3/embedded/stage/lib/avr/atmega328p/gcc/libunit_test.a(unit_test.cpp.o)
 .debug_ranges  0x0000000000000538       0x88 /home/moslevin/m3/mark3/embedded/stage/lib/avr/atmega328p/gcc/libmemutil.a(memutil.cpp.o)
