Archive member included because of file (symbol)

/mobackup/moslevin/m3_reorg/mark3/embedded/stage/lib/avr/atmega644/gcc/libmark3.a(driver.cpp.o)
                              ./obj/avr/atmega644/gcc/../ut_platform.cpp.o (_ZN10DriverList14m_clDriverListE)
/mobackup/moslevin/m3_reorg/mark3/embedded/stage/lib/avr/atmega644/gcc/libmark3.a(ll.cpp.o)
                              ./obj/avr/atmega644/gcc/../ut_platform.cpp.o (_ZN14DoubleLinkList3AddEP12LinkListNode)
/mobackup/moslevin/m3_reorg/mark3/embedded/stage/lib/avr/atmega644/gcc/libmark3.a(profile.cpp.o)
                              ./obj/avr/atmega644/gcc/ut_timers.cpp.o (_ZN12ProfileTimer4InitEv)
/mobackup/moslevin/m3_reorg/mark3/embedded/stage/lib/avr/atmega644/gcc/libmark3.a(ksemaphore.cpp.o)
                              ./obj/avr/atmega644/gcc/ut_timers.cpp.o (_ZN9Semaphore4InitEjj)
/mobackup/moslevin/m3_reorg/mark3/embedded/stage/lib/avr/atmega644/gcc/libmark3.a(thread.cpp.o)
                              ./obj/avr/atmega644/gcc/../ut_platform.cpp.o (_ZN6Thread4InitEPhjhPFvPvES1_)
/mobackup/moslevin/m3_reorg/mark3/embedded/stage/lib/avr/atmega644/gcc/libmark3.a(threadlist.cpp.o)
                              /mobackup/moslevin/m3_reorg/mark3/embedded/stage/lib/avr/atmega644/gcc/libmark3.a(ksemaphore.cpp.o) (_ZN10ThreadList13HighestWaiterEv)
/mobackup/moslevin/m3_reorg/mark3/embedded/stage/lib/avr/atmega644/gcc/libmark3.a(kernel.cpp.o)
                              ./obj/avr/atmega644/gcc/../ut_platform.cpp.o (_ZN6Kernel4InitEv)
/mobackup/moslevin/m3_reorg/mark3/embedded/stage/lib/avr/atmega644/gcc/libmark3.a(timerlist.cpp.o)
                              /mobackup/moslevin/m3_reorg/mark3/embedded/stage/lib/avr/atmega644/gcc/libmark3.a(kernel.cpp.o) (_ZN9TimerList4InitEv)
/mobackup/moslevin/m3_reorg/mark3/embedded/stage/lib/avr/atmega644/gcc/libmark3.a(threadport.cpp.o)
                              /mobackup/moslevin/m3_reorg/mark3/embedded/stage/lib/avr/atmega644/gcc/libmark3.a(thread.cpp.o) (_ZN10ThreadPort9InitStackEP6Thread)
/mobackup/moslevin/m3_reorg/mark3/embedded/stage/lib/avr/atmega644/gcc/libmark3.a(kernelswi.cpp.o)
                              /mobackup/moslevin/m3_reorg/mark3/embedded/stage/lib/avr/atmega644/gcc/libmark3.a(threadport.cpp.o) (_ZN9KernelSWI6ConfigEv)
/mobackup/moslevin/m3_reorg/mark3/embedded/stage/lib/avr/atmega644/gcc/libmark3.a(kerneltimer.cpp.o)
                              /mobackup/moslevin/m3_reorg/mark3/embedded/stage/lib/avr/atmega644/gcc/libmark3.a(threadport.cpp.o) (_ZN11KernelTimer6ConfigEv)
/mobackup/moslevin/m3_reorg/mark3/embedded/stage/lib/avr/atmega644/gcc/libmark3.a(kprofile.cpp.o)
                              /mobackup/moslevin/m3_reorg/mark3/embedded/stage/lib/avr/atmega644/gcc/libmark3.a(kernel.cpp.o) (_ZN8Profiler4InitEv)
/mobackup/moslevin/m3_reorg/mark3/embedded/stage/lib/avr/atmega644/gcc/libmark3.a(blocking.cpp.o)
                              /mobackup/moslevin/m3_reorg/mark3/embedded/stage/lib/avr/atmega644/gcc/libmark3.a(ksemaphore.cpp.o) (_ZN14BlockingObject5BlockEP6Thread)
/mobackup/moslevin/m3_reorg/mark3/embedded/stage/lib/avr/atmega644/gcc/libmark3.a(message.cpp.o)
                              /mobackup/moslevin/m3_reorg/mark3/embedded/stage/lib/avr/atmega644/gcc/libmark3.a(kernel.cpp.o) (_ZN17GlobalMessagePool4InitEv)
/mobackup/moslevin/m3_reorg/mark3/embedded/stage/lib/avr/atmega644/gcc/libmark3.a(quantum.cpp.o)
                              /mobackup/moslevin/m3_reorg/mark3/embedded/stage/lib/avr/atmega644/gcc/libmark3.a(thread.cpp.o) (_ZN7Quantum9AddThreadEP6Thread)
/mobackup/moslevin/m3_reorg/mark3/embedded/stage/lib/avr/atmega644/gcc/libmark3.a(scheduler.cpp.o)
                              /mobackup/moslevin/m3_reorg/mark3/embedded/stage/lib/avr/atmega644/gcc/libmark3.a(kernel.cpp.o) (_ZN9Scheduler4InitEv)
/mobackup/moslevin/m3_reorg/mark3/embedded/stage/lib/avr/atmega644/gcc/libdrvUART.a(drvUART.cpp.o)
                              ./obj/avr/atmega644/gcc/../ut_platform.cpp.o (_ZN10ATMegaUART4InitEv)
/mobackup/moslevin/m3_reorg/mark3/embedded/stage/lib/avr/atmega644/gcc/libunit_test.a(unit_test.cpp.o)
                              ./obj/avr/atmega644/gcc/ut_timers.cpp.o (_ZN8UnitTestC2Ev)
/mobackup/moslevin/m3_reorg/mark3/embedded/stage/lib/avr/atmega644/gcc/libmemutil.a(memutil.cpp.o)
                              ./obj/avr/atmega644/gcc/../ut_platform.cpp.o (_ZN7MemUtil15DecimalToStringEjPc)
/usr/lib/gcc/avr/4.7.2/avr5/libgcc.a(_muluhisi3.o)
                              /mobackup/moslevin/m3_reorg/mark3/embedded/stage/lib/avr/atmega644/gcc/libmark3.a(timerlist.cpp.o) (__muluhisi3)
/usr/lib/gcc/avr/4.7.2/avr5/libgcc.a(_mulsi3.o)
                              ./obj/avr/atmega644/gcc/ut_timers.cpp.o (__mulsi3)
/usr/lib/gcc/avr/4.7.2/avr5/libgcc.a(_udivmodqi4.o)
                              /mobackup/moslevin/m3_reorg/mark3/embedded/stage/lib/avr/atmega644/gcc/libmemutil.a(memutil.cpp.o) (__udivmodqi4)
/usr/lib/gcc/avr/4.7.2/avr5/libgcc.a(_udivmodhi4.o)
                              /mobackup/moslevin/m3_reorg/mark3/embedded/stage/lib/avr/atmega644/gcc/libmemutil.a(memutil.cpp.o) (__udivmodhi4)
/usr/lib/gcc/avr/4.7.2/avr5/libgcc.a(_udivmodsi4.o)
                              /mobackup/moslevin/m3_reorg/mark3/embedded/stage/lib/avr/atmega644/gcc/libmark3.a(profile.cpp.o) (__udivmodsi4)
/usr/lib/gcc/avr/4.7.2/avr5/libgcc.a(_exit.o)
                              /usr/lib/gcc/avr/4.7.2/../../../avr/lib/avr5/crtm644.o (exit)
/usr/lib/gcc/avr/4.7.2/avr5/libgcc.a(_copy_data.o)
                              ./obj/avr/atmega644/gcc/ut_timers.cpp.o (__do_copy_data)
/usr/lib/gcc/avr/4.7.2/avr5/libgcc.a(_clear_bss.o)
                              ./obj/avr/atmega644/gcc/ut_timers.cpp.o (__do_clear_bss)
/usr/lib/gcc/avr/4.7.2/avr5/libgcc.a(_ctors.o)
                              ./obj/avr/atmega644/gcc/ut_timers.cpp.o (__do_global_ctors)
/usr/lib/gcc/avr/4.7.2/avr5/libgcc.a(_umulhisi3.o)
                              /usr/lib/gcc/avr/4.7.2/avr5/libgcc.a(_muluhisi3.o) (__umulhisi3)
/usr/lib/gcc/avr/4.7.2/avr5/libgcc.a(_tablejump.o)
                              /usr/lib/gcc/avr/4.7.2/avr5/libgcc.a(_ctors.o) (__tablejump__)

Discarded input sections

 .data          0x0000000000000000        0x0 /usr/lib/gcc/avr/4.7.2/../../../avr/lib/avr5/crtm644.o
 .bss           0x0000000000000000        0x0 /usr/lib/gcc/avr/4.7.2/../../../avr/lib/avr5/crtm644.o
 .group         0x0000000000000000        0x8 ./obj/avr/atmega644/gcc/ut_timers.cpp.o
 .group         0x0000000000000000        0x8 ./obj/avr/atmega644/gcc/ut_timers.cpp.o
 .text          0x0000000000000000        0x0 ./obj/avr/atmega644/gcc/ut_timers.cpp.o
 .text          0x0000000000000000        0x0 ./obj/avr/atmega644/gcc/../ut_platform.cpp.o
 .data          0x0000000000000000        0x0 ./obj/avr/atmega644/gcc/../ut_platform.cpp.o
 .text.__cxa_pure_virtual
                0x0000000000000000        0x2 ./obj/avr/atmega644/gcc/../ut_platform.cpp.o
 .group         0x0000000000000000        0x8 /mobackup/moslevin/m3_reorg/mark3/embedded/stage/lib/avr/atmega644/gcc/libmark3.a(driver.cpp.o)
 .group         0x0000000000000000        0x8 /mobackup/moslevin/m3_reorg/mark3/embedded/stage/lib/avr/atmega644/gcc/libmark3.a(driver.cpp.o)
 .group         0x0000000000000000        0x8 /mobackup/moslevin/m3_reorg/mark3/embedded/stage/lib/avr/atmega644/gcc/libmark3.a(driver.cpp.o)
 .group         0x0000000000000000        0x8 /mobackup/moslevin/m3_reorg/mark3/embedded/stage/lib/avr/atmega644/gcc/libmark3.a(driver.cpp.o)
 .group         0x0000000000000000        0x8 /mobackup/moslevin/m3_reorg/mark3/embedded/stage/lib/avr/atmega644/gcc/libmark3.a(driver.cpp.o)
 .group         0x0000000000000000        0x8 /mobackup/moslevin/m3_reorg/mark3/embedded/stage/lib/avr/atmega644/gcc/libmark3.a(driver.cpp.o)
 .group         0x0000000000000000        0x8 /mobackup/moslevin/m3_reorg/mark3/embedded/stage/lib/avr/atmega644/gcc/libmark3.a(driver.cpp.o)
 .text          0x0000000000000000        0x0 /mobackup/moslevin/m3_reorg/mark3/embedded/stage/lib/avr/atmega644/gcc/libmark3.a(driver.cpp.o)
 .data          0x0000000000000000        0x0 /mobackup/moslevin/m3_reorg/mark3/embedded/stage/lib/avr/atmega644/gcc/libmark3.a(driver.cpp.o)
 .group         0x0000000000000000        0x8 /mobackup/moslevin/m3_reorg/mark3/embedded/stage/lib/avr/atmega644/gcc/libmark3.a(ll.cpp.o)
 .group         0x0000000000000000        0x8 /mobackup/moslevin/m3_reorg/mark3/embedded/stage/lib/avr/atmega644/gcc/libmark3.a(ll.cpp.o)
 .text          0x0000000000000000        0x0 /mobackup/moslevin/m3_reorg/mark3/embedded/stage/lib/avr/atmega644/gcc/libmark3.a(ll.cpp.o)
 .data          0x0000000000000000        0x0 /mobackup/moslevin/m3_reorg/mark3/embedded/stage/lib/avr/atmega644/gcc/libmark3.a(ll.cpp.o)
 .bss           0x0000000000000000        0x0 /mobackup/moslevin/m3_reorg/mark3/embedded/stage/lib/avr/atmega644/gcc/libmark3.a(ll.cpp.o)
 .text._ZN16CircularLinkList13PivotBackwardEv
                0x0000000000000000       0x28 /mobackup/moslevin/m3_reorg/mark3/embedded/stage/lib/avr/atmega644/gcc/libmark3.a(ll.cpp.o)
 .rodata._ZTV16CircularLinkList
                0x0000000000000000        0x8 /mobackup/moslevin/m3_reorg/mark3/embedded/stage/lib/avr/atmega644/gcc/libmark3.a(ll.cpp.o)
 .text          0x0000000000000000        0x0 /mobackup/moslevin/m3_reorg/mark3/embedded/stage/lib/avr/atmega644/gcc/libmark3.a(profile.cpp.o)
 .data          0x0000000000000000        0x0 /mobackup/moslevin/m3_reorg/mark3/embedded/stage/lib/avr/atmega644/gcc/libmark3.a(profile.cpp.o)
 .bss           0x0000000000000000        0x0 /mobackup/moslevin/m3_reorg/mark3/embedded/stage/lib/avr/atmega644/gcc/libmark3.a(profile.cpp.o)
 .text          0x0000000000000000        0x0 /mobackup/moslevin/m3_reorg/mark3/embedded/stage/lib/avr/atmega644/gcc/libmark3.a(ksemaphore.cpp.o)
 .data          0x0000000000000000        0x0 /mobackup/moslevin/m3_reorg/mark3/embedded/stage/lib/avr/atmega644/gcc/libmark3.a(ksemaphore.cpp.o)
 .bss           0x0000000000000000        0x0 /mobackup/moslevin/m3_reorg/mark3/embedded/stage/lib/avr/atmega644/gcc/libmark3.a(ksemaphore.cpp.o)
 .text._ZN9Semaphore8GetCountEv
                0x0000000000000000       0x22 /mobackup/moslevin/m3_reorg/mark3/embedded/stage/lib/avr/atmega644/gcc/libmark3.a(ksemaphore.cpp.o)
 .text          0x0000000000000000        0x0 /mobackup/moslevin/m3_reorg/mark3/embedded/stage/lib/avr/atmega644/gcc/libmark3.a(thread.cpp.o)
 .data          0x0000000000000000        0x0 /mobackup/moslevin/m3_reorg/mark3/embedded/stage/lib/avr/atmega644/gcc/libmark3.a(thread.cpp.o)
 .text._ZN6Thread6USleepEm
                0x0000000000000000       0xae /mobackup/moslevin/m3_reorg/mark3/embedded/stage/lib/avr/atmega644/gcc/libmark3.a(thread.cpp.o)
 .text._ZN6Thread13GetStackSlackEv
                0x0000000000000000       0x4c /mobackup/moslevin/m3_reorg/mark3/embedded/stage/lib/avr/atmega644/gcc/libmark3.a(thread.cpp.o)
 .text._ZN6Thread15SetPriorityBaseEh
                0x0000000000000000       0x40 /mobackup/moslevin/m3_reorg/mark3/embedded/stage/lib/avr/atmega644/gcc/libmark3.a(thread.cpp.o)
 .text._ZN6Thread15InheritPriorityEh
                0x0000000000000000       0x16 /mobackup/moslevin/m3_reorg/mark3/embedded/stage/lib/avr/atmega644/gcc/libmark3.a(thread.cpp.o)
 .text._ZN6Thread11SetPriorityEh
                0x0000000000000000       0x94 /mobackup/moslevin/m3_reorg/mark3/embedded/stage/lib/avr/atmega644/gcc/libmark3.a(thread.cpp.o)
 .text._ZN6Thread4ExitEv
                0x0000000000000000       0x5a /mobackup/moslevin/m3_reorg/mark3/embedded/stage/lib/avr/atmega644/gcc/libmark3.a(thread.cpp.o)
 .text._ZN6Thread4StopEv
                0x0000000000000000       0x66 /mobackup/moslevin/m3_reorg/mark3/embedded/stage/lib/avr/atmega644/gcc/libmark3.a(thread.cpp.o)
 .group         0x0000000000000000        0x8 /mobackup/moslevin/m3_reorg/mark3/embedded/stage/lib/avr/atmega644/gcc/libmark3.a(threadlist.cpp.o)
 .text          0x0000000000000000        0x0 /mobackup/moslevin/m3_reorg/mark3/embedded/stage/lib/avr/atmega644/gcc/libmark3.a(threadlist.cpp.o)
 .data          0x0000000000000000        0x0 /mobackup/moslevin/m3_reorg/mark3/embedded/stage/lib/avr/atmega644/gcc/libmark3.a(threadlist.cpp.o)
 .bss           0x0000000000000000        0x0 /mobackup/moslevin/m3_reorg/mark3/embedded/stage/lib/avr/atmega644/gcc/libmark3.a(threadlist.cpp.o)
 .text._ZN10ThreadList3AddEP12LinkListNodePhh
                0x0000000000000000       0x1c /mobackup/moslevin/m3_reorg/mark3/embedded/stage/lib/avr/atmega644/gcc/libmark3.a(threadlist.cpp.o)
 .text          0x0000000000000000        0x0 /mobackup/moslevin/m3_reorg/mark3/embedded/stage/lib/avr/atmega644/gcc/libmark3.a(kernel.cpp.o)
 .data          0x0000000000000000        0x0 /mobackup/moslevin/m3_reorg/mark3/embedded/stage/lib/avr/atmega644/gcc/libmark3.a(kernel.cpp.o)
 .group         0x0000000000000000        0x8 /mobackup/moslevin/m3_reorg/mark3/embedded/stage/lib/avr/atmega644/gcc/libmark3.a(timerlist.cpp.o)
 .text          0x0000000000000000        0x0 /mobackup/moslevin/m3_reorg/mark3/embedded/stage/lib/avr/atmega644/gcc/libmark3.a(timerlist.cpp.o)
 .data          0x0000000000000000        0x0 /mobackup/moslevin/m3_reorg/mark3/embedded/stage/lib/avr/atmega644/gcc/libmark3.a(timerlist.cpp.o)
 .text._ZN5Timer16SetIntervalTicksEm
                0x0000000000000000        0xc /mobackup/moslevin/m3_reorg/mark3/embedded/stage/lib/avr/atmega644/gcc/libmark3.a(timerlist.cpp.o)
 .text._ZN5Timer18SetIntervalSecondsEm
                0x0000000000000000       0x18 /mobackup/moslevin/m3_reorg/mark3/embedded/stage/lib/avr/atmega644/gcc/libmark3.a(timerlist.cpp.o)
 .text._ZN5Timer19SetIntervalUSecondsEm
                0x0000000000000000       0x34 /mobackup/moslevin/m3_reorg/mark3/embedded/stage/lib/avr/atmega644/gcc/libmark3.a(timerlist.cpp.o)
 .text          0x0000000000000000        0x0 /mobackup/moslevin/m3_reorg/mark3/embedded/stage/lib/avr/atmega644/gcc/libmark3.a(threadport.cpp.o)
 .data          0x0000000000000000        0x0 /mobackup/moslevin/m3_reorg/mark3/embedded/stage/lib/avr/atmega644/gcc/libmark3.a(threadport.cpp.o)
 .bss           0x0000000000000000        0x2 /mobackup/moslevin/m3_reorg/mark3/embedded/stage/lib/avr/atmega644/gcc/libmark3.a(threadport.cpp.o)
 .text          0x0000000000000000        0x0 /mobackup/moslevin/m3_reorg/mark3/embedded/stage/lib/avr/atmega644/gcc/libmark3.a(kernelswi.cpp.o)
 .data          0x0000000000000000        0x0 /mobackup/moslevin/m3_reorg/mark3/embedded/stage/lib/avr/atmega644/gcc/libmark3.a(kernelswi.cpp.o)
 .bss           0x0000000000000000        0x0 /mobackup/moslevin/m3_reorg/mark3/embedded/stage/lib/avr/atmega644/gcc/libmark3.a(kernelswi.cpp.o)
 .text._ZN9KernelSWI4StopEv
                0x0000000000000000        0x4 /mobackup/moslevin/m3_reorg/mark3/embedded/stage/lib/avr/atmega644/gcc/libmark3.a(kernelswi.cpp.o)
 .text._ZN9KernelSWI2DIEv
                0x0000000000000000        0x8 /mobackup/moslevin/m3_reorg/mark3/embedded/stage/lib/avr/atmega644/gcc/libmark3.a(kernelswi.cpp.o)
 .text._ZN9KernelSWI2RIEh
                0x0000000000000000        0xc /mobackup/moslevin/m3_reorg/mark3/embedded/stage/lib/avr/atmega644/gcc/libmark3.a(kernelswi.cpp.o)
 .text._ZN9KernelSWI5ClearEv
                0x0000000000000000        0x4 /mobackup/moslevin/m3_reorg/mark3/embedded/stage/lib/avr/atmega644/gcc/libmark3.a(kernelswi.cpp.o)
 .text          0x0000000000000000        0x0 /mobackup/moslevin/m3_reorg/mark3/embedded/stage/lib/avr/atmega644/gcc/libmark3.a(kerneltimer.cpp.o)
 .data          0x0000000000000000        0x0 /mobackup/moslevin/m3_reorg/mark3/embedded/stage/lib/avr/atmega644/gcc/libmark3.a(kerneltimer.cpp.o)
 .bss           0x0000000000000000        0x0 /mobackup/moslevin/m3_reorg/mark3/embedded/stage/lib/avr/atmega644/gcc/libmark3.a(kerneltimer.cpp.o)
 .text._ZN11KernelTimer2DIEv
                0x0000000000000000       0x14 /mobackup/moslevin/m3_reorg/mark3/embedded/stage/lib/avr/atmega644/gcc/libmark3.a(kerneltimer.cpp.o)
 .text._ZN11KernelTimer2RIEh
                0x0000000000000000       0x18 /mobackup/moslevin/m3_reorg/mark3/embedded/stage/lib/avr/atmega644/gcc/libmark3.a(kerneltimer.cpp.o)
 .text._ZN11KernelTimer2EIEv
                0x0000000000000000        0x6 /mobackup/moslevin/m3_reorg/mark3/embedded/stage/lib/avr/atmega644/gcc/libmark3.a(kerneltimer.cpp.o)
 .text          0x0000000000000000        0x0 /mobackup/moslevin/m3_reorg/mark3/embedded/stage/lib/avr/atmega644/gcc/libmark3.a(kprofile.cpp.o)
 .data          0x0000000000000000        0x0 /mobackup/moslevin/m3_reorg/mark3/embedded/stage/lib/avr/atmega644/gcc/libmark3.a(kprofile.cpp.o)
 .text          0x0000000000000000        0x0 /mobackup/moslevin/m3_reorg/mark3/embedded/stage/lib/avr/atmega644/gcc/libmark3.a(blocking.cpp.o)
 .data          0x0000000000000000        0x0 /mobackup/moslevin/m3_reorg/mark3/embedded/stage/lib/avr/atmega644/gcc/libmark3.a(blocking.cpp.o)
 .bss           0x0000000000000000        0x0 /mobackup/moslevin/m3_reorg/mark3/embedded/stage/lib/avr/atmega644/gcc/libmark3.a(blocking.cpp.o)
 .text          0x0000000000000000        0x0 /mobackup/moslevin/m3_reorg/mark3/embedded/stage/lib/avr/atmega644/gcc/libmark3.a(message.cpp.o)
 .data          0x0000000000000000        0x0 /mobackup/moslevin/m3_reorg/mark3/embedded/stage/lib/avr/atmega644/gcc/libmark3.a(message.cpp.o)
 .text._ZN17GlobalMessagePool4PushEP7Message
                0x0000000000000000       0x26 /mobackup/moslevin/m3_reorg/mark3/embedded/stage/lib/avr/atmega644/gcc/libmark3.a(message.cpp.o)
 .text._ZN17GlobalMessagePool3PopEv
                0x0000000000000000       0x3e /mobackup/moslevin/m3_reorg/mark3/embedded/stage/lib/avr/atmega644/gcc/libmark3.a(message.cpp.o)
 .text._ZN12MessageQueue4InitEv
                0x0000000000000000        0xc /mobackup/moslevin/m3_reorg/mark3/embedded/stage/lib/avr/atmega644/gcc/libmark3.a(message.cpp.o)
 .text._ZN12MessageQueue7ReceiveEv
                0x0000000000000000       0x44 /mobackup/moslevin/m3_reorg/mark3/embedded/stage/lib/avr/atmega644/gcc/libmark3.a(message.cpp.o)
 .text._ZN12MessageQueue7ReceiveEm
                0x0000000000000000       0x4e /mobackup/moslevin/m3_reorg/mark3/embedded/stage/lib/avr/atmega644/gcc/libmark3.a(message.cpp.o)
 .text._ZN12MessageQueue4SendEP7Message
                0x0000000000000000       0x34 /mobackup/moslevin/m3_reorg/mark3/embedded/stage/lib/avr/atmega644/gcc/libmark3.a(message.cpp.o)
 .text._ZN12MessageQueue8GetCountEv
                0x0000000000000000        0x4 /mobackup/moslevin/m3_reorg/mark3/embedded/stage/lib/avr/atmega644/gcc/libmark3.a(message.cpp.o)
 .text          0x0000000000000000        0x0 /mobackup/moslevin/m3_reorg/mark3/embedded/stage/lib/avr/atmega644/gcc/libmark3.a(quantum.cpp.o)
 .data          0x0000000000000000        0x0 /mobackup/moslevin/m3_reorg/mark3/embedded/stage/lib/avr/atmega644/gcc/libmark3.a(quantum.cpp.o)
 .group         0x0000000000000000        0x8 /mobackup/moslevin/m3_reorg/mark3/embedded/stage/lib/avr/atmega644/gcc/libmark3.a(scheduler.cpp.o)
 .text          0x0000000000000000        0x0 /mobackup/moslevin/m3_reorg/mark3/embedded/stage/lib/avr/atmega644/gcc/libmark3.a(scheduler.cpp.o)
 .data          0x0000000000000000        0x0 /mobackup/moslevin/m3_reorg/mark3/embedded/stage/lib/avr/atmega644/gcc/libmark3.a(scheduler.cpp.o)
 .rodata._ZTV8LinkList
                0x0000000000000000        0x8 /mobackup/moslevin/m3_reorg/mark3/embedded/stage/lib/avr/atmega644/gcc/libmark3.a(scheduler.cpp.o)
 .group         0x0000000000000000        0x8 /mobackup/moslevin/m3_reorg/mark3/embedded/stage/lib/avr/atmega644/gcc/libdrvUART.a(drvUART.cpp.o)
 .text          0x0000000000000000        0x0 /mobackup/moslevin/m3_reorg/mark3/embedded/stage/lib/avr/atmega644/gcc/libdrvUART.a(drvUART.cpp.o)
 .data          0x0000000000000000        0x0 /mobackup/moslevin/m3_reorg/mark3/embedded/stage/lib/avr/atmega644/gcc/libdrvUART.a(drvUART.cpp.o)
 .text          0x0000000000000000        0x0 /mobackup/moslevin/m3_reorg/mark3/embedded/stage/lib/avr/atmega644/gcc/libunit_test.a(unit_test.cpp.o)
 .data          0x0000000000000000        0x0 /mobackup/moslevin/m3_reorg/mark3/embedded/stage/lib/avr/atmega644/gcc/libunit_test.a(unit_test.cpp.o)
 .bss           0x0000000000000000        0x0 /mobackup/moslevin/m3_reorg/mark3/embedded/stage/lib/avr/atmega644/gcc/libunit_test.a(unit_test.cpp.o)
 .text          0x0000000000000000        0x0 /mobackup/moslevin/m3_reorg/mark3/embedded/stage/lib/avr/atmega644/gcc/libmemutil.a(memutil.cpp.o)
 .data          0x0000000000000000        0x0 /mobackup/moslevin/m3_reorg/mark3/embedded/stage/lib/avr/atmega644/gcc/libmemutil.a(memutil.cpp.o)
 .bss           0x0000000000000000        0x0 /mobackup/moslevin/m3_reorg/mark3/embedded/stage/lib/avr/atmega644/gcc/libmemutil.a(memutil.cpp.o)
 .text._ZN7MemUtil12DecimalToHexEhPc
                0x0000000000000000       0x3e /mobackup/moslevin/m3_reorg/mark3/embedded/stage/lib/avr/atmega644/gcc/libmemutil.a(memutil.cpp.o)
 .text._ZN7MemUtil12DecimalToHexEjPc
                0x0000000000000000       0x62 /mobackup/moslevin/m3_reorg/mark3/embedded/stage/lib/avr/atmega644/gcc/libmemutil.a(memutil.cpp.o)
 .text._ZN7MemUtil12DecimalToHexEmPc
                0x0000000000000000       0xbe /mobackup/moslevin/m3_reorg/mark3/embedded/stage/lib/avr/atmega644/gcc/libmemutil.a(memutil.cpp.o)
 .text._ZN7MemUtil15DecimalToStringEhPc
                0x0000000000000000       0x36 /mobackup/moslevin/m3_reorg/mark3/embedded/stage/lib/avr/atmega644/gcc/libmemutil.a(memutil.cpp.o)
 .text._ZN7MemUtil15DecimalToStringEmPc
                0x0000000000000000       0xd2 /mobackup/moslevin/m3_reorg/mark3/embedded/stage/lib/avr/atmega644/gcc/libmemutil.a(memutil.cpp.o)
 .text._ZN7MemUtil9Checksum8EPKvj
                0x0000000000000000       0x16 /mobackup/moslevin/m3_reorg/mark3/embedded/stage/lib/avr/atmega644/gcc/libmemutil.a(memutil.cpp.o)
 .text._ZN7MemUtil10Checksum16EPKvj
                0x0000000000000000       0x1c /mobackup/moslevin/m3_reorg/mark3/embedded/stage/lib/avr/atmega644/gcc/libmemutil.a(memutil.cpp.o)
 .text._ZN7MemUtil14CompareStringsEPKcS1_
                0x0000000000000000       0x22 /mobackup/moslevin/m3_reorg/mark3/embedded/stage/lib/avr/atmega644/gcc/libmemutil.a(memutil.cpp.o)
 .text._ZN7MemUtil10CopyMemoryEPvPKvj
                0x0000000000000000       0x16 /mobackup/moslevin/m3_reorg/mark3/embedded/stage/lib/avr/atmega644/gcc/libmemutil.a(memutil.cpp.o)
 .text._ZN7MemUtil10CopyStringEPcPKc
                0x0000000000000000       0x10 /mobackup/moslevin/m3_reorg/mark3/embedded/stage/lib/avr/atmega644/gcc/libmemutil.a(memutil.cpp.o)
 .text._ZN7MemUtil12StringSearchEPKcS1_
                0x0000000000000000       0x56 /mobackup/moslevin/m3_reorg/mark3/embedded/stage/lib/avr/atmega644/gcc/libmemutil.a(memutil.cpp.o)
 .text._ZN7MemUtil13CompareMemoryEPKvS1_j
                0x0000000000000000       0x20 /mobackup/moslevin/m3_reorg/mark3/embedded/stage/lib/avr/atmega644/gcc/libmemutil.a(memutil.cpp.o)
 .text._ZN7MemUtil9SetMemoryEPvhj
                0x0000000000000000       0x12 /mobackup/moslevin/m3_reorg/mark3/embedded/stage/lib/avr/atmega644/gcc/libmemutil.a(memutil.cpp.o)
 .text._ZN7MemUtil8TokenizeEPKcP7Token_th
                0x0000000000000000       0xb6 /mobackup/moslevin/m3_reorg/mark3/embedded/stage/lib/avr/atmega644/gcc/libmemutil.a(memutil.cpp.o)
 .text          0x0000000000000000        0x0 /usr/lib/gcc/avr/4.7.2/avr5/libgcc.a(_muluhisi3.o)
 .data          0x0000000000000000        0x0 /usr/lib/gcc/avr/4.7.2/avr5/libgcc.a(_muluhisi3.o)
 .bss           0x0000000000000000        0x0 /usr/lib/gcc/avr/4.7.2/avr5/libgcc.a(_muluhisi3.o)
 .text.libgcc.div
                0x0000000000000000        0x0 /usr/lib/gcc/avr/4.7.2/avr5/libgcc.a(_muluhisi3.o)
 .text.libgcc   0x0000000000000000        0x0 /usr/lib/gcc/avr/4.7.2/avr5/libgcc.a(_muluhisi3.o)
 .text.libgcc.prologue
                0x0000000000000000        0x0 /usr/lib/gcc/avr/4.7.2/avr5/libgcc.a(_muluhisi3.o)
 .text.libgcc.builtins
                0x0000000000000000        0x0 /usr/lib/gcc/avr/4.7.2/avr5/libgcc.a(_muluhisi3.o)
 .text.libgcc.fmul
                0x0000000000000000        0x0 /usr/lib/gcc/avr/4.7.2/avr5/libgcc.a(_muluhisi3.o)
 .text          0x0000000000000000        0x0 /usr/lib/gcc/avr/4.7.2/avr5/libgcc.a(_mulsi3.o)
 .data          0x0000000000000000        0x0 /usr/lib/gcc/avr/4.7.2/avr5/libgcc.a(_mulsi3.o)
 .bss           0x0000000000000000        0x0 /usr/lib/gcc/avr/4.7.2/avr5/libgcc.a(_mulsi3.o)
 .text.libgcc.div
                0x0000000000000000        0x0 /usr/lib/gcc/avr/4.7.2/avr5/libgcc.a(_mulsi3.o)
 .text.libgcc   0x0000000000000000        0x0 /usr/lib/gcc/avr/4.7.2/avr5/libgcc.a(_mulsi3.o)
 .text.libgcc.prologue
                0x0000000000000000        0x0 /usr/lib/gcc/avr/4.7.2/avr5/libgcc.a(_mulsi3.o)
 .text.libgcc.builtins
                0x0000000000000000        0x0 /usr/lib/gcc/avr/4.7.2/avr5/libgcc.a(_mulsi3.o)
 .text.libgcc.fmul
                0x0000000000000000        0x0 /usr/lib/gcc/avr/4.7.2/avr5/libgcc.a(_mulsi3.o)
 .text          0x0000000000000000        0x0 /usr/lib/gcc/avr/4.7.2/avr5/libgcc.a(_udivmodqi4.o)
 .data          0x0000000000000000        0x0 /usr/lib/gcc/avr/4.7.2/avr5/libgcc.a(_udivmodqi4.o)
 .bss           0x0000000000000000        0x0 /usr/lib/gcc/avr/4.7.2/avr5/libgcc.a(_udivmodqi4.o)
 .text.libgcc.mul
                0x0000000000000000        0x0 /usr/lib/gcc/avr/4.7.2/avr5/libgcc.a(_udivmodqi4.o)
 .text.libgcc.div
                0x0000000000000000       0x18 /usr/lib/gcc/avr/4.7.2/avr5/libgcc.a(_udivmodqi4.o)
 .text.libgcc   0x0000000000000000        0x0 /usr/lib/gcc/avr/4.7.2/avr5/libgcc.a(_udivmodqi4.o)
 .text.libgcc.prologue
                0x0000000000000000        0x0 /usr/lib/gcc/avr/4.7.2/avr5/libgcc.a(_udivmodqi4.o)
 .text.libgcc.builtins
                0x0000000000000000        0x0 /usr/lib/gcc/avr/4.7.2/avr5/libgcc.a(_udivmodqi4.o)
 .text.libgcc.fmul
                0x0000000000000000        0x0 /usr/lib/gcc/avr/4.7.2/avr5/libgcc.a(_udivmodqi4.o)
 .text          0x0000000000000000        0x0 /usr/lib/gcc/avr/4.7.2/avr5/libgcc.a(_udivmodhi4.o)
 .data          0x0000000000000000        0x0 /usr/lib/gcc/avr/4.7.2/avr5/libgcc.a(_udivmodhi4.o)
 .bss           0x0000000000000000        0x0 /usr/lib/gcc/avr/4.7.2/avr5/libgcc.a(_udivmodhi4.o)
 .text.libgcc.mul
                0x0000000000000000        0x0 /usr/lib/gcc/avr/4.7.2/avr5/libgcc.a(_udivmodhi4.o)
 .text.libgcc   0x0000000000000000        0x0 /usr/lib/gcc/avr/4.7.2/avr5/libgcc.a(_udivmodhi4.o)
 .text.libgcc.prologue
                0x0000000000000000        0x0 /usr/lib/gcc/avr/4.7.2/avr5/libgcc.a(_udivmodhi4.o)
 .text.libgcc.builtins
                0x0000000000000000        0x0 /usr/lib/gcc/avr/4.7.2/avr5/libgcc.a(_udivmodhi4.o)
 .text.libgcc.fmul
                0x0000000000000000        0x0 /usr/lib/gcc/avr/4.7.2/avr5/libgcc.a(_udivmodhi4.o)
 .text          0x0000000000000000        0x0 /usr/lib/gcc/avr/4.7.2/avr5/libgcc.a(_udivmodsi4.o)
 .data          0x0000000000000000        0x0 /usr/lib/gcc/avr/4.7.2/avr5/libgcc.a(_udivmodsi4.o)
 .bss           0x0000000000000000        0x0 /usr/lib/gcc/avr/4.7.2/avr5/libgcc.a(_udivmodsi4.o)
 .text.libgcc.mul
                0x0000000000000000        0x0 /usr/lib/gcc/avr/4.7.2/avr5/libgcc.a(_udivmodsi4.o)
 .text.libgcc   0x0000000000000000        0x0 /usr/lib/gcc/avr/4.7.2/avr5/libgcc.a(_udivmodsi4.o)
 .text.libgcc.prologue
                0x0000000000000000        0x0 /usr/lib/gcc/avr/4.7.2/avr5/libgcc.a(_udivmodsi4.o)
 .text.libgcc.builtins
                0x0000000000000000        0x0 /usr/lib/gcc/avr/4.7.2/avr5/libgcc.a(_udivmodsi4.o)
 .text.libgcc.fmul
                0x0000000000000000        0x0 /usr/lib/gcc/avr/4.7.2/avr5/libgcc.a(_udivmodsi4.o)
 .text          0x0000000000000000        0x0 /usr/lib/gcc/avr/4.7.2/avr5/libgcc.a(_exit.o)
 .data          0x0000000000000000        0x0 /usr/lib/gcc/avr/4.7.2/avr5/libgcc.a(_exit.o)
 .bss           0x0000000000000000        0x0 /usr/lib/gcc/avr/4.7.2/avr5/libgcc.a(_exit.o)
 .text.libgcc.mul
                0x0000000000000000        0x0 /usr/lib/gcc/avr/4.7.2/avr5/libgcc.a(_exit.o)
 .text.libgcc.div
                0x0000000000000000        0x0 /usr/lib/gcc/avr/4.7.2/avr5/libgcc.a(_exit.o)
 .text.libgcc   0x0000000000000000        0x0 /usr/lib/gcc/avr/4.7.2/avr5/libgcc.a(_exit.o)
 .text.libgcc.prologue
                0x0000000000000000        0x0 /usr/lib/gcc/avr/4.7.2/avr5/libgcc.a(_exit.o)
 .text.libgcc.builtins
                0x0000000000000000        0x0 /usr/lib/gcc/avr/4.7.2/avr5/libgcc.a(_exit.o)
 .text.libgcc.fmul
                0x0000000000000000        0x0 /usr/lib/gcc/avr/4.7.2/avr5/libgcc.a(_exit.o)
 .text          0x0000000000000000        0x0 /usr/lib/gcc/avr/4.7.2/avr5/libgcc.a(_copy_data.o)
 .data          0x0000000000000000        0x0 /usr/lib/gcc/avr/4.7.2/avr5/libgcc.a(_copy_data.o)
 .bss           0x0000000000000000        0x0 /usr/lib/gcc/avr/4.7.2/avr5/libgcc.a(_copy_data.o)
 .text.libgcc.mul
                0x0000000000000000        0x0 /usr/lib/gcc/avr/4.7.2/avr5/libgcc.a(_copy_data.o)
 .text.libgcc.div
                0x0000000000000000        0x0 /usr/lib/gcc/avr/4.7.2/avr5/libgcc.a(_copy_data.o)
 .text.libgcc   0x0000000000000000        0x0 /usr/lib/gcc/avr/4.7.2/avr5/libgcc.a(_copy_data.o)
 .text.libgcc.prologue
                0x0000000000000000        0x0 /usr/lib/gcc/avr/4.7.2/avr5/libgcc.a(_copy_data.o)
 .text.libgcc.builtins
                0x0000000000000000        0x0 /usr/lib/gcc/avr/4.7.2/avr5/libgcc.a(_copy_data.o)
 .text.libgcc.fmul
                0x0000000000000000        0x0 /usr/lib/gcc/avr/4.7.2/avr5/libgcc.a(_copy_data.o)
 .text          0x0000000000000000        0x0 /usr/lib/gcc/avr/4.7.2/avr5/libgcc.a(_clear_bss.o)
 .data          0x0000000000000000        0x0 /usr/lib/gcc/avr/4.7.2/avr5/libgcc.a(_clear_bss.o)
 .bss           0x0000000000000000        0x0 /usr/lib/gcc/avr/4.7.2/avr5/libgcc.a(_clear_bss.o)
 .text.libgcc.mul
                0x0000000000000000        0x0 /usr/lib/gcc/avr/4.7.2/avr5/libgcc.a(_clear_bss.o)
 .text.libgcc.div
                0x0000000000000000        0x0 /usr/lib/gcc/avr/4.7.2/avr5/libgcc.a(_clear_bss.o)
 .text.libgcc   0x0000000000000000        0x0 /usr/lib/gcc/avr/4.7.2/avr5/libgcc.a(_clear_bss.o)
 .text.libgcc.prologue
                0x0000000000000000        0x0 /usr/lib/gcc/avr/4.7.2/avr5/libgcc.a(_clear_bss.o)
 .text.libgcc.builtins
                0x0000000000000000        0x0 /usr/lib/gcc/avr/4.7.2/avr5/libgcc.a(_clear_bss.o)
 .text.libgcc.fmul
                0x0000000000000000        0x0 /usr/lib/gcc/avr/4.7.2/avr5/libgcc.a(_clear_bss.o)
 .text          0x0000000000000000        0x0 /usr/lib/gcc/avr/4.7.2/avr5/libgcc.a(_ctors.o)
 .data          0x0000000000000000        0x0 /usr/lib/gcc/avr/4.7.2/avr5/libgcc.a(_ctors.o)
 .bss           0x0000000000000000        0x0 /usr/lib/gcc/avr/4.7.2/avr5/libgcc.a(_ctors.o)
 .text.libgcc.mul
                0x0000000000000000        0x0 /usr/lib/gcc/avr/4.7.2/avr5/libgcc.a(_ctors.o)
 .text.libgcc.div
                0x0000000000000000        0x0 /usr/lib/gcc/avr/4.7.2/avr5/libgcc.a(_ctors.o)
 .text.libgcc   0x0000000000000000        0x0 /usr/lib/gcc/avr/4.7.2/avr5/libgcc.a(_ctors.o)
 .text.libgcc.prologue
                0x0000000000000000        0x0 /usr/lib/gcc/avr/4.7.2/avr5/libgcc.a(_ctors.o)
 .text.libgcc.builtins
                0x0000000000000000        0x0 /usr/lib/gcc/avr/4.7.2/avr5/libgcc.a(_ctors.o)
 .text.libgcc.fmul
                0x0000000000000000        0x0 /usr/lib/gcc/avr/4.7.2/avr5/libgcc.a(_ctors.o)
 .text          0x0000000000000000        0x0 /usr/lib/gcc/avr/4.7.2/avr5/libgcc.a(_umulhisi3.o)
 .data          0x0000000000000000        0x0 /usr/lib/gcc/avr/4.7.2/avr5/libgcc.a(_umulhisi3.o)
 .bss           0x0000000000000000        0x0 /usr/lib/gcc/avr/4.7.2/avr5/libgcc.a(_umulhisi3.o)
 .text.libgcc.div
                0x0000000000000000        0x0 /usr/lib/gcc/avr/4.7.2/avr5/libgcc.a(_umulhisi3.o)
 .text.libgcc   0x0000000000000000        0x0 /usr/lib/gcc/avr/4.7.2/avr5/libgcc.a(_umulhisi3.o)
 .text.libgcc.prologue
                0x0000000000000000        0x0 /usr/lib/gcc/avr/4.7.2/avr5/libgcc.a(_umulhisi3.o)
 .text.libgcc.builtins
                0x0000000000000000        0x0 /usr/lib/gcc/avr/4.7.2/avr5/libgcc.a(_umulhisi3.o)
 .text.libgcc.fmul
                0x0000000000000000        0x0 /usr/lib/gcc/avr/4.7.2/avr5/libgcc.a(_umulhisi3.o)
 .text          0x0000000000000000        0x0 /usr/lib/gcc/avr/4.7.2/avr5/libgcc.a(_tablejump.o)
 .data          0x0000000000000000        0x0 /usr/lib/gcc/avr/4.7.2/avr5/libgcc.a(_tablejump.o)
 .bss           0x0000000000000000        0x0 /usr/lib/gcc/avr/4.7.2/avr5/libgcc.a(_tablejump.o)
 .text.libgcc.mul
                0x0000000000000000        0x0 /usr/lib/gcc/avr/4.7.2/avr5/libgcc.a(_tablejump.o)
 .text.libgcc.div
                0x0000000000000000        0x0 /usr/lib/gcc/avr/4.7.2/avr5/libgcc.a(_tablejump.o)
 .text.libgcc.prologue
                0x0000000000000000        0x0 /usr/lib/gcc/avr/4.7.2/avr5/libgcc.a(_tablejump.o)
 .text.libgcc.builtins
                0x0000000000000000        0x0 /usr/lib/gcc/avr/4.7.2/avr5/libgcc.a(_tablejump.o)
 .text.libgcc.fmul
                0x0000000000000000        0x0 /usr/lib/gcc/avr/4.7.2/avr5/libgcc.a(_tablejump.o)

Memory Configuration

Name             Origin             Length             Attributes
text             0x0000000000000000 0x0000000000020000 xr
data             0x0000000000800060 0x000000000000ffa0 rw !x
eeprom           0x0000000000810000 0x0000000000010000 rw !x
fuse             0x0000000000820000 0x0000000000000400 rw !x
lock             0x0000000000830000 0x0000000000000400 rw !x
signature        0x0000000000840000 0x0000000000000400 rw !x
*default*        0x0000000000000000 0xffffffffffffffff

Linker script and memory map

Address of section .data set to 0x800100
LOAD /usr/lib/gcc/avr/4.7.2/../../../avr/lib/avr5/crtm644.o
START GROUP
LOAD /usr/lib/gcc/avr/4.7.2/../../../avr/lib/avr5/libm.a
END GROUP
LOAD ./obj/avr/atmega644/gcc/ut_timers.cpp.o
LOAD ./obj/avr/atmega644/gcc/../ut_platform.cpp.o
LOAD /mobackup/moslevin/m3_reorg/mark3/embedded/stage/lib/avr/atmega644/gcc/libmark3.a
LOAD /mobackup/moslevin/m3_reorg/mark3/embedded/stage/lib/avr/atmega644/gcc/libdrvUART.a
LOAD /mobackup/moslevin/m3_reorg/mark3/embedded/stage/lib/avr/atmega644/gcc/libunit_test.a
LOAD /mobackup/moslevin/m3_reorg/mark3/embedded/stage/lib/avr/atmega644/gcc/libmemutil.a
LOAD /usr/lib/gcc/avr/4.7.2/avr5/libgcc.a
LOAD /usr/lib/gcc/avr/4.7.2/../../../avr/lib/avr5/libc.a
LOAD /usr/lib/gcc/avr/4.7.2/avr5/libgcc.a

.hash
 *(.hash)

.dynsym
 *(.dynsym)

.dynstr
 *(.dynstr)

.gnu.version
 *(.gnu.version)

.gnu.version_d
 *(.gnu.version_d)

.gnu.version_r
 *(.gnu.version_r)

.rel.init
 *(.rel.init)

.rela.init
 *(.rela.init)

.rel.text
 *(.rel.text)
 *(.rel.text.*)
 *(.rel.gnu.linkonce.t*)

.rela.text
 *(.rela.text)
 *(.rela.text.*)
 *(.rela.gnu.linkonce.t*)

.rel.fini
 *(.rel.fini)

.rela.fini
 *(.rela.fini)

.rel.rodata
 *(.rel.rodata)
 *(.rel.rodata.*)
 *(.rel.gnu.linkonce.r*)

.rela.rodata
 *(.rela.rodata)
 *(.rela.rodata.*)
 *(.rela.gnu.linkonce.r*)

.rel.data
 *(.rel.data)
 *(.rel.data.*)
 *(.rel.gnu.linkonce.d*)

.rela.data
 *(.rela.data)
 *(.rela.data.*)
 *(.rela.gnu.linkonce.d*)

.rel.ctors
 *(.rel.ctors)

.rela.ctors
 *(.rela.ctors)

.rel.dtors
 *(.rel.dtors)

.rela.dtors
 *(.rela.dtors)

.rel.got
 *(.rel.got)

.rela.got
 *(.rela.got)

.rel.bss
 *(.rel.bss)

.rela.bss
 *(.rela.bss)

.rel.plt
 *(.rel.plt)

.rela.plt
 *(.rela.plt)

.text           0x0000000000000000     0x25fc
 *(.vectors)
 .vectors       0x0000000000000000       0x70 /usr/lib/gcc/avr/4.7.2/../../../avr/lib/avr5/crtm644.o
                0x0000000000000000                __vectors
                0x0000000000000000                __vector_default
 *(.vectors)
 *(.progmem.gcc*)
 *(.progmem*)
                0x0000000000000070                . = ALIGN (0x2)
                0x0000000000000070                __trampolines_start = .
 *(.trampolines)
 .trampolines   0x0000000000000070        0x0 linker stubs
 *(.trampolines*)
                0x0000000000000070                __trampolines_end = .
 *(.jumptables)
 *(.jumptables*)
 *(.lowtext)
 *(.lowtext*)
                0x0000000000000070                __ctors_start = .
 *(.ctors)
 .ctors         0x0000000000000070        0x2 ./obj/avr/atmega644/gcc/ut_timers.cpp.o
 .ctors         0x0000000000000072        0x2 ./obj/avr/atmega644/gcc/../ut_platform.cpp.o
 .ctors         0x0000000000000074        0x2 /mobackup/moslevin/m3_reorg/mark3/embedded/stage/lib/avr/atmega644/gcc/libmark3.a(driver.cpp.o)
 .ctors         0x0000000000000076        0x2 /mobackup/moslevin/m3_reorg/mark3/embedded/stage/lib/avr/atmega644/gcc/libmark3.a(timerlist.cpp.o)
 .ctors         0x0000000000000078        0x2 /mobackup/moslevin/m3_reorg/mark3/embedded/stage/lib/avr/atmega644/gcc/libmark3.a(message.cpp.o)
 .ctors         0x000000000000007a        0x2 /mobackup/moslevin/m3_reorg/mark3/embedded/stage/lib/avr/atmega644/gcc/libmark3.a(quantum.cpp.o)
 .ctors         0x000000000000007c        0x2 /mobackup/moslevin/m3_reorg/mark3/embedded/stage/lib/avr/atmega644/gcc/libmark3.a(scheduler.cpp.o)
                0x000000000000007e                __ctors_end = .
                0x000000000000007e                __dtors_start = .
 *(.dtors)
                0x000000000000007e                __dtors_end = .
 SORT(*)(.ctors)
 SORT(*)(.dtors)
 *(.init0)
 .init0         0x000000000000007e        0x0 /usr/lib/gcc/avr/4.7.2/../../../avr/lib/avr5/crtm644.o
                0x000000000000007e                __init
 *(.init0)
 *(.init1)
 *(.init1)
 *(.init2)
 .init2         0x000000000000007e        0xc /usr/lib/gcc/avr/4.7.2/../../../avr/lib/avr5/crtm644.o
 *(.init2)
 *(.init3)
 *(.init3)
 *(.init4)
 .init4         0x000000000000008a       0x16 /usr/lib/gcc/avr/4.7.2/avr5/libgcc.a(_copy_data.o)
                0x000000000000008a                __do_copy_data
 .init4         0x00000000000000a0       0x10 /usr/lib/gcc/avr/4.7.2/avr5/libgcc.a(_clear_bss.o)
                0x00000000000000a0                __do_clear_bss
 *(.init4)
 *(.init5)
 *(.init5)
 *(.init6)
 .init6         0x00000000000000b0       0x16 /usr/lib/gcc/avr/4.7.2/avr5/libgcc.a(_ctors.o)
                0x00000000000000b0                __do_global_ctors
 *(.init6)
 *(.init7)
 *(.init7)
 *(.init8)
 *(.init8)
 *(.init9)
 .init9         0x00000000000000c6        0x8 /usr/lib/gcc/avr/4.7.2/../../../avr/lib/avr5/crtm644.o
 *(.init9)
 *(.text)
 .text          0x00000000000000ce        0x4 /usr/lib/gcc/avr/4.7.2/../../../avr/lib/avr5/crtm644.o
                0x00000000000000ce                __vector_24
                0x00000000000000ce                __vector_12
                0x00000000000000ce                __bad_interrupt
                0x00000000000000ce                __vector_6
                0x00000000000000ce                __vector_3
                0x00000000000000ce                __vector_23
                0x00000000000000ce                __vector_25
                0x00000000000000ce                __vector_11
                0x00000000000000ce                __vector_17
                0x00000000000000ce                __vector_19
                0x00000000000000ce                __vector_7
                0x00000000000000ce                __vector_27
                0x00000000000000ce                __vector_5
                0x00000000000000ce                __vector_4
                0x00000000000000ce                __vector_9
                0x00000000000000ce                __vector_2
                0x00000000000000ce                __vector_21
                0x00000000000000ce                __vector_15
                0x00000000000000ce                __vector_8
                0x00000000000000ce                __vector_26
                0x00000000000000ce                __vector_14
                0x00000000000000ce                __vector_10
                0x00000000000000ce                __vector_16
                0x00000000000000d2                . = ALIGN (0x2)
 *(.text.*)
 .text._ZL13TimerCallbackP6ThreadPv
                0x00000000000000d2       0x30 ./obj/avr/atmega644/gcc/ut_timers.cpp.o
 .text._ZN8UnitTest17ExpectGreaterThanEll
                0x0000000000000102       0x1e ./obj/avr/atmega644/gcc/ut_timers.cpp.o
                0x0000000000000102                _ZN8UnitTest17ExpectGreaterThanEll
 .text._ZN8UnitTest14ExpectLessThanEll
                0x0000000000000120       0x1e ./obj/avr/atmega644/gcc/ut_timers.cpp.o
                0x0000000000000120                _ZN8UnitTest14ExpectLessThanEll
 .text._ZL23TestFunc_ut_timer_multiv
                0x000000000000013e      0x294 ./obj/avr/atmega644/gcc/ut_timers.cpp.o
 .text._ZL24TestFunc_ut_timer_repeatv
                0x00000000000003d2      0x140 ./obj/avr/atmega644/gcc/ut_timers.cpp.o
 .text._ZL25TestFunc_ut_timer_longrunv
                0x0000000000000512      0x166 ./obj/avr/atmega644/gcc/ut_timers.cpp.o
 .text._ZL27TestFunc_ut_timer_tolerancev
                0x0000000000000678      0x368 ./obj/avr/atmega644/gcc/ut_timers.cpp.o
 .text.startup._GLOBAL__sub_I_astTestCases
                0x00000000000009e0       0xb4 ./obj/avr/atmega644/gcc/ut_timers.cpp.o
 .text._ZL9IdleEntryv
                0x0000000000000a94       0x1c ./obj/avr/atmega644/gcc/../ut_platform.cpp.o
 .text._Z10init_testsv
                0x0000000000000ab0       0x1a ./obj/avr/atmega644/gcc/../ut_platform.cpp.o
                0x0000000000000ab0                _Z10init_testsv
 .text._Z11PrintStringPKc
                0x0000000000000aca       0x34 ./obj/avr/atmega644/gcc/../ut_platform.cpp.o
                0x0000000000000aca                _Z11PrintStringPKc
 .text._Z9run_testsv
                0x0000000000000afe       0x20 ./obj/avr/atmega644/gcc/../ut_platform.cpp.o
                0x0000000000000afe                _Z9run_testsv
 .text._ZL8AppEntryv
                0x0000000000000b1e       0x44 ./obj/avr/atmega644/gcc/../ut_platform.cpp.o
 .text._ZN10MyUnitTest15PrintTestResultEv
                0x0000000000000b62       0xec ./obj/avr/atmega644/gcc/../ut_platform.cpp.o
                0x0000000000000b62                _ZN10MyUnitTest15PrintTestResultEv
 .text.startup.main
                0x0000000000000c4e       0x84 ./obj/avr/atmega644/gcc/../ut_platform.cpp.o
                0x0000000000000c4e                main
 .text.startup._GLOBAL__sub_I___cxa_pure_virtual
                0x0000000000000cd2        0xe ./obj/avr/atmega644/gcc/../ut_platform.cpp.o
 .text._ZN7DevNull4InitEv
                0x0000000000000ce0        0xc /mobackup/moslevin/m3_reorg/mark3/embedded/stage/lib/avr/atmega644/gcc/libmark3.a(driver.cpp.o)
                0x0000000000000ce0                _ZN7DevNull4InitEv
 .text._ZN7DevNull4OpenEv
                0x0000000000000cec        0x4 /mobackup/moslevin/m3_reorg/mark3/embedded/stage/lib/avr/atmega644/gcc/libmark3.a(driver.cpp.o)
                0x0000000000000cec                _ZN7DevNull4OpenEv
 .text._ZN7DevNull5CloseEv
                0x0000000000000cf0        0x4 /mobackup/moslevin/m3_reorg/mark3/embedded/stage/lib/avr/atmega644/gcc/libmark3.a(driver.cpp.o)
                0x0000000000000cf0                _ZN7DevNull5CloseEv
 .text._ZN7DevNull4ReadEjPh
                0x0000000000000cf4        0x6 /mobackup/moslevin/m3_reorg/mark3/embedded/stage/lib/avr/atmega644/gcc/libmark3.a(driver.cpp.o)
                0x0000000000000cf4                _ZN7DevNull4ReadEjPh
 .text._ZN7DevNull5WriteEjPh
                0x0000000000000cfa        0x6 /mobackup/moslevin/m3_reorg/mark3/embedded/stage/lib/avr/atmega644/gcc/libmark3.a(driver.cpp.o)
                0x0000000000000cfa                _ZN7DevNull5WriteEjPh
 .text._ZN7DevNull7ControlEjPvjS0_j
                0x0000000000000d00        0x6 /mobackup/moslevin/m3_reorg/mark3/embedded/stage/lib/avr/atmega644/gcc/libmark3.a(driver.cpp.o)
                0x0000000000000d00                _ZN7DevNull7ControlEjPvjS0_j
 .text._ZN10DriverList4InitEv
                0x0000000000000d06       0x18 /mobackup/moslevin/m3_reorg/mark3/embedded/stage/lib/avr/atmega644/gcc/libmark3.a(driver.cpp.o)
                0x0000000000000d06                _ZN10DriverList4InitEv
 .text._ZN10DriverList10FindByPathEPKc
                0x0000000000000d1e       0x56 /mobackup/moslevin/m3_reorg/mark3/embedded/stage/lib/avr/atmega644/gcc/libmark3.a(driver.cpp.o)
                0x0000000000000d1e                _ZN10DriverList10FindByPathEPKc
 .text.startup._GLOBAL__sub_I__ZN10DriverList14m_clDriverListE
                0x0000000000000d74       0x2a /mobackup/moslevin/m3_reorg/mark3/embedded/stage/lib/avr/atmega644/gcc/libmark3.a(driver.cpp.o)
 .text._ZN14DoubleLinkList3AddEP12LinkListNode
                0x0000000000000d9e       0x50 /mobackup/moslevin/m3_reorg/mark3/embedded/stage/lib/avr/atmega644/gcc/libmark3.a(ll.cpp.o)
                0x0000000000000d9e                _ZN14DoubleLinkList3AddEP12LinkListNode
 .text._ZN14DoubleLinkList6RemoveEP12LinkListNode
                0x0000000000000dee       0x64 /mobackup/moslevin/m3_reorg/mark3/embedded/stage/lib/avr/atmega644/gcc/libmark3.a(ll.cpp.o)
                0x0000000000000dee                _ZN14DoubleLinkList6RemoveEP12LinkListNode
 .text._ZN16CircularLinkList3AddEP12LinkListNode
                0x0000000000000e52       0x5e /mobackup/moslevin/m3_reorg/mark3/embedded/stage/lib/avr/atmega644/gcc/libmark3.a(ll.cpp.o)
                0x0000000000000e52                _ZN16CircularLinkList3AddEP12LinkListNode
 .text._ZN16CircularLinkList6RemoveEP12LinkListNode
                0x0000000000000eb0       0x82 /mobackup/moslevin/m3_reorg/mark3/embedded/stage/lib/avr/atmega644/gcc/libmark3.a(ll.cpp.o)
                0x0000000000000eb0                _ZN16CircularLinkList6RemoveEP12LinkListNode
 .text._ZN12LinkListNode9ClearNodeEv
                0x0000000000000f32        0xc /mobackup/moslevin/m3_reorg/mark3/embedded/stage/lib/avr/atmega644/gcc/libmark3.a(ll.cpp.o)
                0x0000000000000f32                _ZN12LinkListNode9ClearNodeEv
 .text._ZN16CircularLinkList12PivotForwardEv
                0x0000000000000f3e       0x20 /mobackup/moslevin/m3_reorg/mark3/embedded/stage/lib/avr/atmega644/gcc/libmark3.a(ll.cpp.o)
                0x0000000000000f3e                _ZN16CircularLinkList12PivotForwardEv
 .text._ZN12ProfileTimer4InitEv
                0x0000000000000f5e       0x1a /mobackup/moslevin/m3_reorg/mark3/embedded/stage/lib/avr/atmega644/gcc/libmark3.a(profile.cpp.o)
                0x0000000000000f5e                _ZN12ProfileTimer4InitEv
 .text._ZN12ProfileTimer5StartEv
                0x0000000000000f78       0x5c /mobackup/moslevin/m3_reorg/mark3/embedded/stage/lib/avr/atmega644/gcc/libmark3.a(profile.cpp.o)
                0x0000000000000f78                _ZN12ProfileTimer5StartEv
 .text._ZN12ProfileTimer10GetAverageEv
                0x0000000000000fd4       0x2a /mobackup/moslevin/m3_reorg/mark3/embedded/stage/lib/avr/atmega644/gcc/libmark3.a(profile.cpp.o)
                0x0000000000000fd4                _ZN12ProfileTimer10GetAverageEv
 .text._ZN12ProfileTimer19ComputeCurrentTicksEjm
                0x0000000000000ffe       0xae /mobackup/moslevin/m3_reorg/mark3/embedded/stage/lib/avr/atmega644/gcc/libmark3.a(profile.cpp.o)
                0x0000000000000ffe                _ZN12ProfileTimer19ComputeCurrentTicksEjm
 .text._ZN12ProfileTimer10GetCurrentEv
                0x00000000000010ac       0x56 /mobackup/moslevin/m3_reorg/mark3/embedded/stage/lib/avr/atmega644/gcc/libmark3.a(profile.cpp.o)
                0x00000000000010ac                _ZN12ProfileTimer10GetCurrentEv
 .text._ZN12ProfileTimer4StopEv
                0x0000000000001102       0x88 /mobackup/moslevin/m3_reorg/mark3/embedded/stage/lib/avr/atmega644/gcc/libmark3.a(profile.cpp.o)
                0x0000000000001102                _ZN12ProfileTimer4StopEv
 .text._ZN9Semaphore6WakeMeEP6Thread
                0x000000000000118a        0x4 /mobackup/moslevin/m3_reorg/mark3/embedded/stage/lib/avr/atmega644/gcc/libmark3.a(ksemaphore.cpp.o)
                0x000000000000118a                _ZN9Semaphore6WakeMeEP6Thread
 .text._Z23TimedSemaphore_CallbackP6ThreadPv
                0x000000000000118e       0x32 /mobackup/moslevin/m3_reorg/mark3/embedded/stage/lib/avr/atmega644/gcc/libmark3.a(ksemaphore.cpp.o)
                0x000000000000118e                _Z23TimedSemaphore_CallbackP6ThreadPv
 .text._ZN9Semaphore8WakeNextEv
                0x00000000000011c0       0x36 /mobackup/moslevin/m3_reorg/mark3/embedded/stage/lib/avr/atmega644/gcc/libmark3.a(ksemaphore.cpp.o)
                0x00000000000011c0                _ZN9Semaphore8WakeNextEv
 .text._ZN9Semaphore4InitEjj
                0x00000000000011f6       0x16 /mobackup/moslevin/m3_reorg/mark3/embedded/stage/lib/avr/atmega644/gcc/libmark3.a(ksemaphore.cpp.o)
                0x00000000000011f6                _ZN9Semaphore4InitEjj
 .text._ZN9Semaphore4PostEv
                0x000000000000120c       0x60 /mobackup/moslevin/m3_reorg/mark3/embedded/stage/lib/avr/atmega644/gcc/libmark3.a(ksemaphore.cpp.o)
                0x000000000000120c                _ZN9Semaphore4PostEv
 .text._ZN9Semaphore4PendEm
                0x000000000000126c       0xde /mobackup/moslevin/m3_reorg/mark3/embedded/stage/lib/avr/atmega644/gcc/libmark3.a(ksemaphore.cpp.o)
                0x000000000000126c                _ZN9Semaphore4PendEm
 .text._ZN9Semaphore4PendEv
                0x000000000000134a        0xa /mobackup/moslevin/m3_reorg/mark3/embedded/stage/lib/avr/atmega644/gcc/libmark3.a(ksemaphore.cpp.o)
                0x000000000000134a                _ZN9Semaphore4PendEv
 .text._ZL19ThreadSleepCallbackP6ThreadPv
                0x0000000000001354        0x6 /mobackup/moslevin/m3_reorg/mark3/embedded/stage/lib/avr/atmega644/gcc/libmark3.a(thread.cpp.o)
 .text._ZN6Thread4InitEPhjhPFvPvES1_
                0x000000000000135a       0xa6 /mobackup/moslevin/m3_reorg/mark3/embedded/stage/lib/avr/atmega644/gcc/libmark3.a(thread.cpp.o)
                0x000000000000135a                _ZN6Thread4InitEPhjhPFvPvES1_
 .text._ZN6Thread5SleepEm
                0x0000000000001400       0xae /mobackup/moslevin/m3_reorg/mark3/embedded/stage/lib/avr/atmega644/gcc/libmark3.a(thread.cpp.o)
                0x0000000000001400                _ZN6Thread5SleepEm
 .text._ZN6Thread16ContextSwitchSWIEv
                0x00000000000014ae        0xe /mobackup/moslevin/m3_reorg/mark3/embedded/stage/lib/avr/atmega644/gcc/libmark3.a(thread.cpp.o)
                0x00000000000014ae                _ZN6Thread16ContextSwitchSWIEv
 .text._ZN6Thread5YieldEv
                0x00000000000014bc       0x4a /mobackup/moslevin/m3_reorg/mark3/embedded/stage/lib/avr/atmega644/gcc/libmark3.a(thread.cpp.o)
                0x00000000000014bc                _ZN6Thread5YieldEv
 .text._ZN6Thread5StartEv
                0x0000000000001506       0x96 /mobackup/moslevin/m3_reorg/mark3/embedded/stage/lib/avr/atmega644/gcc/libmark3.a(thread.cpp.o)
                0x0000000000001506                _ZN6Thread5StartEv
 .text._ZN10ThreadList3AddEP12LinkListNode
                0x000000000000159c       0x36 /mobackup/moslevin/m3_reorg/mark3/embedded/stage/lib/avr/atmega644/gcc/libmark3.a(threadlist.cpp.o)
                0x000000000000159c                _ZN10ThreadList3AddEP12LinkListNode
 .text._ZN10ThreadList6RemoveEP12LinkListNode
                0x00000000000015d2       0x38 /mobackup/moslevin/m3_reorg/mark3/embedded/stage/lib/avr/atmega644/gcc/libmark3.a(threadlist.cpp.o)
                0x00000000000015d2                _ZN10ThreadList6RemoveEP12LinkListNode
 .text._ZN10ThreadList11SetPriorityEh
                0x000000000000160a        0x6 /mobackup/moslevin/m3_reorg/mark3/embedded/stage/lib/avr/atmega644/gcc/libmark3.a(threadlist.cpp.o)
                0x000000000000160a                _ZN10ThreadList11SetPriorityEh
 .text._ZN10ThreadList14SetFlagPointerEPh
                0x0000000000001610        0x8 /mobackup/moslevin/m3_reorg/mark3/embedded/stage/lib/avr/atmega644/gcc/libmark3.a(threadlist.cpp.o)
                0x0000000000001610                _ZN10ThreadList14SetFlagPointerEPh
 .text._ZN10ThreadList13HighestWaiterEv
                0x0000000000001618       0x34 /mobackup/moslevin/m3_reorg/mark3/embedded/stage/lib/avr/atmega644/gcc/libmark3.a(threadlist.cpp.o)
                0x0000000000001618                _ZN10ThreadList13HighestWaiterEv
 .text._ZN6Kernel4InitEv
                0x000000000000164c       0x1c /mobackup/moslevin/m3_reorg/mark3/embedded/stage/lib/avr/atmega644/gcc/libmark3.a(kernel.cpp.o)
                0x000000000000164c                _ZN6Kernel4InitEv
 .text._ZN6Kernel5StartEv
                0x0000000000001668        0xa /mobackup/moslevin/m3_reorg/mark3/embedded/stage/lib/avr/atmega644/gcc/libmark3.a(kernel.cpp.o)
                0x0000000000001668                _ZN6Kernel5StartEv
 .text._ZN9TimerList4InitEv
                0x0000000000001672        0xe /mobackup/moslevin/m3_reorg/mark3/embedded/stage/lib/avr/atmega644/gcc/libmark3.a(timerlist.cpp.o)
                0x0000000000001672                _ZN9TimerList4InitEv
 .text._ZN9TimerList3AddEP5Timer
                0x0000000000001680       0xb4 /mobackup/moslevin/m3_reorg/mark3/embedded/stage/lib/avr/atmega644/gcc/libmark3.a(timerlist.cpp.o)
                0x0000000000001680                _ZN9TimerList3AddEP5Timer
 .text._ZN9TimerList6RemoveEP5Timer
                0x0000000000001734       0x3a /mobackup/moslevin/m3_reorg/mark3/embedded/stage/lib/avr/atmega644/gcc/libmark3.a(timerlist.cpp.o)
                0x0000000000001734                _ZN9TimerList6RemoveEP5Timer
 .text._ZN9TimerList7ProcessEv
                0x000000000000176e      0x142 /mobackup/moslevin/m3_reorg/mark3/embedded/stage/lib/avr/atmega644/gcc/libmark3.a(timerlist.cpp.o)
                0x000000000000176e                _ZN9TimerList7ProcessEv
 .text._ZN5Timer4StopEv
                0x00000000000018b0        0xa /mobackup/moslevin/m3_reorg/mark3/embedded/stage/lib/avr/atmega644/gcc/libmark3.a(timerlist.cpp.o)
                0x00000000000018b0                _ZN5Timer4StopEv
 .text._ZN5Timer19SetIntervalMSecondsEm
                0x00000000000018ba       0x34 /mobackup/moslevin/m3_reorg/mark3/embedded/stage/lib/avr/atmega644/gcc/libmark3.a(timerlist.cpp.o)
                0x00000000000018ba                _ZN5Timer19SetIntervalMSecondsEm
 .text._ZN5Timer5StartEhmPFvP6ThreadPvES2_
                0x00000000000018ee       0x52 /mobackup/moslevin/m3_reorg/mark3/embedded/stage/lib/avr/atmega644/gcc/libmark3.a(timerlist.cpp.o)
                0x00000000000018ee                _ZN5Timer5StartEhmPFvP6ThreadPvES2_
 .text.startup._GLOBAL__sub_I__ZN14TimerScheduler13m_clTimerListE
                0x0000000000001940       0x1e /mobackup/moslevin/m3_reorg/mark3/embedded/stage/lib/avr/atmega644/gcc/libmark3.a(timerlist.cpp.o)
 .text._ZN10ThreadPort9InitStackEP6Thread
                0x000000000000195e       0x78 /mobackup/moslevin/m3_reorg/mark3/embedded/stage/lib/avr/atmega644/gcc/libmark3.a(threadport.cpp.o)
                0x000000000000195e                _ZN10ThreadPort9InitStackEP6Thread
 .text._ZN10ThreadPort12StartThreadsEv
                0x00000000000019d6       0x84 /mobackup/moslevin/m3_reorg/mark3/embedded/stage/lib/avr/atmega644/gcc/libmark3.a(threadport.cpp.o)
                0x00000000000019d6                _ZN10ThreadPort12StartThreadsEv
 .text.__vector_1
                0x0000000000001a5a       0xc2 /mobackup/moslevin/m3_reorg/mark3/embedded/stage/lib/avr/atmega644/gcc/libmark3.a(threadport.cpp.o)
                0x0000000000001a5a                __vector_1
 .text.__vector_13
                0x0000000000001b1c       0x50 /mobackup/moslevin/m3_reorg/mark3/embedded/stage/lib/avr/atmega644/gcc/libmark3.a(threadport.cpp.o)
                0x0000000000001b1c                __vector_13
 .text._ZN9KernelSWI6ConfigEv
                0x0000000000001b6c       0x10 /mobackup/moslevin/m3_reorg/mark3/embedded/stage/lib/avr/atmega644/gcc/libmark3.a(kernelswi.cpp.o)
                0x0000000000001b6c                _ZN9KernelSWI6ConfigEv
 .text._ZN9KernelSWI5StartEv
                0x0000000000001b7c        0x6 /mobackup/moslevin/m3_reorg/mark3/embedded/stage/lib/avr/atmega644/gcc/libmark3.a(kernelswi.cpp.o)
                0x0000000000001b7c                _ZN9KernelSWI5StartEv
 .text._ZN9KernelSWI7TriggerEv
                0x0000000000001b82        0x6 /mobackup/moslevin/m3_reorg/mark3/embedded/stage/lib/avr/atmega644/gcc/libmark3.a(kernelswi.cpp.o)
                0x0000000000001b82                _ZN9KernelSWI7TriggerEv
 .text._ZN11KernelTimer6ConfigEv
                0x0000000000001b88        0x8 /mobackup/moslevin/m3_reorg/mark3/embedded/stage/lib/avr/atmega644/gcc/libmark3.a(kerneltimer.cpp.o)
                0x0000000000001b88                _ZN11KernelTimer6ConfigEv
 .text._ZN11KernelTimer5StartEv
                0x0000000000001b90       0x20 /mobackup/moslevin/m3_reorg/mark3/embedded/stage/lib/avr/atmega644/gcc/libmark3.a(kerneltimer.cpp.o)
                0x0000000000001b90                _ZN11KernelTimer5StartEv
 .text._ZN11KernelTimer4StopEv
                0x0000000000001bb0       0x28 /mobackup/moslevin/m3_reorg/mark3/embedded/stage/lib/avr/atmega644/gcc/libmark3.a(kerneltimer.cpp.o)
                0x0000000000001bb0                _ZN11KernelTimer4StopEv
 .text._ZN11KernelTimer4ReadEv
                0x0000000000001bd8       0x46 /mobackup/moslevin/m3_reorg/mark3/embedded/stage/lib/avr/atmega644/gcc/libmark3.a(kerneltimer.cpp.o)
                0x0000000000001bd8                _ZN11KernelTimer4ReadEv
 .text._ZN11KernelTimer14SubtractExpiryEm
                0x0000000000001c1e       0x1c /mobackup/moslevin/m3_reorg/mark3/embedded/stage/lib/avr/atmega644/gcc/libmark3.a(kerneltimer.cpp.o)
                0x0000000000001c1e                _ZN11KernelTimer14SubtractExpiryEm
 .text._ZN11KernelTimer12TimeToExpiryEv
                0x0000000000001c3a       0x36 /mobackup/moslevin/m3_reorg/mark3/embedded/stage/lib/avr/atmega644/gcc/libmark3.a(kerneltimer.cpp.o)
                0x0000000000001c3a                _ZN11KernelTimer12TimeToExpiryEv
 .text._ZN11KernelTimer11GetOvertimeEv
                0x0000000000001c70        0xc /mobackup/moslevin/m3_reorg/mark3/embedded/stage/lib/avr/atmega644/gcc/libmark3.a(kerneltimer.cpp.o)
                0x0000000000001c70                _ZN11KernelTimer11GetOvertimeEv
 .text._ZN11KernelTimer9SetExpiryEm
                0x0000000000001c7c       0x1e /mobackup/moslevin/m3_reorg/mark3/embedded/stage/lib/avr/atmega644/gcc/libmark3.a(kerneltimer.cpp.o)
                0x0000000000001c7c                _ZN11KernelTimer9SetExpiryEm
 .text._ZN11KernelTimer11ClearExpiryEv
                0x0000000000001c9a        0xe /mobackup/moslevin/m3_reorg/mark3/embedded/stage/lib/avr/atmega644/gcc/libmark3.a(kerneltimer.cpp.o)
                0x0000000000001c9a                _ZN11KernelTimer11ClearExpiryEv
 .text._ZN8Profiler4InitEv
                0x0000000000001ca8       0x1c /mobackup/moslevin/m3_reorg/mark3/embedded/stage/lib/avr/atmega644/gcc/libmark3.a(kprofile.cpp.o)
                0x0000000000001ca8                _ZN8Profiler4InitEv
 .text._ZN8Profiler5StartEv
                0x0000000000001cc4       0x16 /mobackup/moslevin/m3_reorg/mark3/embedded/stage/lib/avr/atmega644/gcc/libmark3.a(kprofile.cpp.o)
                0x0000000000001cc4                _ZN8Profiler5StartEv
 .text._ZN8Profiler4StopEv
                0x0000000000001cda       0x14 /mobackup/moslevin/m3_reorg/mark3/embedded/stage/lib/avr/atmega644/gcc/libmark3.a(kprofile.cpp.o)
                0x0000000000001cda                _ZN8Profiler4StopEv
 .text._ZN8Profiler4ReadEv
                0x0000000000001cee       0x2c /mobackup/moslevin/m3_reorg/mark3/embedded/stage/lib/avr/atmega644/gcc/libmark3.a(kprofile.cpp.o)
                0x0000000000001cee                _ZN8Profiler4ReadEv
 .text._ZN8Profiler7ProcessEv
                0x0000000000001d1a       0x42 /mobackup/moslevin/m3_reorg/mark3/embedded/stage/lib/avr/atmega644/gcc/libmark3.a(kprofile.cpp.o)
                0x0000000000001d1a                _ZN8Profiler7ProcessEv
 .text.__vector_18
                0x0000000000001d5c       0x48 /mobackup/moslevin/m3_reorg/mark3/embedded/stage/lib/avr/atmega644/gcc/libmark3.a(kprofile.cpp.o)
                0x0000000000001d5c                __vector_18
 .text._ZN14BlockingObject5BlockEP6Thread
                0x0000000000001da4       0x28 /mobackup/moslevin/m3_reorg/mark3/embedded/stage/lib/avr/atmega644/gcc/libmark3.a(blocking.cpp.o)
                0x0000000000001da4                _ZN14BlockingObject5BlockEP6Thread
 .text._ZN14BlockingObject7UnBlockEP6Thread
                0x0000000000001dcc       0x2c /mobackup/moslevin/m3_reorg/mark3/embedded/stage/lib/avr/atmega644/gcc/libmark3.a(blocking.cpp.o)
                0x0000000000001dcc                _ZN14BlockingObject7UnBlockEP6Thread
 .text._ZN17GlobalMessagePool4InitEv
                0x0000000000001df8       0x38 /mobackup/moslevin/m3_reorg/mark3/embedded/stage/lib/avr/atmega644/gcc/libmark3.a(message.cpp.o)
                0x0000000000001df8                _ZN17GlobalMessagePool4InitEv
 .text.startup._GLOBAL__sub_I__ZN17GlobalMessagePool16m_aclMessagePoolE
                0x0000000000001e30       0x1e /mobackup/moslevin/m3_reorg/mark3/embedded/stage/lib/avr/atmega644/gcc/libmark3.a(message.cpp.o)
 .text._ZL15QuantumCallbackP6ThreadPv
                0x0000000000001e4e       0x3a /mobackup/moslevin/m3_reorg/mark3/embedded/stage/lib/avr/atmega644/gcc/libmark3.a(quantum.cpp.o)
 .text._ZN7Quantum8SetTimerEP6Thread
                0x0000000000001e88       0x34 /mobackup/moslevin/m3_reorg/mark3/embedded/stage/lib/avr/atmega644/gcc/libmark3.a(quantum.cpp.o)
                0x0000000000001e88                _ZN7Quantum8SetTimerEP6Thread
 .text._ZN7Quantum9AddThreadEP6Thread
                0x0000000000001ebc       0x38 /mobackup/moslevin/m3_reorg/mark3/embedded/stage/lib/avr/atmega644/gcc/libmark3.a(quantum.cpp.o)
                0x0000000000001ebc                _ZN7Quantum9AddThreadEP6Thread
 .text._ZN7Quantum12RemoveThreadEv
                0x0000000000001ef4       0x1a /mobackup/moslevin/m3_reorg/mark3/embedded/stage/lib/avr/atmega644/gcc/libmark3.a(quantum.cpp.o)
                0x0000000000001ef4                _ZN7Quantum12RemoveThreadEv
 .text._ZN7Quantum11UpdateTimerEv
                0x0000000000001f0e       0x12 /mobackup/moslevin/m3_reorg/mark3/embedded/stage/lib/avr/atmega644/gcc/libmark3.a(quantum.cpp.o)
                0x0000000000001f0e                _ZN7Quantum11UpdateTimerEv
 .text.startup._GLOBAL__sub_I__ZN7Quantum16m_clQuantumTimerE
                0x0000000000001f20       0x26 /mobackup/moslevin/m3_reorg/mark3/embedded/stage/lib/avr/atmega644/gcc/libmark3.a(quantum.cpp.o)
 .text._ZN9Scheduler4InitEv
                0x0000000000001f46       0x52 /mobackup/moslevin/m3_reorg/mark3/embedded/stage/lib/avr/atmega644/gcc/libmark3.a(scheduler.cpp.o)
                0x0000000000001f46                _ZN9Scheduler4InitEv
 .text._ZN9Scheduler8ScheduleEv
                0x0000000000001f98       0x4a /mobackup/moslevin/m3_reorg/mark3/embedded/stage/lib/avr/atmega644/gcc/libmark3.a(scheduler.cpp.o)
                0x0000000000001f98                _ZN9Scheduler8ScheduleEv
 .text._ZN9Scheduler3AddEP6Thread
                0x0000000000001fe2       0x2c /mobackup/moslevin/m3_reorg/mark3/embedded/stage/lib/avr/atmega644/gcc/libmark3.a(scheduler.cpp.o)
                0x0000000000001fe2                _ZN9Scheduler3AddEP6Thread
 .text._ZN9Scheduler6RemoveEP6Thread
                0x000000000000200e       0x2c /mobackup/moslevin/m3_reorg/mark3/embedded/stage/lib/avr/atmega644/gcc/libmark3.a(scheduler.cpp.o)
                0x000000000000200e                _ZN9Scheduler6RemoveEP6Thread
 .text.startup._GLOBAL__sub_I_g_pstNext
                0x000000000000203a       0x4a /mobackup/moslevin/m3_reorg/mark3/embedded/stage/lib/avr/atmega644/gcc/libmark3.a(scheduler.cpp.o)
 .text._ZN10ATMegaUART4OpenEv
                0x0000000000002084       0x1c /mobackup/moslevin/m3_reorg/mark3/embedded/stage/lib/avr/atmega644/gcc/libdrvUART.a(drvUART.cpp.o)
                0x0000000000002084                _ZN10ATMegaUART4OpenEv
 .text._ZN10ATMegaUART5CloseEv
                0x00000000000020a0       0x14 /mobackup/moslevin/m3_reorg/mark3/embedded/stage/lib/avr/atmega644/gcc/libdrvUART.a(drvUART.cpp.o)
                0x00000000000020a0                _ZN10ATMegaUART5CloseEv
 .text._ZN10ATMegaUART4ReadEjPh
                0x00000000000020b4       0x72 /mobackup/moslevin/m3_reorg/mark3/embedded/stage/lib/avr/atmega644/gcc/libdrvUART.a(drvUART.cpp.o)
                0x00000000000020b4                _ZN10ATMegaUART4ReadEjPh
 .text._ZN10ATMegaUART7SetBaudEv
                0x0000000000002126       0x32 /mobackup/moslevin/m3_reorg/mark3/embedded/stage/lib/avr/atmega644/gcc/libdrvUART.a(drvUART.cpp.o)
                0x0000000000002126                _ZN10ATMegaUART7SetBaudEv
 .text._ZN10ATMegaUART7ControlEjPvjS0_j
                0x0000000000002158       0x88 /mobackup/moslevin/m3_reorg/mark3/embedded/stage/lib/avr/atmega644/gcc/libdrvUART.a(drvUART.cpp.o)
                0x0000000000002158                _ZN10ATMegaUART7ControlEjPvjS0_j
 .text._ZN10ATMegaUART4InitEv
                0x00000000000021e0       0x3c /mobackup/moslevin/m3_reorg/mark3/embedded/stage/lib/avr/atmega644/gcc/libdrvUART.a(drvUART.cpp.o)
                0x00000000000021e0                _ZN10ATMegaUART4InitEv
 .text._ZN10ATMegaUART7StartTxEv
                0x000000000000221c       0x3c /mobackup/moslevin/m3_reorg/mark3/embedded/stage/lib/avr/atmega644/gcc/libdrvUART.a(drvUART.cpp.o)
                0x000000000000221c                _ZN10ATMegaUART7StartTxEv
 .text._ZN10ATMegaUART5WriteEjPh
                0x0000000000002258       0xa6 /mobackup/moslevin/m3_reorg/mark3/embedded/stage/lib/avr/atmega644/gcc/libdrvUART.a(drvUART.cpp.o)
                0x0000000000002258                _ZN10ATMegaUART5WriteEjPh
 .text._ZN10ATMegaUART5RxISREv
                0x00000000000022fe       0xb0 /mobackup/moslevin/m3_reorg/mark3/embedded/stage/lib/avr/atmega644/gcc/libdrvUART.a(drvUART.cpp.o)
                0x00000000000022fe                _ZN10ATMegaUART5RxISREv
 .text.__vector_20
                0x00000000000023ae       0x50 /mobackup/moslevin/m3_reorg/mark3/embedded/stage/lib/avr/atmega644/gcc/libdrvUART.a(drvUART.cpp.o)
                0x00000000000023ae                __vector_20
 .text._ZN10ATMegaUART5TxISREv
                0x00000000000023fe        0xe /mobackup/moslevin/m3_reorg/mark3/embedded/stage/lib/avr/atmega644/gcc/libdrvUART.a(drvUART.cpp.o)
                0x00000000000023fe                _ZN10ATMegaUART5TxISREv
 .text.__vector_22
                0x000000000000240c       0x50 /mobackup/moslevin/m3_reorg/mark3/embedded/stage/lib/avr/atmega644/gcc/libdrvUART.a(drvUART.cpp.o)
                0x000000000000240c                __vector_22
 .text._ZN8UnitTestC2Ev
                0x000000000000245c       0x10 /mobackup/moslevin/m3_reorg/mark3/embedded/stage/lib/avr/atmega644/gcc/libunit_test.a(unit_test.cpp.o)
                0x000000000000245c                _ZN8UnitTestC2Ev
                0x000000000000245c                _ZN8UnitTestC1Ev
 .text._ZN8UnitTest4PassEv
                0x000000000000246c       0x2a /mobackup/moslevin/m3_reorg/mark3/embedded/stage/lib/avr/atmega644/gcc/libunit_test.a(unit_test.cpp.o)
                0x000000000000246c                _ZN8UnitTest4PassEv
 .text._ZN8UnitTest4FailEv
                0x0000000000002496       0x1e /mobackup/moslevin/m3_reorg/mark3/embedded/stage/lib/avr/atmega644/gcc/libunit_test.a(unit_test.cpp.o)
                0x0000000000002496                _ZN8UnitTest4FailEv
 .text._ZN7MemUtil15DecimalToStringEjPc
                0x00000000000024b4       0x6c /mobackup/moslevin/m3_reorg/mark3/embedded/stage/lib/avr/atmega644/gcc/libmemutil.a(memutil.cpp.o)
                0x00000000000024b4                _ZN7MemUtil15DecimalToStringEjPc
 .text._ZN7MemUtil12StringLengthEPKc
                0x0000000000002520       0x12 /mobackup/moslevin/m3_reorg/mark3/embedded/stage/lib/avr/atmega644/gcc/libmemutil.a(memutil.cpp.o)
                0x0000000000002520                _ZN7MemUtil12StringLengthEPKc
 .text.libgcc.mul
                0x0000000000002532       0x16 /usr/lib/gcc/avr/4.7.2/avr5/libgcc.a(_muluhisi3.o)
                0x0000000000002532                __muluhisi3
 .text.libgcc.mul
                0x0000000000002548       0x20 /usr/lib/gcc/avr/4.7.2/avr5/libgcc.a(_mulsi3.o)
                0x0000000000002548                __mulsi3
 .text.libgcc.div
                0x0000000000002568       0x28 /usr/lib/gcc/avr/4.7.2/avr5/libgcc.a(_udivmodhi4.o)
                0x0000000000002568                __udivmodhi4
 .text.libgcc.div
                0x0000000000002590       0x44 /usr/lib/gcc/avr/4.7.2/avr5/libgcc.a(_udivmodsi4.o)
                0x0000000000002590                __udivmodsi4
 .text.libgcc.mul
                0x00000000000025d4       0x18 /usr/lib/gcc/avr/4.7.2/avr5/libgcc.a(_umulhisi3.o)
                0x00000000000025d4                __umulhisi3
 .text.libgcc   0x00000000000025ec        0xc /usr/lib/gcc/avr/4.7.2/avr5/libgcc.a(_tablejump.o)
                0x00000000000025ec                __tablejump2__
                0x00000000000025f0                __tablejump__
                0x00000000000025f8                . = ALIGN (0x2)
 *(.fini9)
 .fini9         0x00000000000025f8        0x0 /usr/lib/gcc/avr/4.7.2/avr5/libgcc.a(_exit.o)
                0x00000000000025f8                exit
                0x00000000000025f8                _exit
 *(.fini9)
 *(.fini8)
 *(.fini8)
 *(.fini7)
 *(.fini7)
 *(.fini6)
 *(.fini6)
 *(.fini5)
 *(.fini5)
 *(.fini4)
 *(.fini4)
 *(.fini3)
 *(.fini3)
 *(.fini2)
 *(.fini2)
 *(.fini1)
 *(.fini1)
 *(.fini0)
 .fini0         0x00000000000025f8        0x4 /usr/lib/gcc/avr/4.7.2/avr5/libgcc.a(_exit.o)
 *(.fini0)
                0x00000000000025fc                _etext = .

.data           0x0000000000800100       0xe6 load address 0x00000000000025fc
                0x0000000000800100                PROVIDE (__data_start, .)
 *(.data)
 .data          0x0000000000800100       0x1e ./obj/avr/atmega644/gcc/ut_timers.cpp.o
                0x0000000000800100                astTestCases
 *(.data*)
 *(.rodata)
 .rodata        0x000000000080011e       0x10 /mobackup/moslevin/m3_reorg/mark3/embedded/stage/lib/avr/atmega644/gcc/libmark3.a(scheduler.cpp.o)
 *(.rodata*)
 .rodata.str1.1
                0x000000000080012e       0x43 ./obj/avr/atmega644/gcc/ut_timers.cpp.o
 .rodata.str1.1
                0x0000000000800171       0x33 ./obj/avr/atmega644/gcc/../ut_platform.cpp.o
 .rodata.str1.1
                0x00000000008001a4        0xa /mobackup/moslevin/m3_reorg/mark3/embedded/stage/lib/avr/atmega644/gcc/libmark3.a(driver.cpp.o)
 .rodata._ZTV7DevNull
                0x00000000008001ae       0x10 /mobackup/moslevin/m3_reorg/mark3/embedded/stage/lib/avr/atmega644/gcc/libmark3.a(driver.cpp.o)
                0x00000000008001ae                _ZTV7DevNull
 .rodata._ZTV14DoubleLinkList
                0x00000000008001be        0x8 /mobackup/moslevin/m3_reorg/mark3/embedded/stage/lib/avr/atmega644/gcc/libmark3.a(ll.cpp.o)
                0x00000000008001be                _ZTV14DoubleLinkList
 .rodata._ZTV10ThreadList
                0x00000000008001c6        0x8 /mobackup/moslevin/m3_reorg/mark3/embedded/stage/lib/avr/atmega644/gcc/libmark3.a(threadlist.cpp.o)
                0x00000000008001c6                _ZTV10ThreadList
 .rodata._ZTV9TimerList
                0x00000000008001ce        0x8 /mobackup/moslevin/m3_reorg/mark3/embedded/stage/lib/avr/atmega644/gcc/libmark3.a(timerlist.cpp.o)
                0x00000000008001ce                _ZTV9TimerList
 .rodata._ZTV10ATMegaUART
                0x00000000008001d6       0x10 /mobackup/moslevin/m3_reorg/mark3/embedded/stage/lib/avr/atmega644/gcc/libdrvUART.a(drvUART.cpp.o)
                0x00000000008001d6                _ZTV10ATMegaUART
 *(.gnu.linkonce.d*)
                0x00000000008001e6                . = ALIGN (0x2)
                0x00000000008001e6                _edata = .
                0x00000000008001e6                PROVIDE (__data_end, .)

.bss            0x00000000008001e6      0x3ab
                0x00000000008001e6                PROVIDE (__bss_start, .)
 *(.bss)
 .bss           0x00000000008001e6       0xaa ./obj/avr/atmega644/gcc/ut_timers.cpp.o
 .bss           0x0000000000800290      0x22d ./obj/avr/atmega644/gcc/../ut_platform.cpp.o
 .bss           0x00000000008004bd        0xe /mobackup/moslevin/m3_reorg/mark3/embedded/stage/lib/avr/atmega644/gcc/libmark3.a(driver.cpp.o)
                0x00000000008004bd                _ZN10DriverList14m_clDriverListE
 .bss           0x00000000008004cb        0x1 /mobackup/moslevin/m3_reorg/mark3/embedded/stage/lib/avr/atmega644/gcc/libmark3.a(thread.cpp.o)
 .bss           0x00000000008004cc        0x1 /mobackup/moslevin/m3_reorg/mark3/embedded/stage/lib/avr/atmega644/gcc/libmark3.a(kernel.cpp.o)
                0x00000000008004cc                _ZN6Kernel12m_bIsStartedE
 .bss           0x00000000008004cd        0xb /mobackup/moslevin/m3_reorg/mark3/embedded/stage/lib/avr/atmega644/gcc/libmark3.a(timerlist.cpp.o)
                0x00000000008004cd                _ZN14TimerScheduler13m_clTimerListE
 .bss           0x00000000008004d8        0x4 /mobackup/moslevin/m3_reorg/mark3/embedded/stage/lib/avr/atmega644/gcc/libmark3.a(kprofile.cpp.o)
                0x00000000008004d8                _ZN8Profiler9m_ulEpochE
 .bss           0x00000000008004dc       0x46 /mobackup/moslevin/m3_reorg/mark3/embedded/stage/lib/avr/atmega644/gcc/libmark3.a(message.cpp.o)
                0x00000000008004dc                _ZN17GlobalMessagePool8m_clListE
                0x00000000008004e2                _ZN17GlobalMessagePool16m_aclMessagePoolE
 .bss           0x0000000000800522       0x15 /mobackup/moslevin/m3_reorg/mark3/embedded/stage/lib/avr/atmega644/gcc/libmark3.a(quantum.cpp.o)
                0x0000000000800522                _ZN7Quantum9m_bActiveE
                0x0000000000800523                _ZN7Quantum16m_clQuantumTimerE
 .bss           0x0000000000800537       0x58 /mobackup/moslevin/m3_reorg/mark3/embedded/stage/lib/avr/atmega644/gcc/libmark3.a(scheduler.cpp.o)
                0x0000000000800537                g_ucFlag
                0x0000000000800538                _ZN9Scheduler11m_ucPriFlagE
                0x0000000000800539                _ZN9Scheduler15m_aclPrioritiesE
                0x0000000000800581                _ZN9Scheduler12m_clStopListE
                0x000000000080058a                _ZN9Scheduler10m_bEnabledE
                0x000000000080058b                g_pstCurrent
                0x000000000080058d                g_pstNext
 .bss           0x000000000080058f        0x2 /mobackup/moslevin/m3_reorg/mark3/embedded/stage/lib/avr/atmega644/gcc/libdrvUART.a(drvUART.cpp.o)
 *(.bss*)
 *(COMMON)
                0x0000000000800591                PROVIDE (__bss_end, .)
                0x00000000000025fc                __data_load_start = LOADADDR (.data)
                0x00000000000026e2                __data_load_end = (__data_load_start + SIZEOF (.data))

.noinit         0x0000000000800591        0x0
                0x0000000000800591                PROVIDE (__noinit_start, .)
 *(.noinit*)
                0x0000000000800591                PROVIDE (__noinit_end, .)
                0x0000000000800591                _end = .
                0x0000000000800591                PROVIDE (__heap_start, .)

.eeprom         0x0000000000810000        0x0
 *(.eeprom*)
                0x0000000000810000                __eeprom_end = .

.fuse
 *(.fuse)
 *(.lfuse)
 *(.hfuse)
 *(.efuse)

.lock
 *(.lock*)

.signature
 *(.signature*)

.stab           0x0000000000000000     0xadb8
 *(.stab)
 .stab          0x0000000000000000      0x6cc /usr/lib/gcc/avr/4.7.2/../../../avr/lib/avr5/crtm644.o
 .stab          0x00000000000006cc     0x10d4 ./obj/avr/atmega644/gcc/ut_timers.cpp.o
                                       0x10e0 (size before relaxing)
 .stab          0x00000000000017a0      0xab0 ./obj/avr/atmega644/gcc/../ut_platform.cpp.o
                                        0xaec (size before relaxing)
 .stab          0x0000000000002250      0x780 /mobackup/moslevin/m3_reorg/mark3/embedded/stage/lib/avr/atmega644/gcc/libmark3.a(driver.cpp.o)
                                        0x78c (size before relaxing)
 .stab          0x00000000000029d0      0x798 /mobackup/moslevin/m3_reorg/mark3/embedded/stage/lib/avr/atmega644/gcc/libmark3.a(ll.cpp.o)
                                        0x804 (size before relaxing)
 .stab          0x0000000000003168      0x87c /mobackup/moslevin/m3_reorg/mark3/embedded/stage/lib/avr/atmega644/gcc/libmark3.a(profile.cpp.o)
                                        0x888 (size before relaxing)
 .stab          0x00000000000039e4      0x9c0 /mobackup/moslevin/m3_reorg/mark3/embedded/stage/lib/avr/atmega644/gcc/libmark3.a(ksemaphore.cpp.o)
                                        0xa5c (size before relaxing)
 .stab          0x00000000000043a4      0x9c0 /mobackup/moslevin/m3_reorg/mark3/embedded/stage/lib/avr/atmega644/gcc/libmark3.a(thread.cpp.o)
                                       0x10bc (size before relaxing)
 .stab          0x0000000000004d64      0x69c /mobackup/moslevin/m3_reorg/mark3/embedded/stage/lib/avr/atmega644/gcc/libmark3.a(threadlist.cpp.o)
                                        0x72c (size before relaxing)
 .stab          0x0000000000005400      0x510 /mobackup/moslevin/m3_reorg/mark3/embedded/stage/lib/avr/atmega644/gcc/libmark3.a(kernel.cpp.o)
                                        0x51c (size before relaxing)
 .stab          0x0000000000005910      0xab0 /mobackup/moslevin/m3_reorg/mark3/embedded/stage/lib/avr/atmega644/gcc/libmark3.a(timerlist.cpp.o)
                                        0xbdc (size before relaxing)
 .stab          0x00000000000063c0      0x6e4 /mobackup/moslevin/m3_reorg/mark3/embedded/stage/lib/avr/atmega644/gcc/libmark3.a(threadport.cpp.o)
                                        0x6f0 (size before relaxing)
 .stab          0x0000000000006aa4      0x45c /mobackup/moslevin/m3_reorg/mark3/embedded/stage/lib/avr/atmega644/gcc/libmark3.a(kernelswi.cpp.o)
                                        0x594 (size before relaxing)
 .stab          0x0000000000006f00      0x774 /mobackup/moslevin/m3_reorg/mark3/embedded/stage/lib/avr/atmega644/gcc/libmark3.a(kerneltimer.cpp.o)
                                        0x87c (size before relaxing)
 .stab          0x0000000000007674      0x684 /mobackup/moslevin/m3_reorg/mark3/embedded/stage/lib/avr/atmega644/gcc/libmark3.a(kprofile.cpp.o)
                                        0x690 (size before relaxing)
 .stab          0x0000000000007cf8      0x4ec /mobackup/moslevin/m3_reorg/mark3/embedded/stage/lib/avr/atmega644/gcc/libmark3.a(blocking.cpp.o)
                                        0x4f8 (size before relaxing)
 .stab          0x00000000000081e4      0x540 /mobackup/moslevin/m3_reorg/mark3/embedded/stage/lib/avr/atmega644/gcc/libmark3.a(message.cpp.o)
                                        0x96c (size before relaxing)
 .stab          0x0000000000008724      0x6e4 /mobackup/moslevin/m3_reorg/mark3/embedded/stage/lib/avr/atmega644/gcc/libmark3.a(quantum.cpp.o)
                                        0x6f0 (size before relaxing)
 .stab          0x0000000000008e08      0x6e4 /mobackup/moslevin/m3_reorg/mark3/embedded/stage/lib/avr/atmega644/gcc/libmark3.a(scheduler.cpp.o)
                                        0x6f0 (size before relaxing)
 .stab          0x00000000000094ec      0xe94 /mobackup/moslevin/m3_reorg/mark3/embedded/stage/lib/avr/atmega644/gcc/libdrvUART.a(drvUART.cpp.o)
                                        0xea0 (size before relaxing)
 .stab          0x000000000000a380      0x480 /mobackup/moslevin/m3_reorg/mark3/embedded/stage/lib/avr/atmega644/gcc/libunit_test.a(unit_test.cpp.o)
                                        0x48c (size before relaxing)
 .stab          0x000000000000a800      0x5b8 /mobackup/moslevin/m3_reorg/mark3/embedded/stage/lib/avr/atmega644/gcc/libmemutil.a(memutil.cpp.o)
                                       0x12d8 (size before relaxing)

.stabstr        0x0000000000000000    0x1b0f3
 *(.stabstr)
 .stabstr       0x0000000000000000    0x1b0f3 /usr/lib/gcc/avr/4.7.2/../../../avr/lib/avr5/crtm644.o

.stab.excl
 *(.stab.excl)

.stab.exclstr
 *(.stab.exclstr)

.stab.index
 *(.stab.index)

.stab.indexstr
 *(.stab.indexstr)

.comment        0x0000000000000000       0x11
 *(.comment)
 .comment       0x0000000000000000       0x11 ./obj/avr/atmega644/gcc/ut_timers.cpp.o
                                         0x12 (size before relaxing)
 .comment       0x0000000000000000       0x12 ./obj/avr/atmega644/gcc/../ut_platform.cpp.o
 .comment       0x0000000000000000       0x12 /mobackup/moslevin/m3_reorg/mark3/embedded/stage/lib/avr/atmega644/gcc/libmark3.a(driver.cpp.o)
 .comment       0x0000000000000000       0x12 /mobackup/moslevin/m3_reorg/mark3/embedded/stage/lib/avr/atmega644/gcc/libmark3.a(ll.cpp.o)
 .comment       0x0000000000000000       0x12 /mobackup/moslevin/m3_reorg/mark3/embedded/stage/lib/avr/atmega644/gcc/libmark3.a(profile.cpp.o)
 .comment       0x0000000000000000       0x12 /mobackup/moslevin/m3_reorg/mark3/embedded/stage/lib/avr/atmega644/gcc/libmark3.a(ksemaphore.cpp.o)
 .comment       0x0000000000000000       0x12 /mobackup/moslevin/m3_reorg/mark3/embedded/stage/lib/avr/atmega644/gcc/libmark3.a(thread.cpp.o)
 .comment       0x0000000000000000       0x12 /mobackup/moslevin/m3_reorg/mark3/embedded/stage/lib/avr/atmega644/gcc/libmark3.a(threadlist.cpp.o)
 .comment       0x0000000000000000       0x12 /mobackup/moslevin/m3_reorg/mark3/embedded/stage/lib/avr/atmega644/gcc/libmark3.a(kernel.cpp.o)
 .comment       0x0000000000000000       0x12 /mobackup/moslevin/m3_reorg/mark3/embedded/stage/lib/avr/atmega644/gcc/libmark3.a(timerlist.cpp.o)
 .comment       0x0000000000000000       0x12 /mobackup/moslevin/m3_reorg/mark3/embedded/stage/lib/avr/atmega644/gcc/libmark3.a(threadport.cpp.o)
 .comment       0x0000000000000000       0x12 /mobackup/moslevin/m3_reorg/mark3/embedded/stage/lib/avr/atmega644/gcc/libmark3.a(kernelswi.cpp.o)
 .comment       0x0000000000000000       0x12 /mobackup/moslevin/m3_reorg/mark3/embedded/stage/lib/avr/atmega644/gcc/libmark3.a(kerneltimer.cpp.o)
 .comment       0x0000000000000000       0x12 /mobackup/moslevin/m3_reorg/mark3/embedded/stage/lib/avr/atmega644/gcc/libmark3.a(kprofile.cpp.o)
 .comment       0x0000000000000000       0x12 /mobackup/moslevin/m3_reorg/mark3/embedded/stage/lib/avr/atmega644/gcc/libmark3.a(blocking.cpp.o)
 .comment       0x0000000000000000       0x12 /mobackup/moslevin/m3_reorg/mark3/embedded/stage/lib/avr/atmega644/gcc/libmark3.a(message.cpp.o)
 .comment       0x0000000000000000       0x12 /mobackup/moslevin/m3_reorg/mark3/embedded/stage/lib/avr/atmega644/gcc/libmark3.a(quantum.cpp.o)
 .comment       0x0000000000000000       0x12 /mobackup/moslevin/m3_reorg/mark3/embedded/stage/lib/avr/atmega644/gcc/libmark3.a(scheduler.cpp.o)
 .comment       0x0000000000000000       0x12 /mobackup/moslevin/m3_reorg/mark3/embedded/stage/lib/avr/atmega644/gcc/libdrvUART.a(drvUART.cpp.o)
 .comment       0x0000000000000000       0x12 /mobackup/moslevin/m3_reorg/mark3/embedded/stage/lib/avr/atmega644/gcc/libunit_test.a(unit_test.cpp.o)
 .comment       0x0000000000000000       0x12 /mobackup/moslevin/m3_reorg/mark3/embedded/stage/lib/avr/atmega644/gcc/libmemutil.a(memutil.cpp.o)

.debug
 *(.debug)

.line
 *(.line)

.debug_srcinfo
 *(.debug_srcinfo)

.debug_sfnames
 *(.debug_sfnames)

.debug_aranges
 *(.debug_aranges)

.debug_pubnames
 *(.debug_pubnames)

.debug_info
 *(.debug_info)
 *(.gnu.linkonce.wi.*)

.debug_abbrev
 *(.debug_abbrev)

.debug_line
 *(.debug_line)

.debug_frame
 *(.debug_frame)

.debug_str
 *(.debug_str)

.debug_loc
 *(.debug_loc)

.debug_macinfo
 *(.debug_macinfo)
OUTPUT(./obj/avr/atmega644/gcc/ut_timers.elf elf32-avr)
LOAD linker stubs
